 internal-base-dx9

 Timestamp is 64dc105e (Wed Aug 16 02:55:10 2023)

 Preferred load address is 0000000180000000

 Start         Length     Name                   Class
 0001:00000000 00003e80H .text$di                CODE
 0001:00003e80 000f5260H .text$mn                CODE
 0001:000f90e0 00000040H .text$mn$00             CODE
 0001:000f9120 00005690H .text$x                 CODE
 0001:000fe7b0 00001e53H .text$yd                CODE
 0002:00000000 00000b90H .idata$5                DATA
 0002:00000b90 00000038H .00cfg                  DATA
 0002:00000bc8 00000008H .CRT$XCA                DATA
 0002:00000bd0 00000008H .CRT$XCL                DATA
 0002:00000bd8 000003e0H .CRT$XCU                DATA
 0002:00000fb8 00000008H .CRT$XCZ                DATA
 0002:00000fc0 00000008H .CRT$XIA                DATA
 0002:00000fc8 00000008H .CRT$XIC                DATA
 0002:00000fd0 00000008H .CRT$XIZ                DATA
 0002:00000fd8 00000008H .CRT$XLA                DATA
 0002:00000fe0 00000008H .CRT$XLZ                DATA
 0002:00000fe8 00000008H .CRT$XPA                DATA
 0002:00000ff0 00000008H .CRT$XPZ                DATA
 0002:00000ff8 00000008H .CRT$XTA                DATA
 0002:00001000 00000020H .CRT$XTZ                DATA
 0002:00001008 00000000H .gehcont$y              DATA
 0002:00001008 00000000H .gfids$y                DATA
 0002:00001008 00000000H .giats$y                DATA
 0002:00001020 000353e0H .rdata                  DATA
 0002:00036400 00000000H .rdata$CastGuardVftablesA DATA
 0002:00036400 00000000H .rdata$CastGuardVftablesC DATA
 0002:00036400 00000030H .rdata$T                DATA
 0002:00036430 0000281cH .rdata$r                DATA
 0002:00038c4c 000008b0H .rdata$voltmd           DATA
 0002:000394fc 000003a4H .rdata$zzzdbg           DATA
 0002:000398a0 00000008H .rtc$IAA                DATA
 0002:000398a8 00000008H .rtc$IZZ                DATA
 0002:000398b0 00000008H .rtc$TAA                DATA
 0002:000398b8 00000008H .rtc$TZZ                DATA
 0002:000398c0 00000008H .tls                    DATA
 0002:000398c8 00000014H .tls$                   DATA
 0002:000398dc 00000004H .tls$ZZZ                DATA
 0002:000398e0 0000b270H .xdata                  DATA
 0002:00044b50 00000644H .xdata$x                DATA
 0002:00045194 00000000H .edata                  DATA
 0002:00045194 00000190H .idata$2                DATA
 0002:00045324 00000014H .idata$3                DATA
 0002:00045338 00000b90H .idata$4                DATA
 0002:00045ec8 0000283aH .idata$6                DATA
 0003:00000000 00000c30H .data                   DATA
 0003:00000c30 00000a40H .data$r                 DATA
 0003:00001670 00001620H .data$rs                DATA
 0003:00002c90 00006c98H .bss                    DATA
 0004:00000000 0000b400H .pdata                  DATA

  Address         Publics by Value              Rva+Base               Lib:Object

 0000:00000000       __AbsoluteZero             0000000000000000     <absolute>
 0000:00000000       ___safe_se_handler_count   0000000000000000     <absolute>
 0000:00000000       ___safe_se_handler_table   0000000000000000     <absolute>
 0000:00000000       __arm64x_extra_rfe_table   0000000000000000     <absolute>
 0000:00000000       __arm64x_extra_rfe_table_size 0000000000000000     <absolute>
 0000:00000000       __arm64x_native_entrypoint 0000000000000000     <absolute>
 0000:00000000       __arm64x_redirection_metadata 0000000000000000     <absolute>
 0000:00000000       __arm64x_redirection_metadata_count 0000000000000000     <absolute>
 0000:00000000       __dynamic_value_reloc_table 0000000000000000     <absolute>
 0000:00000000       __enclave_config           0000000000000000     <absolute>
 0000:00000000       __guard_check_icall_a64n_fptr 0000000000000000     <absolute>
 0000:00000000       __guard_eh_cont_count      0000000000000000     <absolute>
 0000:00000000       __guard_eh_cont_table      0000000000000000     <absolute>
 0000:00000000       __guard_fids_count         0000000000000000     <absolute>
 0000:00000000       __guard_fids_table         0000000000000000     <absolute>
 0000:00000000       __guard_iat_count          0000000000000000     <absolute>
 0000:00000000       __guard_iat_table          0000000000000000     <absolute>
 0000:00000000       __guard_longjmp_count      0000000000000000     <absolute>
 0000:00000000       __guard_longjmp_table      0000000000000000     <absolute>
 0000:00000000       __hybrid_auxiliary_delayload_iat 0000000000000000     <absolute>
 0000:00000000       __hybrid_auxiliary_delayload_iat_copy 0000000000000000     <absolute>
 0000:00000000       __hybrid_auxiliary_iat     0000000000000000     <absolute>
 0000:00000000       __hybrid_auxiliary_iat_copy 0000000000000000     <absolute>
 0000:00000000       __hybrid_code_map          0000000000000000     <absolute>
 0000:00000000       __hybrid_code_map_count    0000000000000000     <absolute>
 0000:00000000       __x64_code_ranges_to_entry_points 0000000000000000     <absolute>
 0000:00000000       __x64_code_ranges_to_entry_points_count 0000000000000000     <absolute>
 0000:00000100       __guard_flags              0000000000000100     <absolute>
 0000:00000000       __ImageBase                0000000180000000     <linker-defined>
 0001:00003e80       ??2@YAPEAX_KPEAX@Z         0000000180004e80 f i common.obj
 0001:00003e90       ?is_constant_evaluated@std@@YA_NXZ 0000000180004e90 f i common.obj
 0001:00003ea0       ?max@?$numeric_limits@_J@std@@SA_JXZ 0000000180004ea0 f i common.obj
 0001:00003ea0       ?max_size@?$basic_string@DU?$char_traits@D@std@@V?$allocator@D@2@@std@@QEBA_KXZ 0000000180004ea0 f i common.obj
 0001:00003eb0       ??0exception@std@@QEAA@AEBV01@@Z 0000000180004eb0 f i common.obj
 0001:00003ef0       ??1bad_alloc@std@@UEAA@XZ  0000000180004ef0 f i common.obj
 0001:00003ef0       ??1bad_array_new_length@std@@UEAA@XZ 0000000180004ef0 f i common.obj
 0001:00003ef0       ??1bad_cast@std@@UEAA@XZ   0000000180004ef0 f i main.obj
 0001:00003ef0       ??1bad_optional_access@std@@UEAA@XZ 0000000180004ef0 f i script.obj
 0001:00003ef0       ??1exception@std@@UEAA@XZ  0000000180004ef0 f i common.obj
 0001:00003ef0       ??1runtime_error@std@@UEAA@XZ 0000000180004ef0 f i detour_hook.obj
 0001:00003ef0       ??1system_error@std@@UEAA@XZ 0000000180004ef0 f i fiber_pool.obj
 0001:00003f10       ?what@exception@std@@UEBAPEBDXZ 0000000180004f10 f i common.obj
 0001:00003f30       ??_Ebad_alloc@std@@UEAAPEAXI@Z 0000000180004f30 f i * CIL library *:* CIL module *
 0001:00003f30       ??_Ebad_array_new_length@std@@UEAAPEAXI@Z 0000000180004f30 f i * CIL library *:* CIL module *
 0001:00003f30       ??_Ebad_cast@std@@UEAAPEAXI@Z 0000000180004f30 f i * CIL library *:* CIL module *
 0001:00003f30       ??_Ebad_optional_access@std@@UEAAPEAXI@Z 0000000180004f30 f i * CIL library *:* CIL module *
 0001:00003f30       ??_Eexception@std@@UEAAPEAXI@Z 0000000180004f30 f i * CIL library *:* CIL module *
 0001:00003f30       ??_Eruntime_error@std@@UEAAPEAXI@Z 0000000180004f30 f i * CIL library *:* CIL module *
 0001:00003f30       ??_Gbad_alloc@std@@UEAAPEAXI@Z 0000000180004f30 f i common.obj
 0001:00003f30       ??_Gbad_array_new_length@std@@UEAAPEAXI@Z 0000000180004f30 f i common.obj
 0001:00003f30       ??_Gbad_cast@std@@UEAAPEAXI@Z 0000000180004f30 f i main.obj
 0001:00003f30       ??_Gbad_optional_access@std@@UEAAPEAXI@Z 0000000180004f30 f i script.obj
 0001:00003f30       ??_Gexception@std@@UEAAPEAXI@Z 0000000180004f30 f i common.obj
 0001:00003f30       ??_Gruntime_error@std@@UEAAPEAXI@Z 0000000180004f30 f i detour_hook.obj
 0001:00003f80       ??0bad_array_new_length@std@@QEAA@XZ 0000000180004f80 f i common.obj
 0001:00003fb0       ?_Throw_bad_array_new_length@std@@YAXXZ 0000000180004fb0 f i common.obj
 0001:00003fb0       ?__scrt_throw_std_bad_array_new_length@@YAXXZ 0000000180004fb0 f i MSVCRT:throw_bad_alloc.obj
 0001:00003fd0       ??0bad_array_new_length@std@@QEAA@AEBV01@@Z 0000000180004fd0 f i common.obj
 0001:00004010       ??0bad_alloc@std@@QEAA@AEBV01@@Z 0000000180005010 f i common.obj
 0001:00004050       ??$_Adl_verify_range@PEADPEAD@std@@YAXAEBQEAD0@Z 0000000180005050 f i main.obj
 0001:00004050       ??$_Destroy_in_place@PEAD@std@@YAXAEAPEAD@Z 0000000180005050 f i common.obj
 0001:00004050       ??$_Pocma@V?$allocator@D@std@@@std@@YAXAEAV?$allocator@D@0@0@Z 0000000180005050 f i main.obj
 0001:00004050       ??1?$_Compressed_pair@V?$allocator@D@std@@V?$_String_val@U?$_Simple_types@D@std@@@2@$00@std@@QEAA@XZ 0000000180005050 f i common.obj
 0001:00004050       ??1_Ref_count_base@std@@UEAA@XZ 0000000180005050 f i main.obj
 0001:00004050       ??1error_category@std@@UEAA@XZ 0000000180005050 f i fiber_pool.obj
 0001:00004050       ?_Activate_SSO_buffer@?$_String_val@U?$_Simple_types@D@std@@@std@@QEAAXXZ 0000000180005050 f i common.obj
 0001:00004050       ?_Adopt@_Iterator_base0@std@@QEAAXPEBX@Z 0000000180005050 f i main.obj
 0001:00004050       ?_Alloc_proxy@_Container_base0@std@@QEAAXAEBU_Fake_allocator@2@@Z 0000000180005050 f i detour_hook.obj
 0001:00004050       ?_Orphan_all@_Container_base0@std@@QEAAXXZ 0000000180005050 f i common.obj
 0001:00004050       ?_Release@_Fake_proxy_ptr_impl@std@@QEAAXXZ 0000000180005050 f i common.obj
 0001:00004050       ?_Start_element_lifetimes@?$basic_string@DU?$char_traits@D@std@@V?$allocator@D@2@@std@@CAXQEAD_K@Z 0000000180005050 f i common.obj
 0001:00004050       _guard_check_icall_nop     0000000180005050 f i MSVCRT:guard_support.obj
 0001:00004060       ??$?0U_Exact_args_t@std@@AEBU?$_Ph@$00@1@$$V$0A@@?$tuple@U?$_Ph@$00@std@@@std@@QEAA@U_Exact_args_t@1@AEBU?$_Ph@$00@1@@Z 0000000180005060 f i main.obj
 0001:00004060       ??$_Convert_size@_K_K@std@@YA_K_K@Z 0000000180005060 f i common.obj
 0001:00004060       ??$_Unfancy@D@std@@YAPEADPEAD@Z 0000000180005060 f i common.obj
 0001:00004060       ??$addressof@V?$_String_val@U?$_Simple_types@D@std@@@std@@@std@@YAPEAV?$_String_val@U?$_Simple_types@D@std@@@0@AEAV10@@Z 0000000180005060 f i detour_hook.obj
 0001:00004060       ??$addressof@V?$basic_string@DU?$char_traits@D@std@@V?$allocator@D@2@@std@@@std@@YAPEAV?$basic_string@DU?$char_traits@D@std@@V?$allocator@D@2@@0@AEAV10@@Z 0000000180005060 f i main.obj
 0001:00004060       ??$addressof@V?$basic_stringbuf@DU?$char_traits@D@std@@V?$allocator@D@2@@std@@@std@@YAPEAV?$basic_stringbuf@DU?$char_traits@D@std@@V?$allocator@D@2@@0@AEAV10@@Z 0000000180005060 f i main.obj
 0001:00004060       ??0?$_Func_base@X$$V@std@@QEAA@XZ 0000000180005060 f i main.obj
 0001:00004060       ??0?$_Func_base@XU?$MoveOnCopy@ULogMessage@g3@@@g3@@@std@@QEAA@XZ 0000000180005060 f i main.obj
 0001:00004060       ??0?$allocator@D@std@@QEAA@XZ 0000000180005060 f i common.obj
 0001:00004060       ??0_Fake_proxy_ptr_impl@std@@QEAA@AEBU_Fake_allocator@1@AEBU_Container_base0@1@@Z 0000000180005060 f i common.obj
 0001:00004060       ?_Getal@?$_Tree@V?$_Tmap_traits@V?$basic_string@DU?$char_traits@D@std@@V?$allocator@D@2@@std@@V?$basic_json@Vmap@std@@Vvector@2@V?$basic_string@DU?$char_traits@D@std@@V?$allocator@D@2@@2@_N_J_KNVallocator@2@Uadl_serializer@json_abi_v3_11_2@nlohmann@@V?$vector@EV?$allocator@E@std@@@2@@json_abi_v3_11_2@nlohmann@@U?$less@X@2@V?$allocator@U?$pair@$$CBV?$basic_string@DU?$char_traits@D@std@@V?$allocator@D@2@@std@@V?$basic_json@Vmap@std@@Vvector@2@V?$basic_string@DU?$char_traits@D@std@@V?$allocator@D@2@@2@_N_J_KNVallocator@2@Uadl_serializer@json_abi_v3_11_2@nlohmann@@V?$vector@EV?$allocator@E@std@@@2@@json_abi_v3_11_2@nlohmann@@@std@@@2@$0A@@std@@@std@@IEAAAEAV?$allocator@U?$_Tree_node@U?$pair@$$CBV?$basic_string@DU?$char_traits@D@std@@V?$allocator@D@2@@std@@V?$basic_json@Vmap@std@@Vvector@2@V?$basic_string@DU?$char_traits@D@std@@V?$allocator@D@2@@2@_N_J_KNVallocator@2@Uadl_serializer@json_abi_v3_11_2@nlohmann@@V?$vector@EV?$allocator@E@std@@@2@@json_abi_v3_11_2@nlohmann@@@std@@PEAX@std@@@2@XZ 0000000180005060 f i main.obj
 0001:00004060       ?_Getal@?$basic_string@DU?$char_traits@D@std@@V?$allocator@D@2@@std@@AEAAAEAV?$allocator@D@2@XZ 0000000180005060 f i common.obj
 0001:00004060       ?_Getal@?$basic_string@DU?$char_traits@D@std@@V?$allocator@D@2@@std@@AEBAAEBV?$allocator@D@2@XZ 0000000180005060 f i common.obj
 0001:00004060       ?_Mycnd@condition_variable@std@@AEAAPEAU_Cnd_internal_imp_t@@XZ 0000000180005060 f i main.obj
 0001:00004060       ?_Mymtx@_Mutex_base@std@@AEAAPEAU_Mtx_internal_imp_t@@XZ 0000000180005060 f i fiber_pool.obj
 0001:00004060       ?get@?$MoveOnCopy@ULogMessage@g3@@@g3@@QEAAAEAULogMessage@2@XZ 0000000180005060 f i main.obj
 0001:00004060       ?select_on_container_copy_construction@?$_Default_allocator_traits@V?$allocator@D@std@@@std@@SA?AV?$allocator@D@2@AEBV32@@Z 0000000180005060 f i common.obj
 0001:00004070       ?_Xlen_string@std@@YAXXZ   0000000180005070 f i common.obj
 0001:00004090       ??0LEVELS@@QEAA@HAEBV?$basic_string@DU?$char_traits@D@std@@V?$allocator@D@2@@std@@@Z 0000000180005090 f i common.obj
 0001:000040b0       ??1LEVELS@@QEAA@XZ         00000001800050b0 f i common.obj
 0001:00004120       ??0?$basic_string@DU?$char_traits@D@std@@V?$allocator@D@2@@std@@QEAA@QEBD@Z 0000000180005120 f i common.obj
 0001:00004160       ?length@?$_Narrow_char_traits@DH@std@@SA_KQEBD@Z 0000000180005160 f i common.obj
 0001:00004180       ??$_Construct@$00PEBD@?$basic_string@DU?$char_traits@D@std@@V?$allocator@D@2@@std@@AEAAXQEBD_K@Z 0000000180005180 f i common.obj
 0001:00004290       ??$min@_K@std@@YAAEB_KAEB_K0@Z 0000000180005290 f i common.obj
 0001:000042a0       ?copy@?$_Char_traits@DH@std@@SAPEADQEADQEBD_K@Z 00000001800052a0 f i common.obj
 0001:000042c0       ?assign@?$_Narrow_char_traits@DH@std@@SAXAEADAEBD@Z 00000001800052c0 f i common.obj
 0001:000042d0       ?_Large_string_engaged@?$_String_val@U?$_Simple_types@D@std@@@std@@QEBA_NXZ 00000001800052d0 f i common.obj
 0001:000042e0       ?_Calculate_growth@?$basic_string@DU?$char_traits@D@std@@V?$allocator@D@2@@std@@AEBA_K_K@Z 00000001800052e0 f i common.obj
 0001:00004320       ??1?$basic_string@DU?$char_traits@D@std@@V?$allocator@D@2@@std@@QEAA@XZ 0000000180005320 f i common.obj
 0001:00004320       ??1?$pair@$$CBV?$basic_string@DU?$char_traits@D@std@@V?$allocator@D@2@@std@@W4log_color@big@@@std@@QEAA@XZ 0000000180005320 f i main.obj
 0001:00004320       ?_Tidy_deallocate@?$basic_string@DU?$char_traits@D@std@@V?$allocator@D@2@@std@@AEAAXXZ 0000000180005320 f i common.obj
 0001:00004380       ??0?$basic_string@DU?$char_traits@D@std@@V?$allocator@D@2@@std@@QEAA@AEBV01@@Z 0000000180005380 f i common.obj
 0001:000044a0       ?allocate@?$allocator@D@std@@QEAAPEAD_K@Z 00000001800054a0 f i common.obj
 0001:00004500       ?_Calculate_growth@?$basic_string@DU?$char_traits@D@std@@V?$allocator@D@2@@std@@CA_K_K00@Z 0000000180005500 f i common.obj
 0001:00004530       ?_Myptr@?$_String_val@U?$_Simple_types@D@std@@@std@@QEAAPEADXZ 0000000180005530 f i fiber_pool.obj
 0001:00004530       ?_Myptr@?$_String_val@U?$_Simple_types@D@std@@@std@@QEBAPEBDXZ 0000000180005530 f i common.obj
 0001:00004530       ?c_str@?$basic_string@DU?$char_traits@D@std@@V?$allocator@D@2@@std@@QEBAPEBDXZ 0000000180005530 f i detour_hook.obj
 0001:00004540       ?deallocate@?$allocator@D@std@@QEAAXQEAD_K@Z 0000000180005540 f i common.obj
 0001:00004580       ??$_Construct_in_place@PEADAEBQEAD@std@@YAXAEAPEADAEBQEAD@Z 0000000180005580 f i common.obj
 0001:00004590       ??$?0AEBV?$allocator@D@std@@$$V@?$_Compressed_pair@V?$allocator@D@std@@V?$_String_val@U?$_Simple_types@D@std@@@2@$00@std@@QEAA@U_One_then_variadic_args_t@1@AEBV?$allocator@D@1@@Z 0000000180005590 f i main.obj
 0001:00004590       ??$?0V?$allocator@D@std@@$$V@?$_Compressed_pair@V?$allocator@D@std@@V?$_String_val@U?$_Simple_types@D@std@@@2@$00@std@@QEAA@U_One_then_variadic_args_t@1@$$QEAV?$allocator@D@1@@Z 0000000180005590 f i common.obj
 0001:000045b0       ??$_Allocate@$0BA@U_Default_allocate_traits@std@@$0A@@std@@YAPEAX_K@Z 00000001800055b0 f i common.obj
 0001:00004610       ??$_Deallocate@$07$0A@@std@@YAXPEAX_K@Z 0000000180005610 f i main.obj
 0001:00004610       ??$_Deallocate@$0BA@$0A@@std@@YAXPEAX_K@Z 0000000180005610 f i common.obj
 0001:00004650       ??$_Maklocstr@D@std@@YAPEADPEBDPEADAEBU_Cvtvec@@@Z 0000000180005650 f i common.obj
 0001:000046d0       ??0detour_hook@big@@QEAA@V?$basic_string@DU?$char_traits@D@std@@V?$allocator@D@2@@std@@PEAX1@Z 00000001800056d0 f   detour_hook.obj
 0001:000048e0       ??1detour_hook@big@@QEAA@XZ 00000001800058e0 f   detour_hook.obj
 0001:00004a20       ?enable@detour_hook@big@@QEAAXXZ 0000000180005a20 f   detour_hook.obj
 0001:00004b80       ?disable@detour_hook@big@@QEAAXXZ 0000000180005b80 f   detour_hook.obj
 0001:00004d10       ?fix_hook_address@detour_hook@big@@QEAAXXZ 0000000180005d10 f   detour_hook.obj
 0001:00004dd0       ??$?0U?$default_delete@V_Facet_base@std@@@std@@$0A@@?$unique_ptr@V_Facet_base@std@@U?$default_delete@V_Facet_base@std@@@2@@std@@QEAA@PEAV_Facet_base@1@@Z 0000000180005dd0 f   main.obj
 0001:00004dd0       ??$forward_as_tuple@U?$MoveOnCopy@ULogMessage@g3@@@g3@@@std@@YA?AV?$tuple@$$QEAU?$MoveOnCopy@ULogMessage@g3@@@g3@@@0@$$QEAU?$MoveOnCopy@ULogMessage@g3@@@g3@@@Z 0000000180005dd0 f   main.obj
 0001:00004dd0       ??__Kms@chrono_literals@literals@std@@YA?AV?$duration@_JU?$ratio@$00$0DOI@@std@@@chrono@3@_K@Z 0000000180005dd0 f   main.obj
 0001:00004de0       ??$format@AEAV?$basic_string@DU?$char_traits@D@std@@V?$allocator@D@2@@std@@_KPEBD@v10@fmt@@YA?AV?$basic_string@DU?$char_traits@D@std@@V?$allocator@D@2@@std@@V?$basic_format_string@DAEAV?$basic_string@DU?$char_traits@D@std@@V?$allocator@D@2@@std@@_KPEBD@01@AEAV23@$$QEA_K$$QEAPEBD@Z 0000000180005de0 f i detour_hook.obj
 0001:00004ec0       ??$format@_KPEBD@v10@fmt@@YA?AV?$basic_string@DU?$char_traits@D@std@@V?$allocator@D@2@@std@@V?$basic_format_string@D_KPEBD@01@$$QEA_K$$QEAPEBD@Z 0000000180005ec0 f i detour_hook.obj
 0001:00004f60       ??$format@AEAV?$basic_string@DU?$char_traits@D@std@@V?$allocator@D@2@@std@@@v10@fmt@@YA?AV?$basic_string@DU?$char_traits@D@std@@V?$allocator@D@2@@std@@V?$basic_format_string@DAEAV?$basic_string@DU?$char_traits@D@std@@V?$allocator@D@2@@std@@@01@AEAV23@@Z 0000000180005f60 f i detour_hook.obj
 0001:00005000       ?_Get@?$_Func_impl_no_alloc@V<lambda_1>@?1???1Active@kjellkod@@UEAA@XZ@X$$V@std@@EEBAPEBXXZ 0000000180006000 f i main.obj
 0001:00005000       ?_Get@?$_Func_impl_no_alloc@V<lambda_1>@?1??send@?$Sink@Ulog_sink@logger@big@@@internal@g3@@UEAAXU?$MoveOnCopy@ULogMessage@g3@@@5@@Z@X$$V@std@@EEBAPEBXXZ 0000000180006000 f i main.obj
 0001:00005000       ?_Get@?$_Func_impl_no_alloc@V?$_Binder@U_Unforced@std@@AEAP8log_sink@logger@big@@EAAXU?$MoveOnCopy@ULogMessage@g3@@@g3@@@ZPEAU345@AEBU?$_Ph@$00@2@@std@@XU?$MoveOnCopy@ULogMessage@g3@@@g3@@@std@@EEBAPEBXXZ 0000000180006000 f i main.obj
 0001:00005000       ?stream@LogCapture@@QEAAAEAV?$basic_ostringstream@DU?$char_traits@D@std@@V?$allocator@D@2@@std@@XZ 0000000180006000 f i detour_hook.obj
 0001:00005010       ??$_Insert_string@DU?$char_traits@D@std@@_K@std@@YAAEAV?$basic_ostream@DU?$char_traits@D@std@@@0@AEAV10@QEBD_K@Z 0000000180006010 f i detour_hook.obj
 0001:000051d0       ?size@?$basic_string@DU?$char_traits@D@std@@V?$allocator@D@2@@std@@QEBA_KXZ 00000001800061d0 f i detour_hook.obj
 0001:000051e0       ??$?6DU?$char_traits@D@std@@V?$allocator@D@1@@std@@YAAEAV?$basic_ostream@DU?$char_traits@D@std@@@0@AEAV10@AEBV?$basic_string@DU?$char_traits@D@std@@V?$allocator@D@2@@0@@Z 00000001800061e0 f i detour_hook.obj
 0001:00005200       ??0sentry@?$basic_ostream@DU?$char_traits@D@std@@@std@@QEAA@AEAV12@@Z 0000000180006200 f i detour_hook.obj
 0001:00005290       ??1_Sentry_base@?$basic_ostream@DU?$char_traits@D@std@@@std@@QEAA@XZ 0000000180006290 f i detour_hook.obj
 0001:000052c0       ??1sentry@?$basic_ostream@DU?$char_traits@D@std@@@std@@QEAA@XZ 00000001800062c0 f i detour_hook.obj
 0001:00005300       ??Bsentry@?$basic_ostream@DU?$char_traits@D@std@@@std@@QEBA_NXZ 0000000180006300 f i detour_hook.obj
 0001:00005310       ?eq_int_type@?$_Narrow_char_traits@DH@std@@SA_NAEBH0@Z 0000000180006310 f i detour_hook.obj
 0001:00005320       ?eof@?$_Narrow_char_traits@DH@std@@SAHXZ 0000000180006320 f i detour_hook.obj
 0001:00005330       ??0exception@std@@QEAA@QEBD@Z 0000000180006330 f i detour_hook.obj
 0001:00005370       ??0runtime_error@std@@QEAA@AEBV?$basic_string@DU?$char_traits@D@std@@V?$allocator@D@2@@1@@Z 0000000180006370 f i detour_hook.obj
 0001:000053d0       ??0runtime_error@std@@QEAA@AEBV01@@Z 00000001800063d0 f i detour_hook.obj
 0001:00005410       ??$?6U?$char_traits@D@std@@@std@@YAAEAV?$basic_ostream@DU?$char_traits@D@std@@@0@AEAV10@PEBD@Z 0000000180006410 f i detour_hook.obj
 0001:000055e0       ?_Tidy_init@?$basic_string@DU?$char_traits@D@std@@V?$allocator@D@2@@std@@AEAAXXZ 00000001800065e0 f i detour_hook.obj
 0001:00005600       ??0?$basic_string@DU?$char_traits@D@std@@V?$allocator@D@2@@std@@QEAA@$$QEAV01@@Z 0000000180006600 f i detour_hook.obj
 0001:00005630       ??1mutex@std@@QEAA@XZ      0000000180006630 f i main.obj
 0001:00005630       ??1recursive_mutex@std@@QEAA@XZ 0000000180006630 f i fiber_pool.obj
 0001:00005640       ??1?$stack@V?$function@$$A6AXXZ@std@@V?$deque@V?$function@$$A6AXXZ@std@@V?$allocator@V?$function@$$A6AXXZ@std@@@2@@2@@std@@QEAA@XZ 0000000180006640 f i fiber_pool.obj
 0001:00005650       ?fiber_tick@fiber_pool@big@@QEAAXXZ 0000000180006650 f   fiber_pool.obj
 0001:000057d0       ?fiber_func@fiber_pool@big@@SAXXZ 00000001800067d0 f   fiber_pool.obj
 0001:00005800       ??1?$unique_lock@Vmutex@std@@@std@@QEAA@XZ 0000000180006800 f i main.obj
 0001:00005800       ??1?$unique_lock@Vrecursive_mutex@std@@@std@@QEAA@XZ 0000000180006800 f i fiber_pool.obj
 0001:00005820       ??1?$lock_guard@Vmutex@std@@@std@@QEAA@XZ 0000000180006820 f i main.obj
 0001:00005820       ??1?$lock_guard@Vrecursive_mutex@std@@@std@@QEAA@XZ 0000000180006820 f i fiber_pool.obj
 0001:00005830       ??1?$unique_ptr@Vscript@big@@U?$default_delete@Vscript@big@@@std@@@std@@QEAA@XZ 0000000180006830 f i fiber_pool.obj
 0001:00005870       ??1?$vector@V?$unique_ptr@Vscript@big@@U?$default_delete@Vscript@big@@@std@@@std@@V?$allocator@V?$unique_ptr@Vscript@big@@U?$default_delete@Vscript@big@@@std@@@std@@@2@@std@@QEAA@XZ 0000000180006870 f i fiber_pool.obj
 0001:00005930       ??$make_unique@Vscript@big@@P6AXXZ$0A@@std@@YA?AV?$unique_ptr@Vscript@big@@U?$default_delete@Vscript@big@@@std@@@0@$$QEAP6AXXZ@Z 0000000180006930 f i fiber_pool.obj
 0001:000059a0       ??R?$_Func_class@X$$V@std@@QEBAXXZ 00000001800069a0 f i fiber_pool.obj
 0001:000059c0       ?_Xlen@?$deque@V?$function@$$A6AXXZ@std@@V?$allocator@V?$function@$$A6AXXZ@std@@@2@@std@@AEBAXXZ 00000001800069c0 f i fiber_pool.obj
 0001:000059e0       ??$_Get_size_of_n@$07@std@@YA_K_K@Z 00000001800069e0 f i fiber_pool.obj
 0001:00005a10       ?_Growmap@?$deque@V?$function@$$A6AXXZ@std@@V?$allocator@V?$function@$$A6AXXZ@std@@@2@@std@@AEAAX_K@Z 0000000180006a10 f i fiber_pool.obj
 0001:00005bf0       ?push_back@?$deque@V?$function@$$A6AXXZ@std@@V?$allocator@V?$function@$$A6AXXZ@std@@@2@@std@@QEAAX$$QEAV?$function@$$A6AXXZ@2@@Z 0000000180006bf0 f i fiber_pool.obj
 0001:00005cc0       ?empty@?$basic_string@DU?$char_traits@D@std@@V?$allocator@D@2@@std@@QEBA_NXZ 0000000180006cc0 f i fiber_pool.obj
 0001:00005cd0       ??Y?$basic_string@DU?$char_traits@D@std@@V?$allocator@D@2@@std@@QEAAAEAV01@QEBD@Z 0000000180006cd0 f i main.obj
 0001:00005cd0       ?append@?$basic_string@DU?$char_traits@D@std@@V?$allocator@D@2@@std@@QEAAAEAV12@QEBD@Z 0000000180006cd0 f i fiber_pool.obj
 0001:00005cf0       ?move@?$_Char_traits@DH@std@@SAPEADQEADQEBD_K@Z 0000000180006cf0 f i fiber_pool.obj
 0001:00005d10       ??$_Reallocate_grow_by@V<lambda_1>@?1??append@?$basic_string@DU?$char_traits@D@std@@V?$allocator@D@2@@std@@QEAAAEAV34@QEBD_K@Z@PEBD_K@?$basic_string@DU?$char_traits@D@std@@V?$allocator@D@2@@std@@AEAAAEAV01@_KV<lambda_1>@?1??append@01@QEAAAEAV01@QEBD0@Z@PEBD_K@Z 0000000180006d10 f i fiber_pool.obj
 0001:00005ea0       ?append@?$basic_string@DU?$char_traits@D@std@@V?$allocator@D@2@@std@@QEAAAEAV12@QEBD_K@Z 0000000180006ea0 f i fiber_pool.obj
 0001:00005f30       ??Y?$basic_string@DU?$char_traits@D@std@@V?$allocator@D@2@@std@@QEAAAEAV01@AEBV01@@Z 0000000180006f30 f i main.obj
 0001:00005f30       ?append@?$basic_string@DU?$char_traits@D@std@@V?$allocator@D@2@@std@@QEAAAEAV12@AEBV12@@Z 0000000180006f30 f i fiber_pool.obj
 0001:00005f50       ?_Makestr@_System_error@std@@CA?AV?$basic_string@DU?$char_traits@D@std@@V?$allocator@D@2@@2@Verror_code@2@V32@@Z 0000000180006f50 f i fiber_pool.obj
 0001:000060b0       ??0_System_error@std@@IEAA@Verror_code@1@AEBV?$basic_string@DU?$char_traits@D@std@@V?$allocator@D@2@@1@@Z 00000001800070b0 f i fiber_pool.obj
 0001:000061c0       ??0system_error@std@@QEAA@Verror_code@1@@Z 00000001800071c0 f i fiber_pool.obj
 0001:00006340       ??0error_code@std@@QEAA@HAEBVerror_category@1@@Z 0000000180007340 f i fiber_pool.obj
 0001:00006350       ??_E?$output_string_adapter@DV?$basic_string@DU?$char_traits@D@std@@V?$allocator@D@2@@std@@@detail@json_abi_v3_11_2@nlohmann@@UEAAPEAXI@Z 0000000180007350 f i * CIL library *:* CIL module *
 0001:00006350       ??_E_Generic_error_category@std@@UEAAPEAXI@Z 0000000180007350 f i * CIL library *:* CIL module *
 0001:00006350       ??_E_System_error_category@std@@UEAAPEAXI@Z 0000000180007350 f i * CIL library *:* CIL module *
 0001:00006350       ??_G?$output_string_adapter@DV?$basic_string@DU?$char_traits@D@std@@V?$allocator@D@2@@std@@@detail@json_abi_v3_11_2@nlohmann@@UEAAPEAXI@Z 0000000180007350 f i main.obj
 0001:00006350       ??_G_Generic_error_category@std@@UEAAPEAXI@Z 0000000180007350 f i fiber_pool.obj
 0001:00006350       ??_G_System_error_category@std@@UEAAPEAXI@Z 0000000180007350 f i main.obj
 0001:00006380       ?name@_Generic_error_category@std@@UEBAPEBDXZ 0000000180007380 f i fiber_pool.obj
 0001:00006390       ?message@_Generic_error_category@std@@UEBA?AV?$basic_string@DU?$char_traits@D@std@@V?$allocator@D@2@@2@H@Z 0000000180007390 f i fiber_pool.obj
 0001:000063e0       ?value@error_code@std@@QEBAHXZ 00000001800073e0 f i fiber_pool.obj
 0001:000063f0       ?equivalent@error_category@std@@UEBA_NAEBVerror_code@2@H@Z 00000001800073f0 f i fiber_pool.obj
 0001:00006410       ?default_error_condition@error_category@std@@UEBA?AVerror_condition@2@H@Z 0000000180007410 f i fiber_pool.obj
 0001:00006420       ?equivalent@error_category@std@@UEBA_NHAEBVerror_condition@2@@Z 0000000180007420 f i fiber_pool.obj
 0001:00006460       ?make_error_code@std@@YA?AVerror_code@1@W4errc@1@@Z 0000000180007460 f i fiber_pool.obj
 0001:00006480       ??_E_System_error@std@@UEAAPEAXI@Z 0000000180007480 f i * CIL library *:* CIL module *
 0001:00006480       ??_Esystem_error@std@@UEAAPEAXI@Z 0000000180007480 f i * CIL library *:* CIL module *
 0001:00006480       ??_G_System_error@std@@UEAAPEAXI@Z 0000000180007480 f i fiber_pool.obj
 0001:00006480       ??_Gsystem_error@std@@UEAAPEAXI@Z 0000000180007480 f i fiber_pool.obj
 0001:000064d0       ??0system_error@std@@QEAA@AEBV01@@Z 00000001800074d0 f i fiber_pool.obj
 0001:00006530       ??0_System_error@std@@QEAA@AEBV01@@Z 0000000180007530 f i fiber_pool.obj
 0001:00006590       ?_Throw_system_error@std@@YAXW4errc@1@@Z 0000000180007590 f i fiber_pool.obj
 0001:000065d0       ??0?$_Func_class@X$$V@std@@QEAA@XZ 00000001800075d0 f i fiber_pool.obj
 0001:000065d0       ??0?$_Func_class@XU?$MoveOnCopy@ULogMessage@g3@@@g3@@@std@@QEAA@XZ 00000001800075d0 f i main.obj
 0001:000065d0       ??0?$function@$$A6AXXZ@std@@QEAA@XZ 00000001800075d0 f i main.obj
 0001:000065e0       ?_Reset_move@?$_Func_class@X$$V@std@@IEAAX$$QEAV12@@Z 00000001800075e0 f i fiber_pool.obj
 0001:00006650       ?_Getimpl@?$_Func_class@X$$V@std@@AEBAPEAV?$_Func_base@X$$V@2@XZ 0000000180007650 f i fiber_pool.obj
 0001:00006660       ?_Local@?$_Func_class@X$$V@std@@AEBA_NXZ 0000000180007660 f i fiber_pool.obj
 0001:00006670       ?_Set@?$_Func_class@X$$V@std@@AEAAXPEAV?$_Func_base@X$$V@2@@Z 0000000180007670 f i fiber_pool.obj
 0001:00006670       ?_Set@?$_Func_class@XU?$MoveOnCopy@ULogMessage@g3@@@g3@@@std@@AEAAXPEAV?$_Func_base@XU?$MoveOnCopy@ULogMessage@g3@@@g3@@@2@@Z 0000000180007670 f i main.obj
 0001:00006680       ??1?$_Func_class@X$$V@std@@QEAA@XZ 0000000180007680 f i fiber_pool.obj
 0001:00006680       ??1?$_Func_class@XU?$MoveOnCopy@ULogMessage@g3@@@g3@@@std@@QEAA@XZ 0000000180007680 f i main.obj
 0001:00006680       ??1?$_Func_class@_NHW4parse_event_t@detail@json_abi_v3_11_2@nlohmann@@AEAV?$basic_json@Vmap@std@@Vvector@2@V?$basic_string@DU?$char_traits@D@std@@V?$allocator@D@2@@2@_N_J_KNVallocator@2@Uadl_serializer@json_abi_v3_11_2@nlohmann@@V?$vector@EV?$allocator@E@std@@@2@@34@@std@@QEAA@XZ 0000000180007680 f i main.obj
 0001:00006680       ??1?$function@$$A6AXU?$MoveOnCopy@ULogMessage@g3@@@g3@@@Z@std@@QEAA@XZ 0000000180007680 f i main.obj
 0001:00006680       ??1?$function@$$A6AXVhandle@memory@@@Z@std@@QEAA@XZ 0000000180007680 f i pattern_batch.obj
 0001:00006680       ??1?$function@$$A6AXXZ@std@@QEAA@XZ 0000000180007680 f i fiber_pool.obj
 0001:00006680       ??1?$function@$$A6A_NHW4parse_event_t@detail@json_abi_v3_11_2@nlohmann@@AEAV?$basic_json@Vmap@std@@Vvector@2@V?$basic_string@DU?$char_traits@D@std@@V?$allocator@D@2@@2@_N_J_KNVallocator@2@Uadl_serializer@json_abi_v3_11_2@nlohmann@@V?$vector@EV?$allocator@E@std@@@2@@34@@Z@std@@QEAA@XZ 0000000180007680 f i main.obj
 0001:000066b0       ??1?$deque@V?$function@$$A6AXXZ@std@@V?$allocator@V?$function@$$A6AXXZ@std@@@2@@std@@QEAA@XZ 00000001800076b0 f i fiber_pool.obj
 0001:000067d0       ??$_Get_size_of_n@$0BA@@std@@YA_K_K@Z 00000001800077d0 f i fiber_pool.obj
 0001:00006800       ??0ImVec2@@QEAA@MM@Z       0000000180007800 f i gui.obj
 0001:00006810       ??0ImVec4@@QEAA@MMMM@Z     0000000180007810 f i gui.obj
 0001:00006830       ?dx_init@gui@big@@QEAAXXZ  0000000180007830 f   gui.obj
 0001:00006a90       ?script_on_tick@gui@big@@QEAAXXZ 0000000180007a90 f   gui.obj
 0001:00006aa0       ?script_func@gui@big@@SAXXZ 0000000180007aa0 f   gui.obj
 0001:00006ad0       ?enable@hooking@big@@QEAAXXZ 0000000180007ad0 f   hooking.obj
 0001:00006b30       ?disable@hooking@big@@QEAAXXZ 0000000180007b30 f   hooking.obj
 0001:00006b80       ??1minhook_keepalive@big@@QEAA@XZ 0000000180007b80 f   hooking.obj
 0001:00006b90       ?wndproc@hooks@big@@SA_JPEAUHWND__@@I_K_J@Z 0000000180007b90 f   hooking.obj
 0001:00006c50       ?set_cursor_pos@hooks@big@@SAHHH@Z 0000000180007c50 f   hooking.obj
 0001:00006c70       ??B?$atomic@_N@std@@QEBA_NXZ 0000000180007c70 f i hooking.obj
 0001:00006c80       ?endscene@hooks@big@@SAJPEAUIDirect3DDevice9@@@Z 0000000180007c80 f   device_hook.obj
 0001:00006cd0       ?on_reset@hooks@big@@SAJPEAUIDirect3DDevice9@@PEAU_D3DPRESENT_PARAMETERS_@@@Z 0000000180007cd0 f   device_hook.obj
 0001:00006d30       ?to_json@settings@big@@QEAA?AV?$basic_json@Vmap@std@@Vvector@2@V?$basic_string@DU?$char_traits@D@std@@V?$allocator@D@2@@2@_N_J_KNVallocator@2@Uadl_serializer@json_abi_v3_11_2@nlohmann@@V?$vector@EV?$allocator@E@std@@@2@@json_abi_v3_11_2@nlohmann@@XZ 0000000180007d30 f i main.obj
 0001:00007420       ?attempt_save@settings@big@@QEAAXXZ 0000000180008420 f i main.obj
 0001:00007480       ?load@settings@big@@QEAA_NXZ 0000000180008480 f i main.obj
 0001:00007ac0       ?deep_compare@settings@big@@AEAA_NAEAV?$basic_json@Vmap@std@@Vvector@2@V?$basic_string@DU?$char_traits@D@std@@V?$allocator@D@2@@2@_N_J_KNVallocator@2@Uadl_serializer@json_abi_v3_11_2@nlohmann@@V?$vector@EV?$allocator@E@std@@@2@@json_abi_v3_11_2@nlohmann@@AEBV345@_N@Z 0000000180008ac0 f i main.obj
 0001:00008240       ?save@settings@big@@AEAA_NXZ 0000000180009240 f i main.obj
 0001:00008460       ?write_default_config@settings@big@@AEAA_NXZ 0000000180009460 f i main.obj
 0001:00008680       ??1?$json_ref@V?$basic_json@Vmap@std@@Vvector@2@V?$basic_string@DU?$char_traits@D@std@@V?$allocator@D@2@@2@_N_J_KNVallocator@2@Uadl_serializer@json_abi_v3_11_2@nlohmann@@V?$vector@EV?$allocator@E@std@@@2@@json_abi_v3_11_2@nlohmann@@@detail@json_abi_v3_11_2@nlohmann@@QEAA@XZ 0000000180009680 f i main.obj
 0001:000086a0       ??_D?$basic_ifstream@DU?$char_traits@D@std@@@std@@QEAAXXZ 00000001800096a0 f i main.obj
 0001:00008710       ??1?$iteration_proxy_value@V?$iter_impl@$$CBV?$basic_json@Vmap@std@@Vvector@2@V?$basic_string@DU?$char_traits@D@std@@V?$allocator@D@2@@2@_N_J_KNVallocator@2@Uadl_serializer@json_abi_v3_11_2@nlohmann@@V?$vector@EV?$allocator@E@std@@@2@@json_abi_v3_11_2@nlohmann@@@detail@json_abi_v3_11_2@nlohmann@@@detail@json_abi_v3_11_2@nlohmann@@QEAA@XZ 0000000180009710 f i main.obj
 0001:000087c0       ?main_thread@@YAKPEAX@Z    00000001800097c0 f   main.obj
 0001:000091d0       DllMain                    000000018000a1d0 f   main.obj
 0001:00009240       ?reset@?$unique_ptr@Vthread_pool@big@@U?$default_delete@Vthread_pool@big@@@std@@@std@@QEAAXPEAVthread_pool@big@@@Z 000000018000a240 f i main.obj
 0001:000092d0       ??1?$unique_ptr@Vthread_pool@big@@U?$default_delete@Vthread_pool@big@@@std@@@std@@QEAA@XZ 000000018000a2d0 f i main.obj
 0001:00009360       ?reset@?$unique_ptr@Vhooking@big@@U?$default_delete@Vhooking@big@@@std@@@std@@QEAAXPEAVhooking@big@@@Z 000000018000a360 f i main.obj
 0001:00009380       ??1?$unique_ptr@Vhooking@big@@U?$default_delete@Vhooking@big@@@std@@@std@@QEAA@XZ 000000018000a380 f i main.obj
 0001:00009390       ?reset@?$unique_ptr@Vfiber_pool@big@@U?$default_delete@Vfiber_pool@big@@@std@@@std@@QEAAXPEAVfiber_pool@big@@@Z 000000018000a390 f i main.obj
 0001:000093e0       ??1?$unique_ptr@Vfiber_pool@big@@U?$default_delete@Vfiber_pool@big@@@std@@@std@@QEAA@XZ 000000018000a3e0 f i main.obj
 0001:00009430       ?reset@?$unique_ptr@Vrenderer@big@@U?$default_delete@Vrenderer@big@@@std@@@std@@QEAAXPEAVrenderer@big@@@Z 000000018000a430 f i main.obj
 0001:00009480       ??1?$unique_ptr@Vrenderer@big@@U?$default_delete@Vrenderer@big@@@std@@@std@@QEAA@XZ 000000018000a480 f i main.obj
 0001:000094d0       ?reset@?$unique_ptr@Vpointers@big@@U?$default_delete@Vpointers@big@@@std@@@std@@QEAAXPEAVpointers@big@@@Z 000000018000a4d0 f i main.obj
 0001:00009500       ??1?$unique_ptr@Vpointers@big@@U?$default_delete@Vpointers@big@@@std@@@std@@QEAA@XZ 000000018000a500 f i main.obj
 0001:00009520       ?reset@?$unique_ptr@Vsettings@big@@U?$default_delete@Vsettings@big@@@std@@@std@@QEAAXPEAVsettings@big@@@Z 000000018000a520 f i main.obj
 0001:00009570       ??1?$unique_ptr@Vsettings@big@@U?$default_delete@Vsettings@big@@@std@@@std@@QEAA@XZ 000000018000a570 f i main.obj
 0001:000095c0       ?reset@?$unique_ptr@Vlogger@big@@U?$default_delete@Vlogger@big@@@std@@@std@@QEAAXPEAVlogger@big@@@Z 000000018000a5c0 f i main.obj
 0001:00009600       ??1?$unique_ptr@Vlogger@big@@U?$default_delete@Vlogger@big@@@std@@@std@@QEAA@XZ 000000018000a600 f i main.obj
 0001:00009630       ?value@?$iteration_proxy_value@V?$iter_impl@$$CBV?$basic_json@Vmap@std@@Vvector@2@V?$basic_string@DU?$char_traits@D@std@@V?$allocator@D@2@@2@_N_J_KNVallocator@2@Uadl_serializer@json_abi_v3_11_2@nlohmann@@V?$vector@EV?$allocator@E@std@@@2@@json_abi_v3_11_2@nlohmann@@@detail@json_abi_v3_11_2@nlohmann@@@detail@json_abi_v3_11_2@nlohmann@@QEBAAEBV?$basic_json@Vmap@std@@Vvector@2@V?$basic_string@DU?$char_traits@D@std@@V?$allocator@D@2@@2@_N_J_KNVallocator@2@Uadl_serializer@json_abi_v3_11_2@nlohmann@@V?$vector@EV?$allocator@E@std@@@2@@34@XZ 000000018000a630 f i main.obj
 0001:00009740       ?key@?$iteration_proxy_value@V?$iter_impl@$$CBV?$basic_json@Vmap@std@@Vvector@2@V?$basic_string@DU?$char_traits@D@std@@V?$allocator@D@2@@2@_N_J_KNVallocator@2@Uadl_serializer@json_abi_v3_11_2@nlohmann@@V?$vector@EV?$allocator@E@std@@@2@@json_abi_v3_11_2@nlohmann@@@detail@json_abi_v3_11_2@nlohmann@@@detail@json_abi_v3_11_2@nlohmann@@QEBAAEBV?$basic_string@DU?$char_traits@D@std@@V?$allocator@D@2@@std@@XZ 000000018000a740 f i main.obj
 0001:00009950       ??1?$basic_ifstream@DU?$char_traits@D@std@@@std@@UEAA@XZ 000000018000a950 f i main.obj
 0001:000099b0       ??0?$json_ref@V?$basic_json@Vmap@std@@Vvector@2@V?$basic_string@DU?$char_traits@D@std@@V?$allocator@D@2@@2@_N_J_KNVallocator@2@Uadl_serializer@json_abi_v3_11_2@nlohmann@@V?$vector@EV?$allocator@E@std@@@2@@json_abi_v3_11_2@nlohmann@@@detail@json_abi_v3_11_2@nlohmann@@QEAA@V?$initializer_list@V?$json_ref@V?$basic_json@Vmap@std@@Vvector@2@V?$basic_string@DU?$char_traits@D@std@@V?$allocator@D@2@@2@_N_J_KNVallocator@2@Uadl_serializer@json_abi_v3_11_2@nlohmann@@V?$vector@EV?$allocator@E@std@@@2@@json_abi_v3_11_2@nlohmann@@@detail@json_abi_v3_11_2@nlohmann@@@std@@@Z 000000018000a9b0 f i main.obj
 0001:000099e0       ?close@?$basic_ofstream@DU?$char_traits@D@std@@@std@@QEAAXXZ 000000018000a9e0 f i main.obj
 0001:00009a20       ??0?$basic_ofstream@DU?$char_traits@D@std@@@std@@QEAA@AEBV?$basic_string@DU?$char_traits@D@std@@V?$allocator@D@2@@1@HH@Z 000000018000aa20 f i main.obj
 0001:00009b50       ??4?$atomic@_N@std@@QEAA_N_N@Z 000000018000ab50 f i main.obj
 0001:00009b60       ??A?$basic_json@Vmap@std@@Vvector@2@V?$basic_string@DU?$char_traits@D@std@@V?$allocator@D@2@@2@_N_J_KNVallocator@2@Uadl_serializer@json_abi_v3_11_2@nlohmann@@V?$vector@EV?$allocator@E@std@@@2@@json_abi_v3_11_2@nlohmann@@QEAAAEAV012@V?$basic_string@DU?$char_traits@D@std@@V?$allocator@D@2@@std@@@Z 000000018000ab60 f i main.obj
 0001:00009cc0       ?dump@?$basic_json@Vmap@std@@Vvector@2@V?$basic_string@DU?$char_traits@D@std@@V?$allocator@D@2@@2@_N_J_KNVallocator@2@Uadl_serializer@json_abi_v3_11_2@nlohmann@@V?$vector@EV?$allocator@E@std@@@2@@json_abi_v3_11_2@nlohmann@@QEBA?AV?$basic_string@DU?$char_traits@D@std@@V?$allocator@D@2@@std@@HD_NW4error_handler_t@detail@23@@Z 000000018000acc0 f i main.obj
 0001:00009fd0       ??0?$basic_json@Vmap@std@@Vvector@2@V?$basic_string@DU?$char_traits@D@std@@V?$allocator@D@2@@2@_N_J_KNVallocator@2@Uadl_serializer@json_abi_v3_11_2@nlohmann@@V?$vector@EV?$allocator@E@std@@@2@@json_abi_v3_11_2@nlohmann@@QEAA@V?$initializer_list@V?$json_ref@V?$basic_json@Vmap@std@@Vvector@2@V?$basic_string@DU?$char_traits@D@std@@V?$allocator@D@2@@2@_N_J_KNVallocator@2@Uadl_serializer@json_abi_v3_11_2@nlohmann@@V?$vector@EV?$allocator@E@std@@@2@@json_abi_v3_11_2@nlohmann@@@detail@json_abi_v3_11_2@nlohmann@@@std@@_NW4value_t@detail@12@@Z 000000018000afd0 f i main.obj
 0001:0000a1c0       ??_E?$basic_ifstream@DU?$char_traits@D@std@@@std@@UEAAPEAXI@Z 000000018000b1c0 f i * CIL library *:* CIL module *
 0001:0000a1c0       ??_G?$basic_ifstream@DU?$char_traits@D@std@@@std@@UEAAPEAXI@Z 000000018000b1c0 f i main.obj
 0001:0000a260       ??1?$parser@V?$basic_json@Vmap@std@@Vvector@2@V?$basic_string@DU?$char_traits@D@std@@V?$allocator@D@2@@2@_N_J_KNVallocator@2@Uadl_serializer@json_abi_v3_11_2@nlohmann@@V?$vector@EV?$allocator@E@std@@@2@@json_abi_v3_11_2@nlohmann@@Vinput_stream_adapter@detail@23@@detail@json_abi_v3_11_2@nlohmann@@QEAA@XZ 000000018000b260 f i main.obj
 0001:0000a2a0       ??1?$lexer@V?$basic_json@Vmap@std@@Vvector@2@V?$basic_string@DU?$char_traits@D@std@@V?$allocator@D@2@@2@_N_J_KNVallocator@2@Uadl_serializer@json_abi_v3_11_2@nlohmann@@V?$vector@EV?$allocator@E@std@@@2@@json_abi_v3_11_2@nlohmann@@Vinput_stream_adapter@detail@23@@detail@json_abi_v3_11_2@nlohmann@@QEAA@XZ 000000018000b2a0 f i main.obj
 0001:0000a370       ??1?$output_adapter@DV?$basic_string@DU?$char_traits@D@std@@V?$allocator@D@2@@std@@@detail@json_abi_v3_11_2@nlohmann@@QEAA@XZ 000000018000b370 f i main.obj
 0001:0000a370       ??1?$shared_ptr@U?$Sink@Ulog_sink@logger@big@@@internal@g3@@@std@@QEAA@XZ 000000018000b370 f i main.obj
 0001:0000a370       ??1?$shared_ptr@U?$output_adapter_protocol@D@detail@json_abi_v3_11_2@nlohmann@@@std@@QEAA@XZ 000000018000b370 f i main.obj
 0001:0000a370       ??1?$shared_ptr@USinkWrapper@internal@g3@@@std@@QEAA@XZ 000000018000b370 f i main.obj
 0001:0000a370       ??1?$shared_ptr@U_Dir_enum_impl@filesystem@std@@@std@@QEAA@XZ 000000018000b370 f i main.obj
 0001:0000a3c0       ??1?$serializer@V?$basic_json@Vmap@std@@Vvector@2@V?$basic_string@DU?$char_traits@D@std@@V?$allocator@D@2@@2@_N_J_KNVallocator@2@Uadl_serializer@json_abi_v3_11_2@nlohmann@@V?$vector@EV?$allocator@E@std@@@2@@json_abi_v3_11_2@nlohmann@@@detail@json_abi_v3_11_2@nlohmann@@QEAA@XZ 000000018000b3c0 f i main.obj
 0001:0000a470       ?dump@?$serializer@V?$basic_json@Vmap@std@@Vvector@2@V?$basic_string@DU?$char_traits@D@std@@V?$allocator@D@2@@2@_N_J_KNVallocator@2@Uadl_serializer@json_abi_v3_11_2@nlohmann@@V?$vector@EV?$allocator@E@std@@@2@@json_abi_v3_11_2@nlohmann@@@detail@json_abi_v3_11_2@nlohmann@@QEAAXAEBV?$basic_json@Vmap@std@@Vvector@2@V?$basic_string@DU?$char_traits@D@std@@V?$allocator@D@2@@2@_N_J_KNVallocator@2@Uadl_serializer@json_abi_v3_11_2@nlohmann@@V?$vector@EV?$allocator@E@std@@@2@@34@_N1II@Z 000000018000b470 f i main.obj
 0001:0000ae80       ?parse@?$parser@V?$basic_json@Vmap@std@@Vvector@2@V?$basic_string@DU?$char_traits@D@std@@V?$allocator@D@2@@2@_N_J_KNVallocator@2@Uadl_serializer@json_abi_v3_11_2@nlohmann@@V?$vector@EV?$allocator@E@std@@@2@@json_abi_v3_11_2@nlohmann@@Vinput_stream_adapter@detail@23@@detail@json_abi_v3_11_2@nlohmann@@QEAAX_NAEAV?$basic_json@Vmap@std@@Vvector@2@V?$basic_string@DU?$char_traits@D@std@@V?$allocator@D@2@@2@_N_J_KNVallocator@2@Uadl_serializer@json_abi_v3_11_2@nlohmann@@V?$vector@EV?$allocator@E@std@@@2@@34@@Z 000000018000be80 f i main.obj
 0001:0000b0b0       ??R?$default_delete@Vhooking@big@@@std@@QEBAXPEAVhooking@big@@@Z 000000018000c0b0 f i main.obj
 0001:0000b170       ?is_open@?$basic_filebuf@DU?$char_traits@D@std@@@std@@QEBA_NXZ 000000018000c170 f i main.obj
 0001:0000b180       ??8?$basic_json@Vmap@std@@Vvector@2@V?$basic_string@DU?$char_traits@D@std@@V?$allocator@D@2@@2@_N_J_KNVallocator@2@Uadl_serializer@json_abi_v3_11_2@nlohmann@@V?$vector@EV?$allocator@E@std@@@2@@json_abi_v3_11_2@nlohmann@@QEBA_NAEBV012@@Z 000000018000c180 f i main.obj
 0001:0000b5f0       ?write_characters@?$output_string_adapter@DV?$basic_string@DU?$char_traits@D@std@@V?$allocator@D@2@@std@@@detail@json_abi_v3_11_2@nlohmann@@UEAAXPEBD_K@Z 000000018000c5f0 f i main.obj
 0001:0000b600       ?write_character@?$output_string_adapter@DV?$basic_string@DU?$char_traits@D@std@@V?$allocator@D@2@@std@@@detail@json_abi_v3_11_2@nlohmann@@UEAAXD@Z 000000018000c600 f i main.obj
 0001:0000b650       ?dump_escaped@?$serializer@V?$basic_json@Vmap@std@@Vvector@2@V?$basic_string@DU?$char_traits@D@std@@V?$allocator@D@2@@2@_N_J_KNVallocator@2@Uadl_serializer@json_abi_v3_11_2@nlohmann@@V?$vector@EV?$allocator@E@std@@@2@@json_abi_v3_11_2@nlohmann@@@detail@json_abi_v3_11_2@nlohmann@@AEAAXAEBV?$basic_string@DU?$char_traits@D@std@@V?$allocator@D@2@@std@@_N@Z 000000018000c650 f i main.obj
 0001:0000ba50       ?exception_message@?$parser@V?$basic_json@Vmap@std@@Vvector@2@V?$basic_string@DU?$char_traits@D@std@@V?$allocator@D@2@@2@_N_J_KNVallocator@2@Uadl_serializer@json_abi_v3_11_2@nlohmann@@V?$vector@EV?$allocator@E@std@@@2@@json_abi_v3_11_2@nlohmann@@Vinput_stream_adapter@detail@23@@detail@json_abi_v3_11_2@nlohmann@@AEAA?AV?$basic_string@DU?$char_traits@D@std@@V?$allocator@D@2@@std@@W4token_type@?$lexer_base@V?$basic_json@Vmap@std@@Vvector@2@V?$basic_string@DU?$char_traits@D@std@@V?$allocator@D@2@@2@_N_J_KNVallocator@2@Uadl_serializer@json_abi_v3_11_2@nlohmann@@V?$vector@EV?$allocator@E@std@@@2@@json_abi_v3_11_2@nlohmann@@@234@AEBV56@@Z 000000018000ca50 f i main.obj
 0001:0000bf90       ?get_token_string@?$lexer@V?$basic_json@Vmap@std@@Vvector@2@V?$basic_string@DU?$char_traits@D@std@@V?$allocator@D@2@@2@_N_J_KNVallocator@2@Uadl_serializer@json_abi_v3_11_2@nlohmann@@V?$vector@EV?$allocator@E@std@@@2@@json_abi_v3_11_2@nlohmann@@Vinput_stream_adapter@detail@23@@detail@json_abi_v3_11_2@nlohmann@@QEBA?AV?$basic_string@DU?$char_traits@D@std@@V?$allocator@D@2@@std@@XZ 000000018000cf90 f i main.obj
 0001:0000c0b0       ?hex_bytes@?$serializer@V?$basic_json@Vmap@std@@Vvector@2@V?$basic_string@DU?$char_traits@D@std@@V?$allocator@D@2@@2@_N_J_KNVallocator@2@Uadl_serializer@json_abi_v3_11_2@nlohmann@@V?$vector@EV?$allocator@E@std@@@2@@json_abi_v3_11_2@nlohmann@@@detail@json_abi_v3_11_2@nlohmann@@CA?AV?$basic_string@DU?$char_traits@D@std@@V?$allocator@D@2@@std@@E@Z 000000018000d0b0 f i main.obj
 0001:0000c120       ?scan@?$lexer@V?$basic_json@Vmap@std@@Vvector@2@V?$basic_string@DU?$char_traits@D@std@@V?$allocator@D@2@@2@_N_J_KNVallocator@2@Uadl_serializer@json_abi_v3_11_2@nlohmann@@V?$vector@EV?$allocator@E@std@@@2@@json_abi_v3_11_2@nlohmann@@Vinput_stream_adapter@detail@23@@detail@json_abi_v3_11_2@nlohmann@@QEAA?AW4token_type@?$lexer_base@V?$basic_json@Vmap@std@@Vvector@2@V?$basic_string@DU?$char_traits@D@std@@V?$allocator@D@2@@2@_N_J_KNVallocator@2@Uadl_serializer@json_abi_v3_11_2@nlohmann@@V?$vector@EV?$allocator@E@std@@@2@@json_abi_v3_11_2@nlohmann@@@234@XZ 000000018000d120 f i main.obj
 0001:0000c500       ?back@?$basic_string@DU?$char_traits@D@std@@V?$allocator@D@2@@std@@QEBAAEBDXZ 000000018000d500 f i main.obj
 0001:0000c520       ?scan_number@?$lexer@V?$basic_json@Vmap@std@@Vvector@2@V?$basic_string@DU?$char_traits@D@std@@V?$allocator@D@2@@2@_N_J_KNVallocator@2@Uadl_serializer@json_abi_v3_11_2@nlohmann@@V?$vector@EV?$allocator@E@std@@@2@@json_abi_v3_11_2@nlohmann@@Vinput_stream_adapter@detail@23@@detail@json_abi_v3_11_2@nlohmann@@AEAA?AW4token_type@?$lexer_base@V?$basic_json@Vmap@std@@Vvector@2@V?$basic_string@DU?$char_traits@D@std@@V?$allocator@D@2@@2@_N_J_KNVallocator@2@Uadl_serializer@json_abi_v3_11_2@nlohmann@@V?$vector@EV?$allocator@E@std@@@2@@json_abi_v3_11_2@nlohmann@@@234@XZ 000000018000d520 f i main.obj
 0001:0000cd80       ?scan_string@?$lexer@V?$basic_json@Vmap@std@@Vvector@2@V?$basic_string@DU?$char_traits@D@std@@V?$allocator@D@2@@2@_N_J_KNVallocator@2@Uadl_serializer@json_abi_v3_11_2@nlohmann@@V?$vector@EV?$allocator@E@std@@@2@@json_abi_v3_11_2@nlohmann@@Vinput_stream_adapter@detail@23@@detail@json_abi_v3_11_2@nlohmann@@AEAA?AW4token_type@?$lexer_base@V?$basic_json@Vmap@std@@Vvector@2@V?$basic_string@DU?$char_traits@D@std@@V?$allocator@D@2@@2@_N_J_KNVallocator@2@Uadl_serializer@json_abi_v3_11_2@nlohmann@@V?$vector@EV?$allocator@E@std@@@2@@json_abi_v3_11_2@nlohmann@@@234@XZ 000000018000dd80 f i main.obj
 0001:0000d790       ?get@?$lexer@V?$basic_json@Vmap@std@@Vvector@2@V?$basic_string@DU?$char_traits@D@std@@V?$allocator@D@2@@2@_N_J_KNVallocator@2@Uadl_serializer@json_abi_v3_11_2@nlohmann@@V?$vector@EV?$allocator@E@std@@@2@@json_abi_v3_11_2@nlohmann@@Vinput_stream_adapter@detail@23@@detail@json_abi_v3_11_2@nlohmann@@AEAAHXZ 000000018000e790 f i main.obj
 0001:0000d830       ?next_byte_in_range@?$lexer@V?$basic_json@Vmap@std@@Vvector@2@V?$basic_string@DU?$char_traits@D@std@@V?$allocator@D@2@@2@_N_J_KNVallocator@2@Uadl_serializer@json_abi_v3_11_2@nlohmann@@V?$vector@EV?$allocator@E@std@@@2@@json_abi_v3_11_2@nlohmann@@Vinput_stream_adapter@detail@23@@detail@json_abi_v3_11_2@nlohmann@@AEAA_NV?$initializer_list@H@std@@@Z 000000018000e830 f i main.obj
 0001:0000d930       ?get_codepoint@?$lexer@V?$basic_json@Vmap@std@@Vvector@2@V?$basic_string@DU?$char_traits@D@std@@V?$allocator@D@2@@2@_N_J_KNVallocator@2@Uadl_serializer@json_abi_v3_11_2@nlohmann@@V?$vector@EV?$allocator@E@std@@@2@@json_abi_v3_11_2@nlohmann@@Vinput_stream_adapter@detail@23@@detail@json_abi_v3_11_2@nlohmann@@AEAAHXZ 000000018000e930 f i main.obj
 0001:0000d9f0       ??$?A$$CBD@?$basic_json@Vmap@std@@Vvector@2@V?$basic_string@DU?$char_traits@D@std@@V?$allocator@D@2@@2@_N_J_KNVallocator@2@Uadl_serializer@json_abi_v3_11_2@nlohmann@@V?$vector@EV?$allocator@E@std@@@2@@json_abi_v3_11_2@nlohmann@@QEBAAEBV012@PEBD@Z 000000018000e9f0 f i main.obj
 0001:0000dbb0       ??$?B_N$0A@@?$basic_json@Vmap@std@@Vvector@2@V?$basic_string@DU?$char_traits@D@std@@V?$allocator@D@2@@2@_N_J_KNVallocator@2@Uadl_serializer@json_abi_v3_11_2@nlohmann@@V?$vector@EV?$allocator@E@std@@@2@@json_abi_v3_11_2@nlohmann@@QEBA_NXZ 000000018000ebb0 f i main.obj
 0001:0000dc30       ??$?0AEAY0BA@$$CBD$0A@@?$json_ref@V?$basic_json@Vmap@std@@Vvector@2@V?$basic_string@DU?$char_traits@D@std@@V?$allocator@D@2@@2@_N_J_KNVallocator@2@Uadl_serializer@json_abi_v3_11_2@nlohmann@@V?$vector@EV?$allocator@E@std@@@2@@json_abi_v3_11_2@nlohmann@@@detail@json_abi_v3_11_2@nlohmann@@QEAA@AEAY0BA@$$CBD@Z 000000018000ec30 f i main.obj
 0001:0000dc30       ??$?0AEAY0BB@$$CBD$0A@@?$json_ref@V?$basic_json@Vmap@std@@Vvector@2@V?$basic_string@DU?$char_traits@D@std@@V?$allocator@D@2@@2@_N_J_KNVallocator@2@Uadl_serializer@json_abi_v3_11_2@nlohmann@@V?$vector@EV?$allocator@E@std@@@2@@json_abi_v3_11_2@nlohmann@@@detail@json_abi_v3_11_2@nlohmann@@QEAA@AEAY0BB@$$CBD@Z 000000018000ec30 f i main.obj
 0001:0000dc30       ??$?0AEAY0BE@$$CBD$0A@@?$json_ref@V?$basic_json@Vmap@std@@Vvector@2@V?$basic_string@DU?$char_traits@D@std@@V?$allocator@D@2@@2@_N_J_KNVallocator@2@Uadl_serializer@json_abi_v3_11_2@nlohmann@@V?$vector@EV?$allocator@E@std@@@2@@json_abi_v3_11_2@nlohmann@@@detail@json_abi_v3_11_2@nlohmann@@QEAA@AEAY0BE@$$CBD@Z 000000018000ec30 f i main.obj
 0001:0000dc30       ??$?0AEAY0BG@$$CBD$0A@@?$json_ref@V?$basic_json@Vmap@std@@Vvector@2@V?$basic_string@DU?$char_traits@D@std@@V?$allocator@D@2@@2@_N_J_KNVallocator@2@Uadl_serializer@json_abi_v3_11_2@nlohmann@@V?$vector@EV?$allocator@E@std@@@2@@json_abi_v3_11_2@nlohmann@@@detail@json_abi_v3_11_2@nlohmann@@QEAA@AEAY0BG@$$CBD@Z 000000018000ec30 f i main.obj
 0001:0000dce0       ??$?0AEA_N$0A@@?$json_ref@V?$basic_json@Vmap@std@@Vvector@2@V?$basic_string@DU?$char_traits@D@std@@V?$allocator@D@2@@2@_N_J_KNVallocator@2@Uadl_serializer@json_abi_v3_11_2@nlohmann@@V?$vector@EV?$allocator@E@std@@@2@@json_abi_v3_11_2@nlohmann@@@detail@json_abi_v3_11_2@nlohmann@@QEAA@AEA_N@Z 000000018000ece0 f i main.obj
 0001:0000dd40       ??$?0AEAY0BC@$$CBD$0A@@?$json_ref@V?$basic_json@Vmap@std@@Vvector@2@V?$basic_string@DU?$char_traits@D@std@@V?$allocator@D@2@@2@_N_J_KNVallocator@2@Uadl_serializer@json_abi_v3_11_2@nlohmann@@V?$vector@EV?$allocator@E@std@@@2@@json_abi_v3_11_2@nlohmann@@@detail@json_abi_v3_11_2@nlohmann@@QEAA@AEAY0BC@$$CBD@Z 000000018000ed40 f i main.obj
 0001:0000dde0       ??$sleep_for@_JU?$ratio@$00$00@std@@@this_thread@std@@YAXAEBV?$duration@_JU?$ratio@$00$00@std@@@chrono@1@@Z 000000018000ede0 f i main.obj
 0001:0000de80       ??$make_unique@Vlogger@big@@$$V$0A@@std@@YA?AV?$unique_ptr@Vlogger@big@@U?$default_delete@Vlogger@big@@@std@@@0@XZ 000000018000ee80 f i main.obj
 0001:0000dec0       ??$make_unique@Vsettings@big@@$$V$0A@@std@@YA?AV?$unique_ptr@Vsettings@big@@U?$default_delete@Vsettings@big@@@std@@@0@XZ 000000018000eec0 f i main.obj
 0001:0000df40       ??$make_unique@Vpointers@big@@$$V$0A@@std@@YA?AV?$unique_ptr@Vpointers@big@@U?$default_delete@Vpointers@big@@@std@@@0@XZ 000000018000ef40 f i main.obj
 0001:0000df80       ??$make_unique@Vrenderer@big@@$$V$0A@@std@@YA?AV?$unique_ptr@Vrenderer@big@@U?$default_delete@Vrenderer@big@@@std@@@0@XZ 000000018000ef80 f i main.obj
 0001:0000dfc0       ??$make_unique@Vfiber_pool@big@@H$0A@@std@@YA?AV?$unique_ptr@Vfiber_pool@big@@U?$default_delete@Vfiber_pool@big@@@std@@@0@$$QEAH@Z 000000018000efc0 f i main.obj
 0001:0000e0b0       ??$make_unique@Vhooking@big@@$$V$0A@@std@@YA?AV?$unique_ptr@Vhooking@big@@U?$default_delete@Vhooking@big@@@std@@@0@XZ 000000018000f0b0 f i main.obj
 0001:0000e240       ??$make_unique@Vthread_pool@big@@$$V$0A@@std@@YA?AV?$unique_ptr@Vthread_pool@big@@U?$default_delete@Vthread_pool@big@@@std@@@0@XZ 000000018000f240 f i main.obj
 0001:0000e280       ??$sleep_for@_JU?$ratio@$00$0DOI@@std@@@this_thread@std@@YAXAEBV?$duration@_JU?$ratio@$00$0DOI@@std@@@chrono@1@@Z 000000018000f280 f i main.obj
 0001:0000e320       ??$parser@Vinput_stream_adapter@detail@json_abi_v3_11_2@nlohmann@@@?$basic_json@Vmap@std@@Vvector@2@V?$basic_string@DU?$char_traits@D@std@@V?$allocator@D@2@@2@_N_J_KNVallocator@2@Uadl_serializer@json_abi_v3_11_2@nlohmann@@V?$vector@EV?$allocator@E@std@@@2@@json_abi_v3_11_2@nlohmann@@CA?AV?$parser@V?$basic_json@Vmap@std@@Vvector@2@V?$basic_string@DU?$char_traits@D@std@@V?$allocator@D@2@@2@_N_J_KNVallocator@2@Uadl_serializer@json_abi_v3_11_2@nlohmann@@V?$vector@EV?$allocator@E@std@@@2@@json_abi_v3_11_2@nlohmann@@Vinput_stream_adapter@detail@23@@detail@12@Vinput_stream_adapter@412@V?$function@$$A6A_NHW4parse_event_t@detail@json_abi_v3_11_2@nlohmann@@AEAV?$basic_json@Vmap@std@@Vvector@2@V?$basic_string@DU?$char_traits@D@std@@V?$allocator@D@2@@2@_N_J_KNVallocator@2@Uadl_serializer@json_abi_v3_11_2@nlohmann@@V?$vector@EV?$allocator@E@std@@@2@@34@@Z@std@@_N2@Z 000000018000f320 f i main.obj
 0001:0000e4f0       ??$concat@V?$basic_string@DU?$char_traits@D@std@@V?$allocator@D@2@@std@@AEAY0DD@$$CBDPEBD@detail@json_abi_v3_11_2@nlohmann@@YA?AV?$basic_string@DU?$char_traits@D@std@@V?$allocator@D@2@@std@@AEAY0DD@$$CBD$$QEAPEBD@Z 000000018000f4f0 f i main.obj
 0001:0000e5b0       ??$create@$$T$0A@@type_error@detail@json_abi_v3_11_2@nlohmann@@SA?AV0123@HAEBV?$basic_string@DU?$char_traits@D@std@@V?$allocator@D@2@@std@@$$T@Z 000000018000f5b0 f i main.obj
 0001:0000e5b0       ??$create@PEAV?$basic_json@Vmap@std@@Vvector@2@V?$basic_string@DU?$char_traits@D@std@@V?$allocator@D@2@@2@_N_J_KNVallocator@2@Uadl_serializer@json_abi_v3_11_2@nlohmann@@V?$vector@EV?$allocator@E@std@@@2@@json_abi_v3_11_2@nlohmann@@$0A@@type_error@detail@json_abi_v3_11_2@nlohmann@@SA?AV0123@HAEBV?$basic_string@DU?$char_traits@D@std@@V?$allocator@D@2@@std@@PEAV?$basic_json@Vmap@std@@Vvector@2@V?$basic_string@DU?$char_traits@D@std@@V?$allocator@D@2@@2@_N_J_KNVallocator@2@Uadl_serializer@json_abi_v3_11_2@nlohmann@@V?$vector@EV?$allocator@E@std@@@2@@23@@Z 000000018000f5b0 f i main.obj
 0001:0000e5b0       ??$create@PEBV?$basic_json@Vmap@std@@Vvector@2@V?$basic_string@DU?$char_traits@D@std@@V?$allocator@D@2@@2@_N_J_KNVallocator@2@Uadl_serializer@json_abi_v3_11_2@nlohmann@@V?$vector@EV?$allocator@E@std@@@2@@json_abi_v3_11_2@nlohmann@@$0A@@type_error@detail@json_abi_v3_11_2@nlohmann@@SA?AV0123@HAEBV?$basic_string@DU?$char_traits@D@std@@V?$allocator@D@2@@std@@PEBV?$basic_json@Vmap@std@@Vvector@2@V?$basic_string@DU?$char_traits@D@std@@V?$allocator@D@2@@2@_N_J_KNVallocator@2@Uadl_serializer@json_abi_v3_11_2@nlohmann@@V?$vector@EV?$allocator@E@std@@@2@@23@@Z 000000018000f5b0 f i main.obj
 0001:0000e7e0       ??$dump_integer@E$0A@@?$serializer@V?$basic_json@Vmap@std@@Vvector@2@V?$basic_string@DU?$char_traits@D@std@@V?$allocator@D@2@@2@_N_J_KNVallocator@2@Uadl_serializer@json_abi_v3_11_2@nlohmann@@V?$vector@EV?$allocator@E@std@@@2@@json_abi_v3_11_2@nlohmann@@@detail@json_abi_v3_11_2@nlohmann@@AEAAXE@Z 000000018000f7e0 f i main.obj
 0001:0000e910       ??$dump_integer@_K$0A@@?$serializer@V?$basic_json@Vmap@std@@Vvector@2@V?$basic_string@DU?$char_traits@D@std@@V?$allocator@D@2@@2@_N_J_KNVallocator@2@Uadl_serializer@json_abi_v3_11_2@nlohmann@@V?$vector@EV?$allocator@E@std@@@2@@json_abi_v3_11_2@nlohmann@@@detail@json_abi_v3_11_2@nlohmann@@AEAAX_K@Z 000000018000f910 f i main.obj
 0001:0000ea40       ??$dump_integer@_J$0A@@?$serializer@V?$basic_json@Vmap@std@@Vvector@2@V?$basic_string@DU?$char_traits@D@std@@V?$allocator@D@2@@2@_N_J_KNVallocator@2@Uadl_serializer@json_abi_v3_11_2@nlohmann@@V?$vector@EV?$allocator@E@std@@@2@@json_abi_v3_11_2@nlohmann@@@detail@json_abi_v3_11_2@nlohmann@@AEAAX_J@Z 000000018000fa40 f i main.obj
 0001:0000ebf0       ??$sax_parse_internal@V?$json_sax_dom_callback_parser@V?$basic_json@Vmap@std@@Vvector@2@V?$basic_string@DU?$char_traits@D@std@@V?$allocator@D@2@@2@_N_J_KNVallocator@2@Uadl_serializer@json_abi_v3_11_2@nlohmann@@V?$vector@EV?$allocator@E@std@@@2@@json_abi_v3_11_2@nlohmann@@@detail@json_abi_v3_11_2@nlohmann@@@?$parser@V?$basic_json@Vmap@std@@Vvector@2@V?$basic_string@DU?$char_traits@D@std@@V?$allocator@D@2@@2@_N_J_KNVallocator@2@Uadl_serializer@json_abi_v3_11_2@nlohmann@@V?$vector@EV?$allocator@E@std@@@2@@json_abi_v3_11_2@nlohmann@@Vinput_stream_adapter@detail@23@@detail@json_abi_v3_11_2@nlohmann@@AEAA_NPEAV?$json_sax_dom_callback_parser@V?$basic_json@Vmap@std@@Vvector@2@V?$basic_string@DU?$char_traits@D@std@@V?$allocator@D@2@@2@_N_J_KNVallocator@2@Uadl_serializer@json_abi_v3_11_2@nlohmann@@V?$vector@EV?$allocator@E@std@@@2@@json_abi_v3_11_2@nlohmann@@@123@@Z 000000018000fbf0 f i main.obj
 0001:0000fbe0       ??$sax_parse_internal@V?$json_sax_dom_parser@V?$basic_json@Vmap@std@@Vvector@2@V?$basic_string@DU?$char_traits@D@std@@V?$allocator@D@2@@2@_N_J_KNVallocator@2@Uadl_serializer@json_abi_v3_11_2@nlohmann@@V?$vector@EV?$allocator@E@std@@@2@@json_abi_v3_11_2@nlohmann@@@detail@json_abi_v3_11_2@nlohmann@@@?$parser@V?$basic_json@Vmap@std@@Vvector@2@V?$basic_string@DU?$char_traits@D@std@@V?$allocator@D@2@@2@_N_J_KNVallocator@2@Uadl_serializer@json_abi_v3_11_2@nlohmann@@V?$vector@EV?$allocator@E@std@@@2@@json_abi_v3_11_2@nlohmann@@Vinput_stream_adapter@detail@23@@detail@json_abi_v3_11_2@nlohmann@@AEAA_NPEAV?$json_sax_dom_parser@V?$basic_json@Vmap@std@@Vvector@2@V?$basic_string@DU?$char_traits@D@std@@V?$allocator@D@2@@2@_N_J_KNVallocator@2@Uadl_serializer@json_abi_v3_11_2@nlohmann@@V?$vector@EV?$allocator@E@std@@@2@@json_abi_v3_11_2@nlohmann@@@123@@Z 0000000180010be0 f i main.obj
 0001:00010b70       ??$create@PEAV?$basic_json@Vmap@std@@Vvector@2@V?$basic_string@DU?$char_traits@D@std@@V?$allocator@D@2@@2@_N_J_KNVallocator@2@Uadl_serializer@json_abi_v3_11_2@nlohmann@@V?$vector@EV?$allocator@E@std@@@2@@json_abi_v3_11_2@nlohmann@@$0A@@invalid_iterator@detail@json_abi_v3_11_2@nlohmann@@SA?AV0123@HAEBV?$basic_string@DU?$char_traits@D@std@@V?$allocator@D@2@@std@@PEAV?$basic_json@Vmap@std@@Vvector@2@V?$basic_string@DU?$char_traits@D@std@@V?$allocator@D@2@@2@_N_J_KNVallocator@2@Uadl_serializer@json_abi_v3_11_2@nlohmann@@V?$vector@EV?$allocator@E@std@@@2@@23@@Z 0000000180011b70 f i main.obj
 0001:00010b70       ??$create@PEBV?$basic_json@Vmap@std@@Vvector@2@V?$basic_string@DU?$char_traits@D@std@@V?$allocator@D@2@@2@_N_J_KNVallocator@2@Uadl_serializer@json_abi_v3_11_2@nlohmann@@V?$vector@EV?$allocator@E@std@@@2@@json_abi_v3_11_2@nlohmann@@$0A@@invalid_iterator@detail@json_abi_v3_11_2@nlohmann@@SA?AV0123@HAEBV?$basic_string@DU?$char_traits@D@std@@V?$allocator@D@2@@std@@PEBV?$basic_json@Vmap@std@@Vvector@2@V?$basic_string@DU?$char_traits@D@std@@V?$allocator@D@2@@2@_N_J_KNVallocator@2@Uadl_serializer@json_abi_v3_11_2@nlohmann@@V?$vector@EV?$allocator@E@std@@@2@@23@@Z 0000000180011b70 f i main.obj
 0001:00010da0       ??$concat@V?$basic_string@DU?$char_traits@D@std@@V?$allocator@D@2@@std@@AEAY0DE@$$CBDPEBD@detail@json_abi_v3_11_2@nlohmann@@YA?AV?$basic_string@DU?$char_traits@D@std@@V?$allocator@D@2@@std@@AEAY0DE@$$CBD$$QEAPEBD@Z 0000000180011da0 f i main.obj
 0001:00010e60       ??$concat@V?$basic_string@DU?$char_traits@D@std@@V?$allocator@D@2@@std@@AEAY0BN@$$CBDV12@AEAY04$$CBDV12@@detail@json_abi_v3_11_2@nlohmann@@YA?AV?$basic_string@DU?$char_traits@D@std@@V?$allocator@D@2@@std@@AEAY0BN@$$CBD$$QEAV34@AEAY04$$CBD1@Z 0000000180011e60 f i main.obj
 0001:00010f40       ??$concat@V?$basic_string@DU?$char_traits@D@std@@V?$allocator@D@2@@std@@AEAY0CH@$$CBDV12@@detail@json_abi_v3_11_2@nlohmann@@YA?AV?$basic_string@DU?$char_traits@D@std@@V?$allocator@D@2@@std@@AEAY0CH@$$CBD$$QEAV34@@Z 0000000180011f40 f i main.obj
 0001:00010fe0       ?_Delete_this@?$_Ref_count_obj2@U?$Sink@Ulog_sink@logger@big@@@internal@g3@@@std@@EEAAXXZ 0000000180011fe0 f i main.obj
 0001:00010fe0       ?_Delete_this@?$_Ref_count_obj2@U_Dir_enum_impl@filesystem@std@@@std@@EEAAXXZ 0000000180011fe0 f i main.obj
 0001:00010fe0       ?_Delete_this@?$_Ref_count_obj2@V?$output_string_adapter@DV?$basic_string@DU?$char_traits@D@std@@V?$allocator@D@2@@std@@@detail@json_abi_v3_11_2@nlohmann@@@std@@EEAAXXZ 0000000180011fe0 f i main.obj
 0001:00011000       ?_Destroy@?$_Ref_count_obj2@V?$output_string_adapter@DV?$basic_string@DU?$char_traits@D@std@@V?$allocator@D@2@@std@@@detail@json_abi_v3_11_2@nlohmann@@@std@@EEAAXXZ 0000000180012000 f i main.obj
 0001:00011010       ??1?$unique_ptr@V?$vector@V?$basic_json@Vmap@std@@Vvector@2@V?$basic_string@DU?$char_traits@D@std@@V?$allocator@D@2@@2@_N_J_KNVallocator@2@Uadl_serializer@json_abi_v3_11_2@nlohmann@@V?$vector@EV?$allocator@E@std@@@2@@json_abi_v3_11_2@nlohmann@@V?$allocator@V?$basic_json@Vmap@std@@Vvector@2@V?$basic_string@DU?$char_traits@D@std@@V?$allocator@D@2@@2@_N_J_KNVallocator@2@Uadl_serializer@json_abi_v3_11_2@nlohmann@@V?$vector@EV?$allocator@E@std@@@2@@json_abi_v3_11_2@nlohmann@@@std@@@std@@V<lambda_1>@?1???$create@V?$vector@V?$basic_json@Vmap@std@@Vvector@2@V?$basic_string@DU?$char_traits@D@std@@V?$allocator@D@2@@2@_N_J_KNVallocator@2@Uadl_serializer@json_abi_v3_11_2@nlohmann@@V?$vector@EV?$allocator@E@std@@@2@@json_abi_v3_11_2@nlohmann@@V?$allocator@V?$basic_json@Vmap@std@@Vvector@2@V?$basic_string@DU?$char_traits@D@std@@V?$allocator@D@2@@2@_N_J_KNVallocator@2@Uadl_serializer@json_abi_v3_11_2@nlohmann@@V?$vector@EV?$allocator@E@std@@@2@@json_abi_v3_11_2@nlohmann@@@std@@@std@@AEBV12@@?$basic_json@Vmap@std@@Vvector@2@V?$basic_string@DU?$char_traits@D@std@@V?$allocator@D@2@@2@_N_J_KNVallocator@2@Uadl_serializer@json_abi_v3_11_2@nlohmann@@V?$vector@EV?$allocator@E@std@@@2@@json_abi_v3_11_2@nlohmann@@CAPEAV12@AEBV12@@Z@@std@@QEAA@XZ 0000000180012010 f i main.obj
 0001:00011010       ??1?$unique_ptr@V?$vector@V?$basic_json@Vmap@std@@Vvector@2@V?$basic_string@DU?$char_traits@D@std@@V?$allocator@D@2@@2@_N_J_KNVallocator@2@Uadl_serializer@json_abi_v3_11_2@nlohmann@@V?$vector@EV?$allocator@E@std@@@2@@json_abi_v3_11_2@nlohmann@@V?$allocator@V?$basic_json@Vmap@std@@Vvector@2@V?$basic_string@DU?$char_traits@D@std@@V?$allocator@D@2@@2@_N_J_KNVallocator@2@Uadl_serializer@json_abi_v3_11_2@nlohmann@@V?$vector@EV?$allocator@E@std@@@2@@json_abi_v3_11_2@nlohmann@@@std@@@std@@V<lambda_1>@?1???$create@V?$vector@V?$basic_json@Vmap@std@@Vvector@2@V?$basic_string@DU?$char_traits@D@std@@V?$allocator@D@2@@2@_N_J_KNVallocator@2@Uadl_serializer@json_abi_v3_11_2@nlohmann@@V?$vector@EV?$allocator@E@std@@@2@@json_abi_v3_11_2@nlohmann@@V?$allocator@V?$basic_json@Vmap@std@@Vvector@2@V?$basic_string@DU?$char_traits@D@std@@V?$allocator@D@2@@2@_N_J_KNVallocator@2@Uadl_serializer@json_abi_v3_11_2@nlohmann@@V?$vector@EV?$allocator@E@std@@@2@@json_abi_v3_11_2@nlohmann@@@std@@@std@@PEBV?$json_ref@V?$basic_json@Vmap@std@@Vvector@2@V?$basic_string@DU?$char_traits@D@std@@V?$allocator@D@2@@2@_N_J_KNVallocator@2@Uadl_serializer@json_abi_v3_11_2@nlohmann@@V?$vector@EV?$allocator@E@std@@@2@@json_abi_v3_11_2@nlohmann@@@detail@json_abi_v3_11_2@nlohmann@@PEBV3456@@?$basic_json@Vmap@std@@Vvector@2@V?$basic_string@DU?$char_traits@D@std@@V?$allocator@D@2@@2@_N_J_KNVallocator@2@Uadl_serializer@json_abi_v3_11_2@nlohmann@@V?$vector@EV?$allocator@E@std@@@2@@json_abi_v3_11_2@nlohmann@@CAPEAV12@$$QEAPEBV?$json_ref@V?$basic_json@Vmap@std@@Vvector@2@V?$basic_string@DU?$char_traits@D@std@@V?$allocator@D@2@@2@_N_J_KNVallocator@2@Uadl_serializer@json_abi_v3_11_2@nlohmann@@V?$vector@EV?$allocator@E@std@@@2@@json_abi_v3_11_2@nlohmann@@@detail@56@0@Z@@std@@QEAA@XZ 0000000180012010 f i main.obj
 0001:00011030       ??_E?$_Ref_count_obj2@V?$output_string_adapter@DV?$basic_string@DU?$char_traits@D@std@@V?$allocator@D@2@@std@@@detail@json_abi_v3_11_2@nlohmann@@@std@@UEAAPEAXI@Z 0000000180012030 f i * CIL library *:* CIL module *
 0001:00011030       ??_G?$_Ref_count_obj2@V?$output_string_adapter@DV?$basic_string@DU?$char_traits@D@std@@V?$allocator@D@2@@std@@@detail@json_abi_v3_11_2@nlohmann@@@std@@UEAAPEAXI@Z 0000000180012030 f i main.obj
 0001:00011060       ??$sleep_until@Usteady_clock@chrono@std@@V?$duration@_JU?$ratio@$00$0DLJKMKAA@@std@@@23@@this_thread@std@@YAXAEBV?$time_point@Usteady_clock@chrono@std@@V?$duration@_JU?$ratio@$00$0DLJKMKAA@@std@@@23@@chrono@1@@Z 0000000180012060 f i main.obj
 0001:00011190       ??$_Emplace@V?$basic_string@DU?$char_traits@D@std@@V?$allocator@D@2@@std@@$$T@?$_Tree@V?$_Tmap_traits@V?$basic_string@DU?$char_traits@D@std@@V?$allocator@D@2@@std@@V?$basic_json@Vmap@std@@Vvector@2@V?$basic_string@DU?$char_traits@D@std@@V?$allocator@D@2@@2@_N_J_KNVallocator@2@Uadl_serializer@json_abi_v3_11_2@nlohmann@@V?$vector@EV?$allocator@E@std@@@2@@json_abi_v3_11_2@nlohmann@@U?$less@X@2@V?$allocator@U?$pair@$$CBV?$basic_string@DU?$char_traits@D@std@@V?$allocator@D@2@@std@@V?$basic_json@Vmap@std@@Vvector@2@V?$basic_string@DU?$char_traits@D@std@@V?$allocator@D@2@@2@_N_J_KNVallocator@2@Uadl_serializer@json_abi_v3_11_2@nlohmann@@V?$vector@EV?$allocator@E@std@@@2@@json_abi_v3_11_2@nlohmann@@@std@@@2@$0A@@std@@@std@@IEAA?AU?$pair@PEAU?$_Tree_node@U?$pair@$$CBV?$basic_string@DU?$char_traits@D@std@@V?$allocator@D@2@@std@@V?$basic_json@Vmap@std@@Vvector@2@V?$basic_string@DU?$char_traits@D@std@@V?$allocator@D@2@@2@_N_J_KNVallocator@2@Uadl_serializer@json_abi_v3_11_2@nlohmann@@V?$vector@EV?$allocator@E@std@@@2@@json_abi_v3_11_2@nlohmann@@@std@@PEAX@std@@_N@1@$$QEAV?$basic_string@DU?$char_traits@D@std@@V?$allocator@D@2@@1@$$QEA$$T@Z 0000000180012190 f i main.obj
 0001:00011370       ??$_Emplace@V?$basic_string@DU?$char_traits@D@std@@V?$allocator@D@2@@std@@V?$basic_json@Vmap@std@@Vvector@2@V?$basic_string@DU?$char_traits@D@std@@V?$allocator@D@2@@2@_N_J_KNVallocator@2@Uadl_serializer@json_abi_v3_11_2@nlohmann@@V?$vector@EV?$allocator@E@std@@@2@@json_abi_v3_11_2@nlohmann@@@?$_Tree@V?$_Tmap_traits@V?$basic_string@DU?$char_traits@D@std@@V?$allocator@D@2@@std@@V?$basic_json@Vmap@std@@Vvector@2@V?$basic_string@DU?$char_traits@D@std@@V?$allocator@D@2@@2@_N_J_KNVallocator@2@Uadl_serializer@json_abi_v3_11_2@nlohmann@@V?$vector@EV?$allocator@E@std@@@2@@json_abi_v3_11_2@nlohmann@@U?$less@X@2@V?$allocator@U?$pair@$$CBV?$basic_string@DU?$char_traits@D@std@@V?$allocator@D@2@@std@@V?$basic_json@Vmap@std@@Vvector@2@V?$basic_string@DU?$char_traits@D@std@@V?$allocator@D@2@@2@_N_J_KNVallocator@2@Uadl_serializer@json_abi_v3_11_2@nlohmann@@V?$vector@EV?$allocator@E@std@@@2@@json_abi_v3_11_2@nlohmann@@@std@@@2@$0A@@std@@@std@@IEAA?AU?$pair@PEAU?$_Tree_node@U?$pair@$$CBV?$basic_string@DU?$char_traits@D@std@@V?$allocator@D@2@@std@@V?$basic_json@Vmap@std@@Vvector@2@V?$basic_string@DU?$char_traits@D@std@@V?$allocator@D@2@@2@_N_J_KNVallocator@2@Uadl_serializer@json_abi_v3_11_2@nlohmann@@V?$vector@EV?$allocator@E@std@@@2@@json_abi_v3_11_2@nlohmann@@@std@@PEAX@std@@_N@1@$$QEAV?$basic_string@DU?$char_traits@D@std@@V?$allocator@D@2@@1@$$QEAV?$basic_json@Vmap@std@@Vvector@2@V?$basic_string@DU?$char_traits@D@std@@V?$allocator@D@2@@2@_N_J_KNVallocator@2@Uadl_serializer@json_abi_v3_11_2@nlohmann@@V?$vector@EV?$allocator@E@std@@@2@@json_abi_v3_11_2@nlohmann@@@Z 0000000180012370 f i main.obj
 0001:00011560       ??$grisu2@N@dtoa_impl@detail@json_abi_v3_11_2@nlohmann@@YAXPEADAEAH1N@Z 0000000180012560 f i main.obj
 0001:00011700       ??$?0PEBV?$json_ref@V?$basic_json@Vmap@std@@Vvector@2@V?$basic_string@DU?$char_traits@D@std@@V?$allocator@D@2@@2@_N_J_KNVallocator@2@Uadl_serializer@json_abi_v3_11_2@nlohmann@@V?$vector@EV?$allocator@E@std@@@2@@json_abi_v3_11_2@nlohmann@@@detail@json_abi_v3_11_2@nlohmann@@$0A@@?$vector@V?$basic_json@Vmap@std@@Vvector@2@V?$basic_string@DU?$char_traits@D@std@@V?$allocator@D@2@@2@_N_J_KNVallocator@2@Uadl_serializer@json_abi_v3_11_2@nlohmann@@V?$vector@EV?$allocator@E@std@@@2@@json_abi_v3_11_2@nlohmann@@V?$allocator@V?$basic_json@Vmap@std@@Vvector@2@V?$basic_string@DU?$char_traits@D@std@@V?$allocator@D@2@@2@_N_J_KNVallocator@2@Uadl_serializer@json_abi_v3_11_2@nlohmann@@V?$vector@EV?$allocator@E@std@@@2@@json_abi_v3_11_2@nlohmann@@@std@@@std@@QEAA@PEBV?$json_ref@V?$basic_json@Vmap@std@@Vvector@2@V?$basic_string@DU?$char_traits@D@std@@V?$allocator@D@2@@2@_N_J_KNVallocator@2@Uadl_serializer@json_abi_v3_11_2@nlohmann@@V?$vector@EV?$allocator@E@std@@@2@@json_abi_v3_11_2@nlohmann@@@detail@json_abi_v3_11_2@nlohmann@@0AEBV?$allocator@V?$basic_json@Vmap@std@@Vvector@2@V?$basic_string@DU?$char_traits@D@std@@V?$allocator@D@2@@2@_N_J_KNVallocator@2@Uadl_serializer@json_abi_v3_11_2@nlohmann@@V?$vector@EV?$allocator@E@std@@@2@@json_abi_v3_11_2@nlohmann@@@1@@Z 0000000180012700 f i main.obj
 0001:000117d0       ??$concat@V?$basic_string@DU?$char_traits@D@std@@V?$allocator@D@2@@std@@AEAY0BO@$$CBDPEBD@detail@json_abi_v3_11_2@nlohmann@@YA?AV?$basic_string@DU?$char_traits@D@std@@V?$allocator@D@2@@std@@AEAY0BO@$$CBD$$QEAPEBD@Z 00000001800127d0 f i main.obj
 0001:00011890       ??1?$unique_ptr@V?$basic_string@DU?$char_traits@D@std@@V?$allocator@D@2@@std@@V<lambda_1>@?1???$create@V?$basic_string@DU?$char_traits@D@std@@V?$allocator@D@2@@std@@AEAY00$$CBD@?$basic_json@Vmap@std@@Vvector@2@V?$basic_string@DU?$char_traits@D@std@@V?$allocator@D@2@@2@_N_J_KNVallocator@2@Uadl_serializer@json_abi_v3_11_2@nlohmann@@V?$vector@EV?$allocator@E@std@@@2@@json_abi_v3_11_2@nlohmann@@CAPEAV12@AEAY00$$CBD@Z@@std@@QEAA@XZ 0000000180012890 f i main.obj
 0001:00011890       ??1?$unique_ptr@V?$basic_string@DU?$char_traits@D@std@@V?$allocator@D@2@@std@@V<lambda_1>@?1???$create@V?$basic_string@DU?$char_traits@D@std@@V?$allocator@D@2@@std@@AEAY04$$CBD@?$basic_json@Vmap@std@@Vvector@2@V?$basic_string@DU?$char_traits@D@std@@V?$allocator@D@2@@2@_N_J_KNVallocator@2@Uadl_serializer@json_abi_v3_11_2@nlohmann@@V?$vector@EV?$allocator@E@std@@@2@@json_abi_v3_11_2@nlohmann@@CAPEAV12@AEAY04$$CBD@Z@@std@@QEAA@XZ 0000000180012890 f i main.obj
 0001:00011890       ??1?$unique_ptr@V?$basic_string@DU?$char_traits@D@std@@V?$allocator@D@2@@std@@V<lambda_1>@?1???$create@V?$basic_string@DU?$char_traits@D@std@@V?$allocator@D@2@@std@@AEAY0BA@$$CBD@?$basic_json@Vmap@std@@Vvector@2@V?$basic_string@DU?$char_traits@D@std@@V?$allocator@D@2@@2@_N_J_KNVallocator@2@Uadl_serializer@json_abi_v3_11_2@nlohmann@@V?$vector@EV?$allocator@E@std@@@2@@json_abi_v3_11_2@nlohmann@@CAPEAV12@AEAY0BA@$$CBD@Z@@std@@QEAA@XZ 0000000180012890 f i main.obj
 0001:00011890       ??1?$unique_ptr@V?$basic_string@DU?$char_traits@D@std@@V?$allocator@D@2@@std@@V<lambda_1>@?1???$create@V?$basic_string@DU?$char_traits@D@std@@V?$allocator@D@2@@std@@AEAY0BB@$$CBD@?$basic_json@Vmap@std@@Vvector@2@V?$basic_string@DU?$char_traits@D@std@@V?$allocator@D@2@@2@_N_J_KNVallocator@2@Uadl_serializer@json_abi_v3_11_2@nlohmann@@V?$vector@EV?$allocator@E@std@@@2@@json_abi_v3_11_2@nlohmann@@CAPEAV12@AEAY0BB@$$CBD@Z@@std@@QEAA@XZ 0000000180012890 f i main.obj
 0001:00011890       ??1?$unique_ptr@V?$basic_string@DU?$char_traits@D@std@@V?$allocator@D@2@@std@@V<lambda_1>@?1???$create@V?$basic_string@DU?$char_traits@D@std@@V?$allocator@D@2@@std@@AEAY0BC@$$CBD@?$basic_json@Vmap@std@@Vvector@2@V?$basic_string@DU?$char_traits@D@std@@V?$allocator@D@2@@2@_N_J_KNVallocator@2@Uadl_serializer@json_abi_v3_11_2@nlohmann@@V?$vector@EV?$allocator@E@std@@@2@@json_abi_v3_11_2@nlohmann@@CAPEAV12@AEAY0BC@$$CBD@Z@@std@@QEAA@XZ 0000000180012890 f i main.obj
 0001:00011890       ??1?$unique_ptr@V?$basic_string@DU?$char_traits@D@std@@V?$allocator@D@2@@std@@V<lambda_1>@?1???$create@V?$basic_string@DU?$char_traits@D@std@@V?$allocator@D@2@@std@@AEAY0BE@$$CBD@?$basic_json@Vmap@std@@Vvector@2@V?$basic_string@DU?$char_traits@D@std@@V?$allocator@D@2@@2@_N_J_KNVallocator@2@Uadl_serializer@json_abi_v3_11_2@nlohmann@@V?$vector@EV?$allocator@E@std@@@2@@json_abi_v3_11_2@nlohmann@@CAPEAV12@AEAY0BE@$$CBD@Z@@std@@QEAA@XZ 0000000180012890 f i main.obj
 0001:00011890       ??1?$unique_ptr@V?$basic_string@DU?$char_traits@D@std@@V?$allocator@D@2@@std@@V<lambda_1>@?1???$create@V?$basic_string@DU?$char_traits@D@std@@V?$allocator@D@2@@std@@AEAY0BG@$$CBD@?$basic_json@Vmap@std@@Vvector@2@V?$basic_string@DU?$char_traits@D@std@@V?$allocator@D@2@@2@_N_J_KNVallocator@2@Uadl_serializer@json_abi_v3_11_2@nlohmann@@V?$vector@EV?$allocator@E@std@@@2@@json_abi_v3_11_2@nlohmann@@CAPEAV12@AEAY0BG@$$CBD@Z@@std@@QEAA@XZ 0000000180012890 f i main.obj
 0001:00011890       ??1?$unique_ptr@V?$basic_string@DU?$char_traits@D@std@@V?$allocator@D@2@@std@@V<lambda_1>@?1???$create@V?$basic_string@DU?$char_traits@D@std@@V?$allocator@D@2@@std@@AEBV12@@?$basic_json@Vmap@std@@Vvector@2@V?$basic_string@DU?$char_traits@D@std@@V?$allocator@D@2@@2@_N_J_KNVallocator@2@Uadl_serializer@json_abi_v3_11_2@nlohmann@@V?$vector@EV?$allocator@E@std@@@2@@json_abi_v3_11_2@nlohmann@@CAPEAV12@AEBV12@@Z@@std@@QEAA@XZ 0000000180012890 f i main.obj
 0001:000118a4       ??_E?$basic_ifstream@DU?$char_traits@D@std@@@std@@$4PPPPPPPM@A@EAAPEAXI@Z 00000001800128a4 f i main.obj
 0001:000118b0       ??$?0_JU?$ratio@$00$0JIJGIA@@std@@$0A@@?$duration@_JU?$ratio@$00$0DLJKMKAA@@std@@@chrono@std@@QEAA@AEBV?$duration@_JU?$ratio@$00$0JIJGIA@@std@@@12@@Z 00000001800128b0 f i main.obj
 0001:000118b0       ??$duration_cast@V?$duration@_JU?$ratio@$00$0DLJKMKAA@@std@@@chrono@std@@_JU?$ratio@$00$0JIJGIA@@3@$0A@@chrono@std@@YA?AV?$duration@_JU?$ratio@$00$0DLJKMKAA@@std@@@01@AEBV?$duration@_JU?$ratio@$00$0JIJGIA@@std@@@01@@Z 00000001800128b0 f i main.obj
 0001:000118c0       ?grisu2_digit_gen@dtoa_impl@detail@json_abi_v3_11_2@nlohmann@@YAXPEADAEAH1Udiyfp@1234@22@Z 00000001800128c0 f i main.obj
 0001:00011af0       ?grisu2@dtoa_impl@detail@json_abi_v3_11_2@nlohmann@@YAXPEADAEAH1Udiyfp@1234@22@Z 0000000180012af0 f i main.obj
 0001:00011d40       ??$?GUsteady_clock@chrono@std@@V?$duration@_JU?$ratio@$00$0DLJKMKAA@@std@@@12@V312@@chrono@std@@YA?AV?$duration@_JU?$ratio@$00$0DLJKMKAA@@std@@@01@AEBV?$time_point@Usteady_clock@chrono@std@@V?$duration@_JU?$ratio@$00$0DLJKMKAA@@std@@@23@@01@0@Z 0000000180012d40 f i main.obj
 0001:00011d50       ?format_buffer@dtoa_impl@detail@json_abi_v3_11_2@nlohmann@@YAPEADPEADHHHH@Z 0000000180012d50 f i main.obj
 0001:00011f10       ??$_Emplace_reallocate@AEA_K@?$vector@V?$basic_json@Vmap@std@@Vvector@2@V?$basic_string@DU?$char_traits@D@std@@V?$allocator@D@2@@2@_N_J_KNVallocator@2@Uadl_serializer@json_abi_v3_11_2@nlohmann@@V?$vector@EV?$allocator@E@std@@@2@@json_abi_v3_11_2@nlohmann@@V?$allocator@V?$basic_json@Vmap@std@@Vvector@2@V?$basic_string@DU?$char_traits@D@std@@V?$allocator@D@2@@2@_N_J_KNVallocator@2@Uadl_serializer@json_abi_v3_11_2@nlohmann@@V?$vector@EV?$allocator@E@std@@@2@@json_abi_v3_11_2@nlohmann@@@std@@@std@@AEAAPEAV?$basic_json@Vmap@std@@Vvector@2@V?$basic_string@DU?$char_traits@D@std@@V?$allocator@D@2@@2@_N_J_KNVallocator@2@Uadl_serializer@json_abi_v3_11_2@nlohmann@@V?$vector@EV?$allocator@E@std@@@2@@json_abi_v3_11_2@nlohmann@@QEAV234@AEA_K@Z 0000000180012f10 f i main.obj
 0001:00012120       ??$handle_value@AEA_K@?$json_sax_dom_parser@V?$basic_json@Vmap@std@@Vvector@2@V?$basic_string@DU?$char_traits@D@std@@V?$allocator@D@2@@2@_N_J_KNVallocator@2@Uadl_serializer@json_abi_v3_11_2@nlohmann@@V?$vector@EV?$allocator@E@std@@@2@@json_abi_v3_11_2@nlohmann@@@detail@json_abi_v3_11_2@nlohmann@@AEAAPEAV?$basic_json@Vmap@std@@Vvector@2@V?$basic_string@DU?$char_traits@D@std@@V?$allocator@D@2@@2@_N_J_KNVallocator@2@Uadl_serializer@json_abi_v3_11_2@nlohmann@@V?$vector@EV?$allocator@E@std@@@2@@23@AEA_K@Z 0000000180013120 f i main.obj
 0001:00012250       ??$_Emplace_reallocate@AEAV?$basic_string@DU?$char_traits@D@std@@V?$allocator@D@2@@std@@@?$vector@V?$basic_json@Vmap@std@@Vvector@2@V?$basic_string@DU?$char_traits@D@std@@V?$allocator@D@2@@2@_N_J_KNVallocator@2@Uadl_serializer@json_abi_v3_11_2@nlohmann@@V?$vector@EV?$allocator@E@std@@@2@@json_abi_v3_11_2@nlohmann@@V?$allocator@V?$basic_json@Vmap@std@@Vvector@2@V?$basic_string@DU?$char_traits@D@std@@V?$allocator@D@2@@2@_N_J_KNVallocator@2@Uadl_serializer@json_abi_v3_11_2@nlohmann@@V?$vector@EV?$allocator@E@std@@@2@@json_abi_v3_11_2@nlohmann@@@std@@@std@@AEAAPEAV?$basic_json@Vmap@std@@Vvector@2@V?$basic_string@DU?$char_traits@D@std@@V?$allocator@D@2@@2@_N_J_KNVallocator@2@Uadl_serializer@json_abi_v3_11_2@nlohmann@@V?$vector@EV?$allocator@E@std@@@2@@json_abi_v3_11_2@nlohmann@@QEAV234@AEAV?$basic_string@DU?$char_traits@D@std@@V?$allocator@D@2@@1@@Z 0000000180013250 f i main.obj
 0001:00012470       ??$_Emplace_reallocate@AEA_J@?$vector@V?$basic_json@Vmap@std@@Vvector@2@V?$basic_string@DU?$char_traits@D@std@@V?$allocator@D@2@@2@_N_J_KNVallocator@2@Uadl_serializer@json_abi_v3_11_2@nlohmann@@V?$vector@EV?$allocator@E@std@@@2@@json_abi_v3_11_2@nlohmann@@V?$allocator@V?$basic_json@Vmap@std@@Vvector@2@V?$basic_string@DU?$char_traits@D@std@@V?$allocator@D@2@@2@_N_J_KNVallocator@2@Uadl_serializer@json_abi_v3_11_2@nlohmann@@V?$vector@EV?$allocator@E@std@@@2@@json_abi_v3_11_2@nlohmann@@@std@@@std@@AEAAPEAV?$basic_json@Vmap@std@@Vvector@2@V?$basic_string@DU?$char_traits@D@std@@V?$allocator@D@2@@2@_N_J_KNVallocator@2@Uadl_serializer@json_abi_v3_11_2@nlohmann@@V?$vector@EV?$allocator@E@std@@@2@@json_abi_v3_11_2@nlohmann@@QEAV234@AEA_J@Z 0000000180013470 f i main.obj
 0001:00012680       ??$handle_value@AEA_J@?$json_sax_dom_parser@V?$basic_json@Vmap@std@@Vvector@2@V?$basic_string@DU?$char_traits@D@std@@V?$allocator@D@2@@2@_N_J_KNVallocator@2@Uadl_serializer@json_abi_v3_11_2@nlohmann@@V?$vector@EV?$allocator@E@std@@@2@@json_abi_v3_11_2@nlohmann@@@detail@json_abi_v3_11_2@nlohmann@@AEAAPEAV?$basic_json@Vmap@std@@Vvector@2@V?$basic_string@DU?$char_traits@D@std@@V?$allocator@D@2@@2@_N_J_KNVallocator@2@Uadl_serializer@json_abi_v3_11_2@nlohmann@@V?$vector@EV?$allocator@E@std@@@2@@23@AEA_J@Z 0000000180013680 f i main.obj
 0001:000127b0       ??$_Emplace_reallocate@$$T@?$vector@V?$basic_json@Vmap@std@@Vvector@2@V?$basic_string@DU?$char_traits@D@std@@V?$allocator@D@2@@2@_N_J_KNVallocator@2@Uadl_serializer@json_abi_v3_11_2@nlohmann@@V?$vector@EV?$allocator@E@std@@@2@@json_abi_v3_11_2@nlohmann@@V?$allocator@V?$basic_json@Vmap@std@@Vvector@2@V?$basic_string@DU?$char_traits@D@std@@V?$allocator@D@2@@2@_N_J_KNVallocator@2@Uadl_serializer@json_abi_v3_11_2@nlohmann@@V?$vector@EV?$allocator@E@std@@@2@@json_abi_v3_11_2@nlohmann@@@std@@@std@@AEAAPEAV?$basic_json@Vmap@std@@Vvector@2@V?$basic_string@DU?$char_traits@D@std@@V?$allocator@D@2@@2@_N_J_KNVallocator@2@Uadl_serializer@json_abi_v3_11_2@nlohmann@@V?$vector@EV?$allocator@E@std@@@2@@json_abi_v3_11_2@nlohmann@@QEAV234@$$QEA$$T@Z 00000001800137b0 f i main.obj
 0001:000129a0       ??$_Emplace_reallocate@AEA_N@?$vector@V?$basic_json@Vmap@std@@Vvector@2@V?$basic_string@DU?$char_traits@D@std@@V?$allocator@D@2@@2@_N_J_KNVallocator@2@Uadl_serializer@json_abi_v3_11_2@nlohmann@@V?$vector@EV?$allocator@E@std@@@2@@json_abi_v3_11_2@nlohmann@@V?$allocator@V?$basic_json@Vmap@std@@Vvector@2@V?$basic_string@DU?$char_traits@D@std@@V?$allocator@D@2@@2@_N_J_KNVallocator@2@Uadl_serializer@json_abi_v3_11_2@nlohmann@@V?$vector@EV?$allocator@E@std@@@2@@json_abi_v3_11_2@nlohmann@@@std@@@std@@AEAAPEAV?$basic_json@Vmap@std@@Vvector@2@V?$basic_string@DU?$char_traits@D@std@@V?$allocator@D@2@@2@_N_J_KNVallocator@2@Uadl_serializer@json_abi_v3_11_2@nlohmann@@V?$vector@EV?$allocator@E@std@@@2@@json_abi_v3_11_2@nlohmann@@QEAV234@AEA_N@Z 00000001800139a0 f i main.obj
 0001:00012ba0       ??$handle_value@AEA_N@?$json_sax_dom_parser@V?$basic_json@Vmap@std@@Vvector@2@V?$basic_string@DU?$char_traits@D@std@@V?$allocator@D@2@@2@_N_J_KNVallocator@2@Uadl_serializer@json_abi_v3_11_2@nlohmann@@V?$vector@EV?$allocator@E@std@@@2@@json_abi_v3_11_2@nlohmann@@@detail@json_abi_v3_11_2@nlohmann@@AEAAPEAV?$basic_json@Vmap@std@@Vvector@2@V?$basic_string@DU?$char_traits@D@std@@V?$allocator@D@2@@2@_N_J_KNVallocator@2@Uadl_serializer@json_abi_v3_11_2@nlohmann@@V?$vector@EV?$allocator@E@std@@@2@@23@AEA_N@Z 0000000180013ba0 f i main.obj
 0001:00012cf0       ??$_Emplace_reallocate@AEAN@?$vector@V?$basic_json@Vmap@std@@Vvector@2@V?$basic_string@DU?$char_traits@D@std@@V?$allocator@D@2@@2@_N_J_KNVallocator@2@Uadl_serializer@json_abi_v3_11_2@nlohmann@@V?$vector@EV?$allocator@E@std@@@2@@json_abi_v3_11_2@nlohmann@@V?$allocator@V?$basic_json@Vmap@std@@Vvector@2@V?$basic_string@DU?$char_traits@D@std@@V?$allocator@D@2@@2@_N_J_KNVallocator@2@Uadl_serializer@json_abi_v3_11_2@nlohmann@@V?$vector@EV?$allocator@E@std@@@2@@json_abi_v3_11_2@nlohmann@@@std@@@std@@AEAAPEAV?$basic_json@Vmap@std@@Vvector@2@V?$basic_string@DU?$char_traits@D@std@@V?$allocator@D@2@@2@_N_J_KNVallocator@2@Uadl_serializer@json_abi_v3_11_2@nlohmann@@V?$vector@EV?$allocator@E@std@@@2@@json_abi_v3_11_2@nlohmann@@QEAV234@AEAN@Z 0000000180013cf0 f i main.obj
 0001:00012f00       ??$handle_value@AEAN@?$json_sax_dom_parser@V?$basic_json@Vmap@std@@Vvector@2@V?$basic_string@DU?$char_traits@D@std@@V?$allocator@D@2@@2@_N_J_KNVallocator@2@Uadl_serializer@json_abi_v3_11_2@nlohmann@@V?$vector@EV?$allocator@E@std@@@2@@json_abi_v3_11_2@nlohmann@@@detail@json_abi_v3_11_2@nlohmann@@AEAAPEAV?$basic_json@Vmap@std@@Vvector@2@V?$basic_string@DU?$char_traits@D@std@@V?$allocator@D@2@@2@_N_J_KNVallocator@2@Uadl_serializer@json_abi_v3_11_2@nlohmann@@V?$vector@EV?$allocator@E@std@@@2@@23@AEAN@Z 0000000180013f00 f i main.obj
 0001:00013060       ??$_Emplace_reallocate@AEBQEAV?$basic_json@Vmap@std@@Vvector@2@V?$basic_string@DU?$char_traits@D@std@@V?$allocator@D@2@@2@_N_J_KNVallocator@2@Uadl_serializer@json_abi_v3_11_2@nlohmann@@V?$vector@EV?$allocator@E@std@@@2@@json_abi_v3_11_2@nlohmann@@@?$vector@PEAV?$basic_json@Vmap@std@@Vvector@2@V?$basic_string@DU?$char_traits@D@std@@V?$allocator@D@2@@2@_N_J_KNVallocator@2@Uadl_serializer@json_abi_v3_11_2@nlohmann@@V?$vector@EV?$allocator@E@std@@@2@@json_abi_v3_11_2@nlohmann@@V?$allocator@PEAV?$basic_json@Vmap@std@@Vvector@2@V?$basic_string@DU?$char_traits@D@std@@V?$allocator@D@2@@2@_N_J_KNVallocator@2@Uadl_serializer@json_abi_v3_11_2@nlohmann@@V?$vector@EV?$allocator@E@std@@@2@@json_abi_v3_11_2@nlohmann@@@std@@@std@@AEAAPEAPEAV?$basic_json@Vmap@std@@Vvector@2@V?$basic_string@DU?$char_traits@D@std@@V?$allocator@D@2@@2@_N_J_KNVallocator@2@Uadl_serializer@json_abi_v3_11_2@nlohmann@@V?$vector@EV?$allocator@E@std@@@2@@json_abi_v3_11_2@nlohmann@@QEAPEAV234@AEBQEAV234@@Z 0000000180014060 f i main.obj
 0001:00013060       ??$_Emplace_reallocate@PEAV?$basic_json@Vmap@std@@Vvector@2@V?$basic_string@DU?$char_traits@D@std@@V?$allocator@D@2@@2@_N_J_KNVallocator@2@Uadl_serializer@json_abi_v3_11_2@nlohmann@@V?$vector@EV?$allocator@E@std@@@2@@json_abi_v3_11_2@nlohmann@@@?$vector@PEAV?$basic_json@Vmap@std@@Vvector@2@V?$basic_string@DU?$char_traits@D@std@@V?$allocator@D@2@@2@_N_J_KNVallocator@2@Uadl_serializer@json_abi_v3_11_2@nlohmann@@V?$vector@EV?$allocator@E@std@@@2@@json_abi_v3_11_2@nlohmann@@V?$allocator@PEAV?$basic_json@Vmap@std@@Vvector@2@V?$basic_string@DU?$char_traits@D@std@@V?$allocator@D@2@@2@_N_J_KNVallocator@2@Uadl_serializer@json_abi_v3_11_2@nlohmann@@V?$vector@EV?$allocator@E@std@@@2@@json_abi_v3_11_2@nlohmann@@@std@@@std@@AEAAPEAPEAV?$basic_json@Vmap@std@@Vvector@2@V?$basic_string@DU?$char_traits@D@std@@V?$allocator@D@2@@2@_N_J_KNVallocator@2@Uadl_serializer@json_abi_v3_11_2@nlohmann@@V?$vector@EV?$allocator@E@std@@@2@@json_abi_v3_11_2@nlohmann@@QEAPEAV234@$$QEAPEAV234@@Z 0000000180014060 f i main.obj
 0001:00013200       ??$_Emplace_reallocate@W4value_t@detail@json_abi_v3_11_2@nlohmann@@@?$vector@V?$basic_json@Vmap@std@@Vvector@2@V?$basic_string@DU?$char_traits@D@std@@V?$allocator@D@2@@2@_N_J_KNVallocator@2@Uadl_serializer@json_abi_v3_11_2@nlohmann@@V?$vector@EV?$allocator@E@std@@@2@@json_abi_v3_11_2@nlohmann@@V?$allocator@V?$basic_json@Vmap@std@@Vvector@2@V?$basic_string@DU?$char_traits@D@std@@V?$allocator@D@2@@2@_N_J_KNVallocator@2@Uadl_serializer@json_abi_v3_11_2@nlohmann@@V?$vector@EV?$allocator@E@std@@@2@@json_abi_v3_11_2@nlohmann@@@std@@@std@@AEAAPEAV?$basic_json@Vmap@std@@Vvector@2@V?$basic_string@DU?$char_traits@D@std@@V?$allocator@D@2@@2@_N_J_KNVallocator@2@Uadl_serializer@json_abi_v3_11_2@nlohmann@@V?$vector@EV?$allocator@E@std@@@2@@json_abi_v3_11_2@nlohmann@@QEAV234@$$QEAW4value_t@detail@34@@Z 0000000180014200 f i main.obj
 0001:00013420       ??$handle_value@W4value_t@detail@json_abi_v3_11_2@nlohmann@@@?$json_sax_dom_parser@V?$basic_json@Vmap@std@@Vvector@2@V?$basic_string@DU?$char_traits@D@std@@V?$allocator@D@2@@2@_N_J_KNVallocator@2@Uadl_serializer@json_abi_v3_11_2@nlohmann@@V?$vector@EV?$allocator@E@std@@@2@@json_abi_v3_11_2@nlohmann@@@detail@json_abi_v3_11_2@nlohmann@@AEAAPEAV?$basic_json@Vmap@std@@Vvector@2@V?$basic_string@DU?$char_traits@D@std@@V?$allocator@D@2@@2@_N_J_KNVallocator@2@Uadl_serializer@json_abi_v3_11_2@nlohmann@@V?$vector@EV?$allocator@E@std@@@2@@23@$$QEAW4value_t@123@@Z 0000000180014420 f i main.obj
 0001:00013540       ??$handle_value@AEA_K@?$json_sax_dom_callback_parser@V?$basic_json@Vmap@std@@Vvector@2@V?$basic_string@DU?$char_traits@D@std@@V?$allocator@D@2@@2@_N_J_KNVallocator@2@Uadl_serializer@json_abi_v3_11_2@nlohmann@@V?$vector@EV?$allocator@E@std@@@2@@json_abi_v3_11_2@nlohmann@@@detail@json_abi_v3_11_2@nlohmann@@AEAA?AU?$pair@_NPEAV?$basic_json@Vmap@std@@Vvector@2@V?$basic_string@DU?$char_traits@D@std@@V?$allocator@D@2@@2@_N_J_KNVallocator@2@Uadl_serializer@json_abi_v3_11_2@nlohmann@@V?$vector@EV?$allocator@E@std@@@2@@json_abi_v3_11_2@nlohmann@@@std@@AEA_K_N@Z 0000000180014540 f i main.obj
 0001:00013840       ??$handle_value@AEAV?$basic_string@DU?$char_traits@D@std@@V?$allocator@D@2@@std@@@?$json_sax_dom_callback_parser@V?$basic_json@Vmap@std@@Vvector@2@V?$basic_string@DU?$char_traits@D@std@@V?$allocator@D@2@@2@_N_J_KNVallocator@2@Uadl_serializer@json_abi_v3_11_2@nlohmann@@V?$vector@EV?$allocator@E@std@@@2@@json_abi_v3_11_2@nlohmann@@@detail@json_abi_v3_11_2@nlohmann@@AEAA?AU?$pair@_NPEAV?$basic_json@Vmap@std@@Vvector@2@V?$basic_string@DU?$char_traits@D@std@@V?$allocator@D@2@@2@_N_J_KNVallocator@2@Uadl_serializer@json_abi_v3_11_2@nlohmann@@V?$vector@EV?$allocator@E@std@@@2@@json_abi_v3_11_2@nlohmann@@@std@@AEAV?$basic_string@DU?$char_traits@D@std@@V?$allocator@D@2@@5@_N@Z 0000000180014840 f i main.obj
 0001:00013b60       ??$handle_value@AEA_J@?$json_sax_dom_callback_parser@V?$basic_json@Vmap@std@@Vvector@2@V?$basic_string@DU?$char_traits@D@std@@V?$allocator@D@2@@2@_N_J_KNVallocator@2@Uadl_serializer@json_abi_v3_11_2@nlohmann@@V?$vector@EV?$allocator@E@std@@@2@@json_abi_v3_11_2@nlohmann@@@detail@json_abi_v3_11_2@nlohmann@@AEAA?AU?$pair@_NPEAV?$basic_json@Vmap@std@@Vvector@2@V?$basic_string@DU?$char_traits@D@std@@V?$allocator@D@2@@2@_N_J_KNVallocator@2@Uadl_serializer@json_abi_v3_11_2@nlohmann@@V?$vector@EV?$allocator@E@std@@@2@@json_abi_v3_11_2@nlohmann@@@std@@AEA_J_N@Z 0000000180014b60 f i main.obj
 0001:00013e60       ??$handle_value@$$T@?$json_sax_dom_callback_parser@V?$basic_json@Vmap@std@@Vvector@2@V?$basic_string@DU?$char_traits@D@std@@V?$allocator@D@2@@2@_N_J_KNVallocator@2@Uadl_serializer@json_abi_v3_11_2@nlohmann@@V?$vector@EV?$allocator@E@std@@@2@@json_abi_v3_11_2@nlohmann@@@detail@json_abi_v3_11_2@nlohmann@@AEAA?AU?$pair@_NPEAV?$basic_json@Vmap@std@@Vvector@2@V?$basic_string@DU?$char_traits@D@std@@V?$allocator@D@2@@2@_N_J_KNVallocator@2@Uadl_serializer@json_abi_v3_11_2@nlohmann@@V?$vector@EV?$allocator@E@std@@@2@@json_abi_v3_11_2@nlohmann@@@std@@$$QEA$$T_N@Z 0000000180014e60 f i main.obj
 0001:00014150       ??$handle_value@AEA_N@?$json_sax_dom_callback_parser@V?$basic_json@Vmap@std@@Vvector@2@V?$basic_string@DU?$char_traits@D@std@@V?$allocator@D@2@@2@_N_J_KNVallocator@2@Uadl_serializer@json_abi_v3_11_2@nlohmann@@V?$vector@EV?$allocator@E@std@@@2@@json_abi_v3_11_2@nlohmann@@@detail@json_abi_v3_11_2@nlohmann@@AEAA?AU?$pair@_NPEAV?$basic_json@Vmap@std@@Vvector@2@V?$basic_string@DU?$char_traits@D@std@@V?$allocator@D@2@@2@_N_J_KNVallocator@2@Uadl_serializer@json_abi_v3_11_2@nlohmann@@V?$vector@EV?$allocator@E@std@@@2@@json_abi_v3_11_2@nlohmann@@@std@@AEA_N_N@Z 0000000180015150 f i main.obj
 0001:00014450       ??$handle_value@AEAN@?$json_sax_dom_callback_parser@V?$basic_json@Vmap@std@@Vvector@2@V?$basic_string@DU?$char_traits@D@std@@V?$allocator@D@2@@2@_N_J_KNVallocator@2@Uadl_serializer@json_abi_v3_11_2@nlohmann@@V?$vector@EV?$allocator@E@std@@@2@@json_abi_v3_11_2@nlohmann@@@detail@json_abi_v3_11_2@nlohmann@@AEAA?AU?$pair@_NPEAV?$basic_json@Vmap@std@@Vvector@2@V?$basic_string@DU?$char_traits@D@std@@V?$allocator@D@2@@2@_N_J_KNVallocator@2@Uadl_serializer@json_abi_v3_11_2@nlohmann@@V?$vector@EV?$allocator@E@std@@@2@@json_abi_v3_11_2@nlohmann@@@std@@AEAN_N@Z 0000000180015450 f i main.obj
 0001:00014760       ??$concat@V?$basic_string@DU?$char_traits@D@std@@V?$allocator@D@2@@std@@AEAY0BK@$$CBDV12@D@detail@json_abi_v3_11_2@nlohmann@@YA?AV?$basic_string@DU?$char_traits@D@std@@V?$allocator@D@2@@std@@AEAY0BK@$$CBD$$QEAV34@$$QEAD@Z 0000000180015760 f i main.obj
 0001:00014850       ??$create@$$T$0A@@out_of_range@detail@json_abi_v3_11_2@nlohmann@@SA?AV0123@HAEBV?$basic_string@DU?$char_traits@D@std@@V?$allocator@D@2@@std@@$$T@Z 0000000180015850 f i main.obj
 0001:00014a80       ?end_array@?$json_sax_dom_callback_parser@V?$basic_json@Vmap@std@@Vvector@2@V?$basic_string@DU?$char_traits@D@std@@V?$allocator@D@2@@2@_N_J_KNVallocator@2@Uadl_serializer@json_abi_v3_11_2@nlohmann@@V?$vector@EV?$allocator@E@std@@@2@@json_abi_v3_11_2@nlohmann@@@detail@json_abi_v3_11_2@nlohmann@@QEAA_NXZ 0000000180015a80 f i main.obj
 0001:00014b70       ??$?0AEAV?$basic_string@DU?$char_traits@D@std@@V?$allocator@D@2@@std@@V01@$0A@@?$basic_json@Vmap@std@@Vvector@2@V?$basic_string@DU?$char_traits@D@std@@V?$allocator@D@2@@2@_N_J_KNVallocator@2@Uadl_serializer@json_abi_v3_11_2@nlohmann@@V?$vector@EV?$allocator@E@std@@@2@@json_abi_v3_11_2@nlohmann@@QEAA@AEAV?$basic_string@DU?$char_traits@D@std@@V?$allocator@D@2@@std@@@Z 0000000180015b70 f i main.obj
 0001:00014bf0       ??1?$_Alloc_construct_ptr@V?$allocator@U?$_Tree_node@U?$pair@$$CBV?$basic_string@DU?$char_traits@D@std@@V?$allocator@D@2@@std@@V?$basic_json@Vmap@std@@Vvector@2@V?$basic_string@DU?$char_traits@D@std@@V?$allocator@D@2@@2@_N_J_KNVallocator@2@Uadl_serializer@json_abi_v3_11_2@nlohmann@@V?$vector@EV?$allocator@E@std@@@2@@json_abi_v3_11_2@nlohmann@@@std@@PEAX@std@@@std@@@std@@QEAA@XZ 0000000180015bf0 f i main.obj
 0001:00014bf0       ??1?$_Tree_temp_node_alloc@V?$allocator@U?$_Tree_node@U?$pair@$$CBV?$basic_string@DU?$char_traits@D@std@@V?$allocator@D@2@@std@@V?$basic_json@Vmap@std@@Vvector@2@V?$basic_string@DU?$char_traits@D@std@@V?$allocator@D@2@@2@_N_J_KNVallocator@2@Uadl_serializer@json_abi_v3_11_2@nlohmann@@V?$vector@EV?$allocator@E@std@@@2@@json_abi_v3_11_2@nlohmann@@@std@@PEAX@std@@@std@@@std@@QEAA@XZ 0000000180015bf0 f i main.obj
 0001:00014c10       ?_Insert_node@?$_Tree_val@U?$_Tree_simple_types@U?$pair@$$CBV?$basic_string@DU?$char_traits@D@std@@V?$allocator@D@2@@std@@V?$basic_json@Vmap@std@@Vvector@2@V?$basic_string@DU?$char_traits@D@std@@V?$allocator@D@2@@2@_N_J_KNVallocator@2@Uadl_serializer@json_abi_v3_11_2@nlohmann@@V?$vector@EV?$allocator@E@std@@@2@@json_abi_v3_11_2@nlohmann@@@std@@@std@@@std@@QEAAPEAU?$_Tree_node@U?$pair@$$CBV?$basic_string@DU?$char_traits@D@std@@V?$allocator@D@2@@std@@V?$basic_json@Vmap@std@@Vvector@2@V?$basic_string@DU?$char_traits@D@std@@V?$allocator@D@2@@2@_N_J_KNVallocator@2@Uadl_serializer@json_abi_v3_11_2@nlohmann@@V?$vector@EV?$allocator@E@std@@@2@@json_abi_v3_11_2@nlohmann@@@std@@PEAX@2@U?$_Tree_id@PEAU?$_Tree_node@U?$pair@$$CBV?$basic_string@DU?$char_traits@D@std@@V?$allocator@D@2@@std@@V?$basic_json@Vmap@std@@Vvector@2@V?$basic_string@DU?$char_traits@D@std@@V?$allocator@D@2@@2@_N_J_KNVallocator@2@Uadl_serializer@json_abi_v3_11_2@nlohmann@@V?$vector@EV?$allocator@E@std@@@2@@json_abi_v3_11_2@nlohmann@@@std@@PEAX@std@@@2@QEAU32@@Z 0000000180015c10 f i main.obj
 0001:00014c10       ?_Insert_node@?$_Tree_val@U?$_Tree_simple_types@U?$pair@$$CBV?$basic_string@DU?$char_traits@D@std@@V?$allocator@D@2@@std@@W4log_color@big@@@std@@@std@@@std@@QEAAPEAU?$_Tree_node@U?$pair@$$CBV?$basic_string@DU?$char_traits@D@std@@V?$allocator@D@2@@std@@W4log_color@big@@@std@@PEAX@2@U?$_Tree_id@PEAU?$_Tree_node@U?$pair@$$CBV?$basic_string@DU?$char_traits@D@std@@V?$allocator@D@2@@std@@W4log_color@big@@@std@@PEAX@std@@@2@QEAU32@@Z 0000000180015c10 f i main.obj
 0001:00014e70       ??$_Try_emplace@AEBV?$basic_string@DU?$char_traits@D@std@@V?$allocator@D@2@@std@@$$V@?$map@V?$basic_string@DU?$char_traits@D@std@@V?$allocator@D@2@@std@@V?$basic_json@Vmap@std@@Vvector@2@V?$basic_string@DU?$char_traits@D@std@@V?$allocator@D@2@@2@_N_J_KNVallocator@2@Uadl_serializer@json_abi_v3_11_2@nlohmann@@V?$vector@EV?$allocator@E@std@@@2@@json_abi_v3_11_2@nlohmann@@U?$less@X@2@V?$allocator@U?$pair@$$CBV?$basic_string@DU?$char_traits@D@std@@V?$allocator@D@2@@std@@V?$basic_json@Vmap@std@@Vvector@2@V?$basic_string@DU?$char_traits@D@std@@V?$allocator@D@2@@2@_N_J_KNVallocator@2@Uadl_serializer@json_abi_v3_11_2@nlohmann@@V?$vector@EV?$allocator@E@std@@@2@@json_abi_v3_11_2@nlohmann@@@std@@@2@@std@@AEAA?AU?$pair@PEAU?$_Tree_node@U?$pair@$$CBV?$basic_string@DU?$char_traits@D@std@@V?$allocator@D@2@@std@@V?$basic_json@Vmap@std@@Vvector@2@V?$basic_string@DU?$char_traits@D@std@@V?$allocator@D@2@@2@_N_J_KNVallocator@2@Uadl_serializer@json_abi_v3_11_2@nlohmann@@V?$vector@EV?$allocator@E@std@@@2@@json_abi_v3_11_2@nlohmann@@@std@@PEAX@std@@_N@1@AEBV?$basic_string@DU?$char_traits@D@std@@V?$allocator@D@2@@1@@Z 0000000180015e70 f i main.obj
 0001:00015020       ?key@?$json_sax_dom_callback_parser@V?$basic_json@Vmap@std@@Vvector@2@V?$basic_string@DU?$char_traits@D@std@@V?$allocator@D@2@@2@_N_J_KNVallocator@2@Uadl_serializer@json_abi_v3_11_2@nlohmann@@V?$vector@EV?$allocator@E@std@@@2@@json_abi_v3_11_2@nlohmann@@@detail@json_abi_v3_11_2@nlohmann@@QEAA_NAEAV?$basic_string@DU?$char_traits@D@std@@V?$allocator@D@2@@std@@@Z 0000000180016020 f i main.obj
 0001:000151c0       ?_Extract@?$_Tree_val@U?$_Tree_simple_types@U?$pair@$$CBV?$basic_string@DU?$char_traits@D@std@@V?$allocator@D@2@@std@@V?$basic_json@Vmap@std@@Vvector@2@V?$basic_string@DU?$char_traits@D@std@@V?$allocator@D@2@@2@_N_J_KNVallocator@2@Uadl_serializer@json_abi_v3_11_2@nlohmann@@V?$vector@EV?$allocator@E@std@@@2@@json_abi_v3_11_2@nlohmann@@@std@@@std@@@std@@QEAAPEAU?$_Tree_node@U?$pair@$$CBV?$basic_string@DU?$char_traits@D@std@@V?$allocator@D@2@@std@@V?$basic_json@Vmap@std@@Vvector@2@V?$basic_string@DU?$char_traits@D@std@@V?$allocator@D@2@@2@_N_J_KNVallocator@2@Uadl_serializer@json_abi_v3_11_2@nlohmann@@V?$vector@EV?$allocator@E@std@@@2@@json_abi_v3_11_2@nlohmann@@@std@@PEAX@2@V?$_Tree_unchecked_const_iterator@V?$_Tree_val@U?$_Tree_simple_types@U?$pair@$$CBV?$basic_string@DU?$char_traits@D@std@@V?$allocator@D@2@@std@@V?$basic_json@Vmap@std@@Vvector@2@V?$basic_string@DU?$char_traits@D@std@@V?$allocator@D@2@@2@_N_J_KNVallocator@2@Uadl_serializer@json_abi_v3_11_2@nlohmann@@V?$vector@EV?$allocator@E@std@@@2@@json_abi_v3_11_2@nlohmann@@@std@@@std@@@std@@U_Iterator_base0@2@@2@@Z 00000001800161c0 f i main.obj
 0001:000156a0       ??$concat@V?$basic_string@DU?$char_traits@D@std@@V?$allocator@D@2@@std@@AEAY0BJ@$$CBDPEBD@detail@json_abi_v3_11_2@nlohmann@@YA?AV?$basic_string@DU?$char_traits@D@std@@V?$allocator@D@2@@std@@AEAY0BJ@$$CBD$$QEAPEBD@Z 00000001800166a0 f i main.obj
 0001:00015760       ??$erase@V?$iter_impl@V?$basic_json@Vmap@std@@Vvector@2@V?$basic_string@DU?$char_traits@D@std@@V?$allocator@D@2@@2@_N_J_KNVallocator@2@Uadl_serializer@json_abi_v3_11_2@nlohmann@@V?$vector@EV?$allocator@E@std@@@2@@json_abi_v3_11_2@nlohmann@@@detail@json_abi_v3_11_2@nlohmann@@$0A@@?$basic_json@Vmap@std@@Vvector@2@V?$basic_string@DU?$char_traits@D@std@@V?$allocator@D@2@@2@_N_J_KNVallocator@2@Uadl_serializer@json_abi_v3_11_2@nlohmann@@V?$vector@EV?$allocator@E@std@@@2@@json_abi_v3_11_2@nlohmann@@QEAA?AV?$iter_impl@V?$basic_json@Vmap@std@@Vvector@2@V?$basic_string@DU?$char_traits@D@std@@V?$allocator@D@2@@2@_N_J_KNVallocator@2@Uadl_serializer@json_abi_v3_11_2@nlohmann@@V?$vector@EV?$allocator@E@std@@@2@@json_abi_v3_11_2@nlohmann@@@detail@12@V3412@@Z 0000000180016760 f i main.obj
 0001:00015af0       ?end_object@?$json_sax_dom_callback_parser@V?$basic_json@Vmap@std@@Vvector@2@V?$basic_string@DU?$char_traits@D@std@@V?$allocator@D@2@@2@_N_J_KNVallocator@2@Uadl_serializer@json_abi_v3_11_2@nlohmann@@V?$vector@EV?$allocator@E@std@@@2@@json_abi_v3_11_2@nlohmann@@@detail@json_abi_v3_11_2@nlohmann@@QEAA_NXZ 0000000180016af0 f i main.obj
 0001:00015f70       ?erase@?$vector@_NV?$allocator@_N@std@@@std@@QEAA?AV?$_Vb_iterator@U?$_Wrap_alloc@V?$allocator@I@std@@@std@@@2@V?$_Vb_const_iterator@U?$_Wrap_alloc@V?$allocator@I@std@@@std@@@2@@Z 0000000180016f70 f i main.obj
 0001:000161d0       ?pop_back@?$vector@_NV?$allocator@_N@std@@@std@@QEAAXXZ 00000001800171d0 f i main.obj
 0001:00016270       ??$handle_value@W4value_t@detail@json_abi_v3_11_2@nlohmann@@@?$json_sax_dom_callback_parser@V?$basic_json@Vmap@std@@Vvector@2@V?$basic_string@DU?$char_traits@D@std@@V?$allocator@D@2@@2@_N_J_KNVallocator@2@Uadl_serializer@json_abi_v3_11_2@nlohmann@@V?$vector@EV?$allocator@E@std@@@2@@json_abi_v3_11_2@nlohmann@@@detail@json_abi_v3_11_2@nlohmann@@AEAA?AU?$pair@_NPEAV?$basic_json@Vmap@std@@Vvector@2@V?$basic_string@DU?$char_traits@D@std@@V?$allocator@D@2@@2@_N_J_KNVallocator@2@Uadl_serializer@json_abi_v3_11_2@nlohmann@@V?$vector@EV?$allocator@E@std@@@2@@json_abi_v3_11_2@nlohmann@@@std@@$$QEAW4value_t@123@_N@Z 0000000180017270 f i main.obj
 0001:00016500       ?_Xlength@?$vector@DV?$allocator@D@std@@@std@@CAXXZ 0000000180017500 f i main.obj
 0001:00016500       ?_Xlength@?$vector@EV?$allocator@E@std@@@std@@CAXXZ 0000000180017500 f i main.obj
 0001:00016500       ?_Xlength@?$vector@IV?$allocator@I@std@@@std@@CAXXZ 0000000180017500 f i main.obj
 0001:00016500       ?_Xlength@?$vector@PEAV?$basic_json@Vmap@std@@Vvector@2@V?$basic_string@DU?$char_traits@D@std@@V?$allocator@D@2@@2@_N_J_KNVallocator@2@Uadl_serializer@json_abi_v3_11_2@nlohmann@@V?$vector@EV?$allocator@E@std@@@2@@json_abi_v3_11_2@nlohmann@@V?$allocator@PEAV?$basic_json@Vmap@std@@Vvector@2@V?$basic_string@DU?$char_traits@D@std@@V?$allocator@D@2@@2@_N_J_KNVallocator@2@Uadl_serializer@json_abi_v3_11_2@nlohmann@@V?$vector@EV?$allocator@E@std@@@2@@json_abi_v3_11_2@nlohmann@@@std@@@std@@CAXXZ 0000000180017500 f i main.obj
 0001:00016500       ?_Xlength@?$vector@Uentry@pattern_batch@memory@@V?$allocator@Uentry@pattern_batch@memory@@@std@@@std@@CAXXZ 0000000180017500 f i pattern_batch.obj
 0001:00016500       ?_Xlength@?$vector@V?$basic_json@Vmap@std@@Vvector@2@V?$basic_string@DU?$char_traits@D@std@@V?$allocator@D@2@@2@_N_J_KNVallocator@2@Uadl_serializer@json_abi_v3_11_2@nlohmann@@V?$vector@EV?$allocator@E@std@@@2@@json_abi_v3_11_2@nlohmann@@V?$allocator@V?$basic_json@Vmap@std@@Vvector@2@V?$basic_string@DU?$char_traits@D@std@@V?$allocator@D@2@@2@_N_J_KNVallocator@2@Uadl_serializer@json_abi_v3_11_2@nlohmann@@V?$vector@EV?$allocator@E@std@@@2@@json_abi_v3_11_2@nlohmann@@@std@@@std@@CAXXZ 0000000180017500 f i main.obj
 0001:00016500       ?_Xlength@?$vector@V?$optional@E@std@@V?$allocator@V?$optional@E@std@@@2@@std@@CAXXZ 0000000180017500 f i pattern.obj
 0001:00016500       ?_Xlength@?$vector@V?$unique_ptr@Vscript@big@@U?$default_delete@Vscript@big@@@std@@@std@@V?$allocator@V?$unique_ptr@Vscript@big@@U?$default_delete@Vscript@big@@@std@@@std@@@2@@std@@CAXXZ 0000000180017500 f i script_mgr.obj
 0001:00016500       ?_Xlength@?$vector@Vthread@std@@V?$allocator@Vthread@std@@@2@@std@@CAXXZ 0000000180017500 f i thread_pool.obj
 0001:00016520       ??1exception@detail@json_abi_v3_11_2@nlohmann@@UEAA@XZ 0000000180017520 f i main.obj
 0001:00016520       ??1invalid_iterator@detail@json_abi_v3_11_2@nlohmann@@UEAA@XZ 0000000180017520 f i main.obj
 0001:00016520       ??1other_error@detail@json_abi_v3_11_2@nlohmann@@UEAA@XZ 0000000180017520 f i main.obj
 0001:00016520       ??1out_of_range@detail@json_abi_v3_11_2@nlohmann@@UEAA@XZ 0000000180017520 f i main.obj
 0001:00016520       ??1parse_error@detail@json_abi_v3_11_2@nlohmann@@UEAA@XZ 0000000180017520 f i main.obj
 0001:00016520       ??1type_error@detail@json_abi_v3_11_2@nlohmann@@UEAA@XZ 0000000180017520 f i main.obj
 0001:00016560       ??_Eexception@detail@json_abi_v3_11_2@nlohmann@@UEAAPEAXI@Z 0000000180017560 f i * CIL library *:* CIL module *
 0001:00016560       ??_Einvalid_iterator@detail@json_abi_v3_11_2@nlohmann@@UEAAPEAXI@Z 0000000180017560 f i * CIL library *:* CIL module *
 0001:00016560       ??_Eother_error@detail@json_abi_v3_11_2@nlohmann@@UEAAPEAXI@Z 0000000180017560 f i * CIL library *:* CIL module *
 0001:00016560       ??_Eout_of_range@detail@json_abi_v3_11_2@nlohmann@@UEAAPEAXI@Z 0000000180017560 f i * CIL library *:* CIL module *
 0001:00016560       ??_Etype_error@detail@json_abi_v3_11_2@nlohmann@@UEAAPEAXI@Z 0000000180017560 f i * CIL library *:* CIL module *
 0001:00016560       ??_Gexception@detail@json_abi_v3_11_2@nlohmann@@UEAAPEAXI@Z 0000000180017560 f i main.obj
 0001:00016560       ??_Ginvalid_iterator@detail@json_abi_v3_11_2@nlohmann@@UEAAPEAXI@Z 0000000180017560 f i main.obj
 0001:00016560       ??_Gother_error@detail@json_abi_v3_11_2@nlohmann@@UEAAPEAXI@Z 0000000180017560 f i main.obj
 0001:00016560       ??_Gout_of_range@detail@json_abi_v3_11_2@nlohmann@@UEAAPEAXI@Z 0000000180017560 f i main.obj
 0001:00016560       ??_Gtype_error@detail@json_abi_v3_11_2@nlohmann@@UEAAPEAXI@Z 0000000180017560 f i main.obj
 0001:000165c0       ??0out_of_range@detail@json_abi_v3_11_2@nlohmann@@QEAA@AEBV0123@@Z 00000001800175c0 f i main.obj
 0001:000165f0       ??4?$basic_string@DU?$char_traits@D@std@@V?$allocator@D@2@@std@@QEAAAEAV01@$$QEAV01@@Z 00000001800175f0 f i main.obj
 0001:00016680       ??0?$basic_ofstream@DU?$char_traits@D@std@@@std@@QEAA@XZ 0000000180017680 f i main.obj
 0001:00016750       ?open@?$basic_ofstream@DU?$char_traits@D@std@@@std@@QEAAXPEBDHH@Z 0000000180017750 f i main.obj
 0001:000167a0       ?_Throw_fs_error@filesystem@std@@YAXPEBDW4__std_win_error@@AEBVpath@12@@Z 00000001800177a0 f i main.obj
 0001:00016810       ??$?0_J$0A@@?$duration@_JU?$ratio@$00$0DLJKMKAA@@std@@@chrono@std@@QEAA@AEB_J@Z 0000000180017810 f i main.obj
 0001:00016810       ??$?0_J$0A@@?$duration@_JU?$ratio@$00$0JIJGIA@@std@@@chrono@std@@QEAA@AEB_J@Z 0000000180017810 f i main.obj
 0001:00016810       ??0?$time_point@Usystem_clock@chrono@std@@V?$duration@_JU?$ratio@$00$0JIJGIA@@std@@@23@@chrono@std@@QEAA@AEBV?$duration@_JU?$ratio@$00$0JIJGIA@@std@@@12@@Z 0000000180017810 f i main.obj
 0001:00016820       ?now@system_clock@chrono@std@@SA?AV?$time_point@Usystem_clock@chrono@std@@V?$duration@_JU?$ratio@$00$0JIJGIA@@std@@@23@@23@XZ 0000000180017820 f i main.obj
 0001:00016840       ??$_Get_unwrapped@AEAPEAD@std@@YA?A_TAEAPEAD@Z 0000000180017840 f i main.obj
 0001:00016840       ??$_Get_unwrapped@AEBQEAD@std@@YA?A_TAEBQEAD@Z 0000000180017840 f i main.obj
 0001:00016840       ??$_To_address@PEAD@std@@YA?A_PAEBQEAD@Z 0000000180017840 f i main.obj
 0001:00016840       ??C?$unique_ptr@VActive@kjellkod@@U?$default_delete@VActive@kjellkod@@@std@@@std@@QEBAPEAVActive@kjellkod@@XZ 0000000180017840 f i main.obj
 0001:00016840       ?count@?$duration@_JU?$ratio@$00$00@std@@@chrono@std@@QEBA_JXZ 0000000180017840 f i main.obj
 0001:00016840       ?count@?$duration@_JU?$ratio@$00$0DLJKMKAA@@std@@@chrono@std@@QEBA_JXZ 0000000180017840 f i main.obj
 0001:00016840       ?count@?$duration@_JU?$ratio@$00$0JIJGIA@@std@@@chrono@std@@QEBA_JXZ 0000000180017840 f i main.obj
 0001:00016840       ?get@?$unique_ptr@VActive@kjellkod@@U?$default_delete@VActive@kjellkod@@@std@@@std@@QEBAPEAVActive@kjellkod@@XZ 0000000180017840 f i main.obj
 0001:00016850       ??$duration_cast@V?$duration@_JU?$ratio@$00$00@std@@@chrono@std@@_JU?$ratio@$00$0JIJGIA@@3@$0A@@chrono@std@@YA?AV?$duration@_JU?$ratio@$00$00@std@@@01@AEBV?$duration@_JU?$ratio@$00$0JIJGIA@@std@@@01@@Z 0000000180017850 f i main.obj
 0001:00016880       ?time_since_epoch@?$time_point@Usystem_clock@chrono@std@@V?$duration@_JU?$ratio@$00$0JIJGIA@@std@@@23@@chrono@std@@QEBA?AV?$duration@_JU?$ratio@$00$0JIJGIA@@std@@@23@XZ 0000000180017880 f i main.obj
 0001:00016890       ?to_time_t@system_clock@chrono@std@@SA_JAEBV?$time_point@Usystem_clock@chrono@std@@V?$duration@_JU?$ratio@$00$0JIJGIA@@std@@@23@@23@@Z 0000000180017890 f i main.obj
 0001:000168b0       ?_Get_any_status@filesystem@std@@YA?AU_File_status_and_error@12@AEBVpath@12@W4__std_fs_stats_flags@@@Z 00000001800178b0 f i main.obj
 0001:00016990       ?exists@filesystem@std@@YA_NAEBVpath@12@@Z 0000000180017990 f i main.obj
 0001:00016a00       ?_Is_dot_or_dotdot@filesystem@std@@YA_NAEBU__std_fs_find_data@@@Z 0000000180017a00 f i main.obj
 0001:00016a30       ??0_Creator@_Dir_enum_impl@filesystem@std@@QEAA@AEBVpath@23@W4directory_options@23@@Z 0000000180017a30 f i main.obj
 0001:00016be0       ??1_Creator@_Dir_enum_impl@filesystem@std@@QEAA@XZ 0000000180017be0 f i main.obj
 0001:00016c50       ?_Destroy@?$_Ref_count_obj2@U_Dir_enum_impl@filesystem@std@@@std@@EEAAXXZ 0000000180017c50 f i main.obj
 0001:00016cc0       ??_E?$_Ref_count_obj2@U_Dir_enum_impl@filesystem@std@@@std@@UEAAPEAXI@Z 0000000180017cc0 f i * CIL library *:* CIL module *
 0001:00016cc0       ??_G?$_Ref_count_obj2@U_Dir_enum_impl@filesystem@std@@@std@@UEAAPEAXI@Z 0000000180017cc0 f i main.obj
 0001:00016cf0       ??1directory_entry@filesystem@std@@QEAA@XZ 0000000180017cf0 f i main.obj
 0001:00016d60       ??1_Find_file_handle@filesystem@std@@QEAA@XZ 0000000180017d60 f i main.obj
 0001:00016d70       ??$_Convert_Source_to_wide@V?$basic_string_view@_WU?$char_traits@_W@std@@@std@@U_Normal_conversion@filesystem@2@@filesystem@std@@YA?AV?$basic_string@_WU?$char_traits@_W@std@@V?$allocator@_W@2@@1@AEBV?$basic_string_view@_WU?$char_traits@_W@std@@@1@U_Normal_conversion@01@@Z 0000000180017d70 f i main.obj
 0001:00016ec0       ?_Refresh@_Dir_enum_impl@filesystem@std@@QEAAXAEBU__std_fs_find_data@@@Z 0000000180017ec0 f i main.obj
 0001:00017050       ??0_Dir_enum_impl@filesystem@std@@QEAA@$$QEAU_Creator@012@W4directory_options@12@@Z 0000000180018050 f i main.obj
 0001:00017150       ?is_empty@filesystem@std@@YA_NAEBVpath@12@AEAVerror_code@2@@Z 0000000180018150 f i main.obj
 0001:00017340       ??0filesystem_error@filesystem@std@@QEAA@AEBV?$basic_string@DU?$char_traits@D@std@@V?$allocator@D@2@@2@AEBVpath@12@Verror_code@2@@Z 0000000180018340 f i main.obj
 0001:00017490       ?_Throw_fs_error@filesystem@std@@YAXPEBDAEBVerror_code@2@AEBVpath@12@@Z 0000000180018490 f i main.obj
 0001:000174f0       ??$_Convert_wide_to_narrow_replace_chars@U?$char_traits@D@std@@V?$allocator@D@2@@filesystem@std@@YA?AV?$basic_string@DU?$char_traits@D@std@@V?$allocator@D@2@@1@W4__std_code_page@@V?$basic_string_view@_WU?$char_traits@_W@std@@@1@AEBV?$allocator@D@1@@Z 00000001800184f0 f i main.obj
 0001:000175d0       ?_Pretty_message@filesystem_error@filesystem@std@@CA?AV?$basic_string@DU?$char_traits@D@std@@V?$allocator@D@2@@3@V?$basic_string_view@DU?$char_traits@D@std@@@3@AEBVpath@23@1@Z 00000001800185d0 f i main.obj
 0001:00017850       ??0filesystem_error@filesystem@std@@QEAA@AEBV?$basic_string@DU?$char_traits@D@std@@V?$allocator@D@2@@2@AEBVpath@12@1Verror_code@2@@Z 0000000180018850 f i main.obj
 0001:00017920       ??1filesystem_error@filesystem@std@@UEAA@XZ 0000000180018920 f i main.obj
 0001:00017a50       ??_Efilesystem_error@filesystem@std@@UEAAPEAXI@Z 0000000180018a50 f i * CIL library *:* CIL module *
 0001:00017a50       ??_Gfilesystem_error@filesystem@std@@UEAAPEAXI@Z 0000000180018a50 f i main.obj
 0001:00017ba0       ??0filesystem_error@filesystem@std@@QEAA@AEBV012@@Z 0000000180018ba0 f i main.obj
 0001:00017c30       ?_Throw_fs_error@filesystem@std@@YAXPEBDW4__std_win_error@@AEBVpath@12@2@Z 0000000180018c30 f i main.obj
 0001:00017cb0       ??0path@filesystem@std@@QEAA@AEBV012@@Z 0000000180018cb0 f i main.obj
 0001:00017df0       ?_Find_root_name_end@filesystem@std@@YAPEB_WQEB_W0@Z 0000000180018df0 f i main.obj
 0001:00017ee0       ??$_Reallocate_for@V<lambda_1>@?1??assign@?$basic_string@_WU?$char_traits@_W@std@@V?$allocator@_W@2@@std@@QEAAAEAV34@QEB_W_K@Z@PEB_W@?$basic_string@_WU?$char_traits@_W@std@@V?$allocator@_W@2@@std@@AEAAAEAV01@_KV<lambda_1>@?1??assign@01@QEAAAEAV01@QEB_W0@Z@PEB_W@Z 0000000180018ee0 f i main.obj
 0001:00018060       ??4path@filesystem@std@@QEAAAEAV012@AEBV012@@Z 0000000180019060 f i main.obj
 0001:000180e0       ?_Xran@?$_String_val@U?$_Simple_types@D@std@@@std@@SAXXZ 00000001800190e0 f i main.obj
 0001:000180e0       ?_Xran@?$_String_val@U?$_Simple_types@_W@std@@@std@@SAXXZ 00000001800190e0 f i main.obj
 0001:00018100       ??$_Reallocate_grow_by@V<lambda_1>@?1??push_back@?$basic_string@_WU?$char_traits@_W@std@@V?$allocator@_W@2@@std@@QEAAX_W@Z@_W@?$basic_string@_WU?$char_traits@_W@std@@V?$allocator@_W@2@@std@@AEAAAEAV01@_KV<lambda_1>@?1??push_back@01@QEAAX_W@Z@_W@Z 0000000180019100 f i main.obj
 0001:000182b0       ??$_Reallocate_grow_by@V<lambda_1>@?1??append@?$basic_string@_WU?$char_traits@_W@std@@V?$allocator@_W@2@@std@@QEAAAEAV34@QEB_W_K@Z@PEB_W_K@?$basic_string@_WU?$char_traits@_W@std@@V?$allocator@_W@2@@std@@AEAAAEAV01@_KV<lambda_1>@?1??append@01@QEAAAEAV01@QEB_W0@Z@PEB_W_K@Z 00000001800192b0 f i main.obj
 0001:00018490       ??_0path@filesystem@std@@QEAAAEAV012@AEBV012@@Z 0000000180019490 f i main.obj
 0001:00018700       ??$_Reallocate_grow_by@V<lambda_1>@?1??append@?$basic_string@_WU?$char_traits@_W@std@@V?$allocator@_W@2@@std@@QEAAAEAV34@_K_W@Z@_K_W@?$basic_string@_WU?$char_traits@_W@std@@V?$allocator@_W@2@@std@@AEAAAEAV01@_KV<lambda_1>@?1??append@01@QEAAAEAV01@0_W@Z@_K_W@Z 0000000180019700 f i main.obj
 0001:000188d0       ?name@_System_error_category@std@@UEBAPEBDXZ 00000001800198d0 f i main.obj
 0001:000188e0       ??1_System_error_message@std@@QEAA@XZ 00000001800198e0 f i main.obj
 0001:000188f0       ?message@_System_error_category@std@@UEBA?AV?$basic_string@DU?$char_traits@D@std@@V?$allocator@D@2@@2@H@Z 00000001800198f0 f i main.obj
 0001:00018970       ?default_error_condition@_System_error_category@std@@UEBA?AVerror_condition@2@H@Z 0000000180019970 f i main.obj
 0001:000189f0       ?_Make_ec@std@@YA?AVerror_code@1@W4__std_win_error@@@Z 00000001800199f0 f i main.obj
 0001:00018a10       ?_Throw_system_error_from_std_win_error@std@@YAXW4__std_win_error@@@Z 0000000180019a10 f i main.obj
 0001:00018a50       ?_Convert_narrow_to_wide@filesystem@std@@YA?AV?$basic_string@_WU?$char_traits@_W@std@@V?$allocator@_W@2@@2@W4__std_code_page@@V?$basic_string_view@DU?$char_traits@D@std@@@2@@Z 0000000180019a50 f i main.obj
 0001:00018bb0       ??$open@$0A@Vpath@filesystem@std@@@?$basic_ofstream@DU?$char_traits@D@std@@@std@@QEAAXAEBVpath@filesystem@1@HH@Z 0000000180019bb0 f i main.obj
 0001:00018d30       ??0_Ref_count_base@std@@IEAA@XZ 0000000180019d30 f i main.obj
 0001:00018d50       ?reset@?$unique_ptr@VActive@kjellkod@@U?$default_delete@VActive@kjellkod@@@std@@@std@@QEAAXPEAVActive@kjellkod@@@Z 0000000180019d50 f i main.obj
 0001:00018d70       ??_E?$Sink@Ulog_sink@logger@big@@@internal@g3@@UEAAPEAXI@Z 0000000180019d70 f i * CIL library *:* CIL module *
 0001:00018d70       ??_G?$Sink@Ulog_sink@logger@big@@@internal@g3@@UEAAPEAXI@Z 0000000180019d70 f i main.obj
 0001:00018e50       ?_Destroy@?$_Ref_count_obj2@U?$Sink@Ulog_sink@logger@big@@@internal@g3@@@std@@EEAAXXZ 0000000180019e50 f i main.obj
 0001:00018e60       ??_E?$_Ref_count_obj2@U?$Sink@Ulog_sink@logger@big@@@internal@g3@@@std@@UEAAPEAXI@Z 0000000180019e60 f i * CIL library *:* CIL module *
 0001:00018e60       ??_G?$_Ref_count_obj2@U?$Sink@Ulog_sink@logger@big@@@internal@g3@@@std@@UEAAPEAXI@Z 0000000180019e60 f i main.obj
 0001:00018e90       ?_Get_deleter@_Ref_count_base@std@@UEBAPEAXAEBVtype_info@@@Z 0000000180019e90 f i main.obj
 0001:00018e90       ?_Move@?$_Func_impl_no_alloc@V<lambda_1>@?1??send@?$Sink@Ulog_sink@logger@big@@@internal@g3@@UEAAXU?$MoveOnCopy@ULogMessage@g3@@@5@@Z@X$$V@std@@EEAAPEAV?$_Func_base@X$$V@2@PEAX@Z 0000000180019e90 f i main.obj
 0001:00018e90       __scrt_stub_for_is_c_termination_complete 0000000180019e90 f i MSVCRT:ucrt_stubs.obj
 0001:00018e90       _is_c_termination_complete 0000000180019e90 f i MSVCRT:ucrt_stubs.obj
 0001:00018ea0       ??0SinkWrapper@internal@g3@@QEAA@XZ 0000000180019ea0 f i main.obj
 0001:00018eb0       ??_ESinkWrapper@internal@g3@@UEAAPEAXI@Z 0000000180019eb0 f i * CIL library *:* CIL module *
 0001:00018eb0       ??_GSinkWrapper@internal@g3@@UEAAPEAXI@Z 0000000180019eb0 f i main.obj
 0001:00018ee0       ??1SinkWrapper@internal@g3@@UEAA@XZ 0000000180019ee0 f i main.obj
 0001:00018ef0       ??1_Guard_type@?1???$_Global_new@V?$_Func_impl_no_alloc@V<lambda_1>@?1??send@?$Sink@Ulog_sink@logger@big@@@internal@g3@@UEAAXU?$MoveOnCopy@ULogMessage@g3@@@5@@Z@X$$V@std@@AEBV<lambda_1>@?1??send@?$Sink@Ulog_sink@logger@big@@@internal@g3@@UEAAXU?$MoveOnCopy@ULogMessage@g3@@@7@@Z@@std@@YAPEAV?$_Func_impl_no_alloc@V<lambda_1>@?1??send@?$Sink@Ulog_sink@logger@big@@@internal@g3@@UEAAXU?$MoveOnCopy@ULogMessage@g3@@@5@@Z@X$$V@1@AEBV<lambda_1>@?1??send@?$Sink@Ulog_sink@logger@big@@@internal@g3@@UEAAXU?$MoveOnCopy@ULogMessage@g3@@@7@@Z@@Z@QEAA@XZ 0000000180019ef0 f i main.obj
 0001:00018ef0       ??1_Guard_type@?1???$_Global_new@V?$_Func_impl_no_alloc@V<lambda_1>@?1??send@?$Sink@Ulog_sink@logger@big@@@internal@g3@@UEAAXU?$MoveOnCopy@ULogMessage@g3@@@5@@Z@X$$V@std@@V<lambda_1>@?1??send@?$Sink@Ulog_sink@logger@big@@@internal@g3@@UEAAXU?$MoveOnCopy@ULogMessage@g3@@@7@@Z@@std@@YAPEAV?$_Func_impl_no_alloc@V<lambda_1>@?1??send@?$Sink@Ulog_sink@logger@big@@@internal@g3@@UEAAXU?$MoveOnCopy@ULogMessage@g3@@@5@@Z@X$$V@1@$$QEAV<lambda_1>@?1??send@?$Sink@Ulog_sink@logger@big@@@internal@g3@@UEAAXU?$MoveOnCopy@ULogMessage@g3@@@7@@Z@@Z@QEAA@XZ 0000000180019ef0 f i main.obj
 0001:00018f10       ?_Copy@?$_Func_impl_no_alloc@V<lambda_1>@?1??send@?$Sink@Ulog_sink@logger@big@@@internal@g3@@UEAAXU?$MoveOnCopy@ULogMessage@g3@@@5@@Z@X$$V@std@@EEBAPEAV?$_Func_base@X$$V@2@PEAX@Z 0000000180019f10 f i main.obj
 0001:00018f60       ??R?$_Func_class@XU?$MoveOnCopy@ULogMessage@g3@@@g3@@@std@@QEBAXU?$MoveOnCopy@ULogMessage@g3@@@g3@@@Z 0000000180019f60 f i main.obj
 0001:00018fb0       ?_Do_call@?$_Func_impl_no_alloc@V<lambda_1>@?1??send@?$Sink@Ulog_sink@logger@big@@@internal@g3@@UEAAXU?$MoveOnCopy@ULogMessage@g3@@@5@@Z@X$$V@std@@EEAAXXZ 0000000180019fb0 f i main.obj
 0001:00019010       ?_Target_type@?$_Func_impl_no_alloc@V<lambda_1>@?1??send@?$Sink@Ulog_sink@logger@big@@@internal@g3@@UEAAXU?$MoveOnCopy@ULogMessage@g3@@@5@@Z@X$$V@std@@EEBAAEBVtype_info@@XZ 000000018001a010 f i main.obj
 0001:00019020       ?_Delete_this@?$_Func_impl_no_alloc@V<lambda_1>@?1??send@?$Sink@Ulog_sink@logger@big@@@internal@g3@@UEAAXU?$MoveOnCopy@ULogMessage@g3@@@5@@Z@X$$V@std@@EEAAX_N@Z 000000018001a020 f i main.obj
 0001:00019060       ??$exchange@PEAX$$T@std@@YAPEAXAEAPEAX$$QEA$$T@Z 000000018001a060 f i main.obj
 0001:00019070       ??0?$MoveOnCopy@ULogMessage@g3@@@g3@@QEAA@$$QEAU01@@Z 000000018001a070 f i main.obj
 0001:00019070       ??0?$MoveOnCopy@ULogMessage@g3@@@g3@@QEAA@AEBU01@@Z 000000018001a070 f i main.obj
 0001:00019090       ??1<lambda_1>@?1??send@?$Sink@Ulog_sink@logger@big@@@internal@g3@@UEAAXU?$MoveOnCopy@ULogMessage@g3@@@4@@Z@QEAA@XZ 000000018001a090 f i main.obj
 0001:000190a0       ?send@?$Sink@Ulog_sink@logger@big@@@internal@g3@@UEAAXU?$MoveOnCopy@ULogMessage@g3@@@3@@Z 000000018001a0a0 f i main.obj
 0001:00019190       ??0mutex@std@@QEAA@XZ      000000018001a190 f i main.obj
 0001:000191b0       ??0condition_variable@std@@QEAA@XZ 000000018001a1b0 f i main.obj
 0001:000191d0       ??1?$unique_ptr@V?$tuple@P8Active@kjellkod@@EAAXXZPEAV12@@std@@U?$default_delete@V?$tuple@P8Active@kjellkod@@EAAXXZPEAV12@@std@@@2@@std@@QEAA@XZ 000000018001a1d0 f i main.obj
 0001:000191d0       ??1?$unique_ptr@V?$tuple@P8thread_pool@big@@EAAXXZPEAV12@@std@@U?$default_delete@V?$tuple@P8thread_pool@big@@EAAXXZPEAV12@@std@@@2@@std@@QEAA@XZ 000000018001a1d0 f i thread_pool.obj
 0001:000191f0       ??$_Invoke@V?$tuple@P8Active@kjellkod@@EAAXXZPEAV12@@std@@$0A@$00@thread@std@@CAIPEAX@Z 000000018001a1f0 f i main.obj
 0001:000191f0       ??$_Invoke@V?$tuple@P8thread_pool@big@@EAAXXZPEAV12@@std@@$0A@$00@thread@std@@CAIPEAX@Z 000000018001a1f0 f i thread_pool.obj
 0001:00019220       ??0?$unique_lock@Vmutex@std@@@std@@QEAA@AEAVmutex@1@@Z 000000018001a220 f i main.obj
 0001:00019260       ?wait@condition_variable@std@@QEAAXAEAV?$unique_lock@Vmutex@std@@@2@@Z 000000018001a260 f i main.obj
 0001:00019270       ?run@Active@kjellkod@@AEAAXXZ 000000018001a270 f i main.obj
 0001:00019420       ?createActive@Active@kjellkod@@SA?AV?$unique_ptr@VActive@kjellkod@@U?$default_delete@VActive@kjellkod@@@std@@@std@@XZ 000000018001a420 f i main.obj
 0001:00019560       ??_EActive@kjellkod@@UEAAPEAXI@Z 000000018001a560 f i * CIL library *:* CIL module *
 0001:00019560       ??_GActive@kjellkod@@UEAAPEAXI@Z 000000018001a560 f i main.obj
 0001:00019660       ??1condition_variable@std@@QEAA@XZ 000000018001a660 f i main.obj
 0001:00019670       ??1thread@std@@QEAA@XZ     000000018001a670 f i main.obj
 0001:00019690       ??0?$lock_guard@Vmutex@std@@@std@@QEAA@AEAVmutex@1@@Z 000000018001a690 f i main.obj
 0001:000196c0       ??0?$function@$$A6AXXZ@std@@QEAA@AEBV01@@Z 000000018001a6c0 f i main.obj
 0001:00019700       ?send@Active@kjellkod@@QEAAXV?$function@$$A6AXXZ@std@@@Z 000000018001a700 f i main.obj
 0001:000197d0       ?_Copy@?$_Func_impl_no_alloc@V<lambda_1>@?1???1Active@kjellkod@@UEAA@XZ@X$$V@std@@EEBAPEAV?$_Func_base@X$$V@2@PEAX@Z 000000018001a7d0 f i main.obj
 0001:000197d0       ?_Move@?$_Func_impl_no_alloc@V<lambda_1>@?1???1Active@kjellkod@@UEAA@XZ@X$$V@std@@EEAAPEAV?$_Func_base@X$$V@2@PEAX@Z 000000018001a7d0 f i main.obj
 0001:000197f0       ?_Do_call@?$_Func_impl_no_alloc@V<lambda_1>@?1???1Active@kjellkod@@UEAA@XZ@X$$V@std@@EEAAXXZ 000000018001a7f0 f i main.obj
 0001:00019800       ?_Target_type@?$_Func_impl_no_alloc@V<lambda_1>@?1???1Active@kjellkod@@UEAA@XZ@X$$V@std@@EEBAAEBVtype_info@@XZ 000000018001a800 f i main.obj
 0001:00019810       ?_Delete_this@?$_Func_impl_no_alloc@V<lambda_1>@?1???1Active@kjellkod@@UEAA@XZ@X$$V@std@@EEAAX_N@Z 000000018001a810 f i main.obj
 0001:00019820       ??1?$unique_ptr@VActive@kjellkod@@U?$default_delete@VActive@kjellkod@@@std@@@std@@QEAA@XZ 000000018001a820 f i main.obj
 0001:00019820       ??1?$unique_ptr@V_Facet_base@std@@U?$default_delete@V_Facet_base@std@@@2@@std@@QEAA@XZ 000000018001a820 f i main.obj
 0001:00019840       ??0?$tuple@U?$_Ph@$00@std@@@std@@QEAA@$$QEAV01@@Z 000000018001a840 f i main.obj
 0001:00019840       ??0?$tuple@U?$_Ph@$00@std@@@std@@QEAA@AEBV01@@Z 000000018001a840 f i main.obj
 0001:00019850       ?_Copy@?$_Func_impl_no_alloc@V?$_Binder@U_Unforced@std@@AEAP8log_sink@logger@big@@EAAXU?$MoveOnCopy@ULogMessage@g3@@@g3@@@ZPEAU345@AEBU?$_Ph@$00@2@@std@@XU?$MoveOnCopy@ULogMessage@g3@@@g3@@@std@@EEBAPEAV?$_Func_base@XU?$MoveOnCopy@ULogMessage@g3@@@g3@@@2@PEAX@Z 000000018001a850 f i main.obj
 0001:00019850       ?_Move@?$_Func_impl_no_alloc@V?$_Binder@U_Unforced@std@@AEAP8log_sink@logger@big@@EAAXU?$MoveOnCopy@ULogMessage@g3@@@g3@@@ZPEAU345@AEBU?$_Ph@$00@2@@std@@XU?$MoveOnCopy@ULogMessage@g3@@@g3@@@std@@EEAAPEAV?$_Func_base@XU?$MoveOnCopy@ULogMessage@g3@@@g3@@@2@PEAX@Z 000000018001a850 f i main.obj
 0001:00019880       ??$_Fix_arg@U?$_Ph@$00@std@@V?$tuple@$$QEAU?$MoveOnCopy@ULogMessage@g3@@@g3@@@2@@std@@YA$$QEAU?$MoveOnCopy@ULogMessage@g3@@@g3@@AEAU?$_Ph@$00@0@$$QEAV?$tuple@$$QEAU?$MoveOnCopy@ULogMessage@g3@@@g3@@@0@@Z 000000018001a880 f i main.obj
 0001:00019890       ?_Do_call@?$_Func_impl_no_alloc@V?$_Binder@U_Unforced@std@@AEAP8log_sink@logger@big@@EAAXU?$MoveOnCopy@ULogMessage@g3@@@g3@@@ZPEAU345@AEBU?$_Ph@$00@2@@std@@XU?$MoveOnCopy@ULogMessage@g3@@@g3@@@std@@EEAAX$$QEAU?$MoveOnCopy@ULogMessage@g3@@@g3@@@Z 000000018001a890 f i main.obj
 0001:000198d0       ?_Target_type@?$_Func_impl_no_alloc@V?$_Binder@U_Unforced@std@@AEAP8log_sink@logger@big@@EAAXU?$MoveOnCopy@ULogMessage@g3@@@g3@@@ZPEAU345@AEBU?$_Ph@$00@2@@std@@XU?$MoveOnCopy@ULogMessage@g3@@@g3@@@std@@EEBAAEBVtype_info@@XZ 000000018001a8d0 f i main.obj
 0001:000198e0       ?_Delete_this@?$_Func_impl_no_alloc@V?$_Binder@U_Unforced@std@@AEAP8log_sink@logger@big@@EAAXU?$MoveOnCopy@ULogMessage@g3@@@g3@@@ZPEAU345@AEBU?$_Ph@$00@2@@std@@XU?$MoveOnCopy@ULogMessage@g3@@@g3@@@std@@EEAAX_N@Z 000000018001a8e0 f i main.obj
 0001:000198f0       ??$?0P8log_sink@logger@big@@EAAXU?$MoveOnCopy@ULogMessage@g3@@@g3@@@Z@?$Sink@Ulog_sink@logger@big@@@internal@g3@@QEAA@V?$unique_ptr@Ulog_sink@logger@big@@U?$default_delete@Ulog_sink@logger@big@@@std@@@std@@P8log_sink@logger@big@@EAAXU?$MoveOnCopy@ULogMessage@g3@@@2@@Z@Z 000000018001a8f0 f i main.obj
 0001:00019990       ??0?$_Ptr_base@USinkWrapper@internal@g3@@@std@@IEAA@XZ 000000018001a990 f i main.obj
 0001:000199a0       ?_Incwref@_Ref_count_base@std@@QEAAXXZ 000000018001a9a0 f i main.obj
 0001:000199b0       ?_Incref@_Ref_count_base@std@@QEAAXXZ 000000018001a9b0 f i main.obj
 0001:000199c0       ??$addSink@Ulog_sink@logger@big@@P8123@EAAXU?$MoveOnCopy@ULogMessage@g3@@@g3@@@Z@LogWorker@g3@@QEAA?AV?$unique_ptr@V?$SinkHandle@Ulog_sink@logger@big@@@g3@@U?$default_delete@V?$SinkHandle@Ulog_sink@logger@big@@@g3@@@std@@@std@@V?$unique_ptr@Ulog_sink@logger@big@@U?$default_delete@Ulog_sink@logger@big@@@std@@@3@P8log_sink@logger@big@@EAAXU?$MoveOnCopy@ULogMessage@g3@@@1@@Z@Z 000000018001a9c0 f i main.obj
 0001:00019b50       ??1?$MoveOnCopy@ULogMessage@g3@@@g3@@QEAA@XZ 000000018001ab50 f i main.obj
 0001:00019b60       ??_ELogMessage@g3@@UEAAPEAXI@Z 000000018001ab60 f i * CIL library *:* CIL module *
 0001:00019b60       ??_GLogMessage@g3@@UEAAPEAXI@Z 000000018001ab60 f i main.obj
 0001:00019ba0       ??1LogMessage@g3@@UEAA@XZ  000000018001aba0 f i main.obj
 0001:00019dc0       ??$_Try_emplace@AEBV?$basic_string@DU?$char_traits@D@std@@V?$allocator@D@2@@std@@$$V@?$map@V?$basic_string@DU?$char_traits@D@std@@V?$allocator@D@2@@std@@W4log_color@big@@U?$less@V?$basic_string@DU?$char_traits@D@std@@V?$allocator@D@2@@std@@@2@V?$allocator@U?$pair@$$CBV?$basic_string@DU?$char_traits@D@std@@V?$allocator@D@2@@std@@W4log_color@big@@@std@@@2@@std@@AEAA?AU?$pair@PEAU?$_Tree_node@U?$pair@$$CBV?$basic_string@DU?$char_traits@D@std@@V?$allocator@D@2@@std@@W4log_color@big@@@std@@PEAX@std@@_N@1@AEBV?$basic_string@DU?$char_traits@D@std@@V?$allocator@D@2@@1@@Z 000000018001adc0 f i main.obj
 0001:00019f60       ?format_console@log_sink@logger@big@@SA?AV?$basic_string@DU?$char_traits@D@std@@V?$allocator@D@2@@std@@AEBULogMessage@g3@@@Z 000000018001af60 f i main.obj
 0001:0001a1a0       ?format_raw@log_sink@logger@big@@SA?AV?$basic_string@DU?$char_traits@D@std@@V?$allocator@D@2@@std@@AEBULogMessage@g3@@@Z 000000018001b1a0 f i main.obj
 0001:0001a1d0       ??0?$basic_string@DU?$char_traits@D@std@@V?$allocator@D@2@@std@@QEAA@U_String_constructor_concat_tag@1@AEAV01@1@Z 000000018001b1d0 f i main.obj
 0001:0001a3d0       ??$?HDU?$char_traits@D@std@@V?$allocator@D@1@@std@@YA?AV?$basic_string@DU?$char_traits@D@std@@V?$allocator@D@2@@0@$$QEAV10@0@Z 000000018001b3d0 f i main.obj
 0001:0001a400       ?line@LogMessage@g3@@QEBA?AV?$basic_string@DU?$char_traits@D@std@@V?$allocator@D@2@@std@@XZ 000000018001b400 f i main.obj
 0001:0001a420       ??$?HDU?$char_traits@D@std@@V?$allocator@D@1@@std@@YA?AV?$basic_string@DU?$char_traits@D@std@@V?$allocator@D@2@@0@$$QEAV10@QEBD@Z 000000018001b420 f i main.obj
 0001:0001a490       ??$_Reallocate_grow_by@V<lambda_1>@?1??insert@?$basic_string@DU?$char_traits@D@std@@V?$allocator@D@2@@std@@QEAAAEAV34@_KQEBD0@Z@_KPEBD_K@?$basic_string@DU?$char_traits@D@std@@V?$allocator@D@2@@std@@AEAAAEAV01@_KV<lambda_1>@?1??insert@01@QEAAAEAV01@0QEBD0@Z@_KPEBD3@Z 000000018001b490 f i main.obj
 0001:0001a640       ?insert@?$basic_string@DU?$char_traits@D@std@@V?$allocator@D@2@@std@@QEAAAEAV12@_KQEBD0@Z 000000018001b640 f i main.obj
 0001:0001a730       ??$?HDU?$char_traits@D@std@@V?$allocator@D@1@@std@@YA?AV?$basic_string@DU?$char_traits@D@std@@V?$allocator@D@2@@0@QEBD$$QEAV10@@Z 000000018001b730 f i main.obj
 0001:0001a860       ?file@LogMessage@g3@@QEBA?AV?$basic_string@DU?$char_traits@D@std@@V?$allocator@D@2@@std@@XZ 000000018001b860 f i main.obj
 0001:0001a880       ??0?$basic_stringbuf@DU?$char_traits@D@std@@V?$allocator@D@2@@std@@QEAA@H@Z 000000018001b880 f i main.obj
 0001:0001a8f0       ??0?$basic_stringstream@DU?$char_traits@D@std@@V?$allocator@D@2@@std@@QEAA@XZ 000000018001b8f0 f i main.obj
 0001:0001a9b0       ??_E?$basic_stringstream@DU?$char_traits@D@std@@V?$allocator@D@2@@std@@UEAAPEAXI@Z 000000018001b9b0 f i * CIL library *:* CIL module *
 0001:0001a9b0       ??_G?$basic_stringstream@DU?$char_traits@D@std@@V?$allocator@D@2@@std@@UEAAPEAXI@Z 000000018001b9b0 f i main.obj
 0001:0001aa44       ??_E?$basic_stringstream@DU?$char_traits@D@std@@V?$allocator@D@2@@std@@$4PPPPPPPM@A@EAAPEAXI@Z 000000018001ba44 f i main.obj
 0001:0001aa50       ??_E?$basic_stringbuf@DU?$char_traits@D@std@@V?$allocator@D@2@@std@@UEAAPEAXI@Z 000000018001ba50 f i * CIL library *:* CIL module *
 0001:0001aa50       ??_G?$basic_stringbuf@DU?$char_traits@D@std@@V?$allocator@D@2@@std@@UEAAPEAXI@Z 000000018001ba50 f i main.obj
 0001:0001aa90       ?overflow@?$basic_stringbuf@DU?$char_traits@D@std@@V?$allocator@D@2@@std@@MEAAHH@Z 000000018001ba90 f i main.obj
 0001:0001aca0       ?pbackfail@?$basic_stringbuf@DU?$char_traits@D@std@@V?$allocator@D@2@@std@@MEAAHH@Z 000000018001bca0 f i main.obj
 0001:0001ad00       ?underflow@?$basic_stringbuf@DU?$char_traits@D@std@@V?$allocator@D@2@@std@@MEAAHXZ 000000018001bd00 f i main.obj
 0001:0001ad70       ?seekoff@?$basic_stringbuf@DU?$char_traits@D@std@@V?$allocator@D@2@@std@@MEAA?AV?$fpos@U_Mbstatet@@@2@_JHH@Z 000000018001bd70 f i main.obj
 0001:0001aee0       ?seekpos@?$basic_stringbuf@DU?$char_traits@D@std@@V?$allocator@D@2@@std@@MEAA?AV?$fpos@U_Mbstatet@@@2@V32@H@Z 000000018001bee0 f i main.obj
 0001:0001afe0       ?_Tidy@?$basic_stringbuf@DU?$char_traits@D@std@@V?$allocator@D@2@@std@@IEAAXXZ 000000018001bfe0 f i main.obj
 0001:0001b090       ??1?$basic_stringbuf@DU?$char_traits@D@std@@V?$allocator@D@2@@std@@UEAA@XZ 000000018001c090 f i main.obj
 0001:0001b150       ??_D?$basic_stringstream@DU?$char_traits@D@std@@V?$allocator@D@2@@std@@QEAAXXZ 000000018001c150 f i main.obj
 0001:0001b1b0       ?level@LogMessage@g3@@QEBA?AV?$basic_string@DU?$char_traits@D@std@@V?$allocator@D@2@@std@@XZ 000000018001c1b0 f i main.obj
 0001:0001b1e0       ?left@std@@YAAEAVios_base@1@AEAV21@@Z 000000018001c1e0 f i main.obj
 0001:0001b200       ?assign@?$basic_string@DU?$char_traits@D@std@@V?$allocator@D@2@@std@@QEAAAEAV12@QEBD_K@Z 000000018001c200 f i main.obj
 0001:0001b370       ?str@?$basic_stringbuf@DU?$char_traits@D@std@@V?$allocator@D@2@@std@@QEGBA?AV?$basic_string@DU?$char_traits@D@std@@V?$allocator@D@2@@2@XZ 000000018001c370 f i main.obj
 0001:0001b420       ?str@?$basic_stringstream@DU?$char_traits@D@std@@V?$allocator@D@2@@std@@QEGBA?AV?$basic_string@DU?$char_traits@D@std@@V?$allocator@D@2@@2@XZ 000000018001c420 f i main.obj
 0001:0001b4f0       ?format_file@log_sink@logger@big@@SA?AV?$basic_string@DU?$char_traits@D@std@@V?$allocator@D@2@@std@@AEBULogMessage@g3@@@Z 000000018001c4f0 f i main.obj
 0001:0001bc30       ??$flush@DU?$char_traits@D@std@@@std@@YAAEAV?$basic_ostream@DU?$char_traits@D@std@@@0@AEAV10@@Z 000000018001cc30 f i main.obj
 0001:0001bc50       ?callback@log_sink@logger@big@@QEAAXU?$MoveOnCopy@ULogMessage@g3@@@g3@@@Z 000000018001cc50 f i main.obj
 0001:0001bef0       ??$?RAEBV?$basic_string@DU?$char_traits@D@std@@V?$allocator@D@2@@std@@AEBV01@@?$less@X@std@@QEBA_NAEBV?$basic_string@DU?$char_traits@D@std@@V?$allocator@D@2@@1@0@Z 000000018001cef0 f i main.obj
 0001:0001bef0       ??R?$less@V?$basic_string@DU?$char_traits@D@std@@V?$allocator@D@2@@std@@@std@@QEBA_NAEBV?$basic_string@DU?$char_traits@D@std@@V?$allocator@D@2@@1@0@Z 000000018001cef0 f i main.obj
 0001:0001bf70       ??$_Find_hint@V?$basic_string@DU?$char_traits@D@std@@V?$allocator@D@2@@std@@@?$_Tree@V?$_Tmap_traits@V?$basic_string@DU?$char_traits@D@std@@V?$allocator@D@2@@std@@W4log_color@big@@U?$less@V?$basic_string@DU?$char_traits@D@std@@V?$allocator@D@2@@std@@@2@V?$allocator@U?$pair@$$CBV?$basic_string@DU?$char_traits@D@std@@V?$allocator@D@2@@std@@W4log_color@big@@@std@@@2@$0A@@std@@@std@@IEBA?AU?$_Tree_find_hint_result@PEAU?$_Tree_node@U?$pair@$$CBV?$basic_string@DU?$char_traits@D@std@@V?$allocator@D@2@@std@@W4log_color@big@@@std@@PEAX@std@@@1@QEAU?$_Tree_node@U?$pair@$$CBV?$basic_string@DU?$char_traits@D@std@@V?$allocator@D@2@@std@@W4log_color@big@@@std@@PEAX@1@AEBV?$basic_string@DU?$char_traits@D@std@@V?$allocator@D@2@@1@@Z 000000018001cf70 f i main.obj
 0001:0001c3c0       ?_Throw_tree_length_error@std@@YAXXZ 000000018001d3c0 f i main.obj
 0001:0001c3e0       ??$_Get_size_of_n@$0EI@@std@@YA_K_K@Z 000000018001d3e0 f i main.obj
 0001:0001c410       ??1?$_Alloc_construct_ptr@V?$allocator@U?$_Tree_node@U?$pair@$$CBV?$basic_string@DU?$char_traits@D@std@@V?$allocator@D@2@@std@@W4log_color@big@@@std@@PEAX@std@@@std@@@std@@QEAA@XZ 000000018001d410 f i main.obj
 0001:0001c410       ??1?$_Tree_temp_node_alloc@V?$allocator@U?$_Tree_node@U?$pair@$$CBV?$basic_string@DU?$char_traits@D@std@@V?$allocator@D@2@@std@@W4log_color@big@@@std@@PEAX@std@@@std@@@std@@QEAA@XZ 000000018001d410 f i main.obj
 0001:0001c430       ??0log_sink@logger@big@@QEAA@XZ 000000018001d430 f i main.obj
 0001:0001c680       ??$_Erase_tree@V?$allocator@U?$_Tree_node@U?$pair@$$CBV?$basic_string@DU?$char_traits@D@std@@V?$allocator@D@2@@std@@W4log_color@big@@@std@@PEAX@std@@@std@@@?$_Tree_val@U?$_Tree_simple_types@U?$pair@$$CBV?$basic_string@DU?$char_traits@D@std@@V?$allocator@D@2@@std@@W4log_color@big@@@std@@@std@@@std@@QEAAXAEAV?$allocator@U?$_Tree_node@U?$pair@$$CBV?$basic_string@DU?$char_traits@D@std@@V?$allocator@D@2@@std@@W4log_color@big@@@std@@PEAX@std@@@1@PEAU?$_Tree_node@U?$pair@$$CBV?$basic_string@DU?$char_traits@D@std@@V?$allocator@D@2@@std@@W4log_color@big@@@std@@PEAX@1@@Z 000000018001d680 f i main.obj
 0001:0001c740       ??1?$_Tree@V?$_Tmap_traits@V?$basic_string@DU?$char_traits@D@std@@V?$allocator@D@2@@std@@W4log_color@big@@U?$less@V?$basic_string@DU?$char_traits@D@std@@V?$allocator@D@2@@std@@@2@V?$allocator@U?$pair@$$CBV?$basic_string@DU?$char_traits@D@std@@V?$allocator@D@2@@std@@W4log_color@big@@@std@@@2@$0A@@std@@@std@@QEAA@XZ 000000018001d740 f i main.obj
 0001:0001c740       ??1?$map@V?$basic_string@DU?$char_traits@D@std@@V?$allocator@D@2@@std@@W4log_color@big@@U?$less@V?$basic_string@DU?$char_traits@D@std@@V?$allocator@D@2@@std@@@2@V?$allocator@U?$pair@$$CBV?$basic_string@DU?$char_traits@D@std@@V?$allocator@D@2@@std@@W4log_color@big@@@std@@@2@@std@@QEAA@XZ 000000018001d740 f i main.obj
 0001:0001c770       ??1?$unique_ptr@Ulog_sink@logger@big@@U?$default_delete@Ulog_sink@logger@big@@@std@@@std@@QEAA@XZ 000000018001d770 f i main.obj
 0001:0001c7c0       ?what@filesystem_error@filesystem@std@@UEBAPEBDXZ 000000018001d7c0 f i main.obj
 0001:0001c7d0       ??0logger@big@@QEAA@XZ     000000018001d7d0 f i main.obj
 0001:0001d720       ?now@steady_clock@chrono@std@@SA?AV?$time_point@Usteady_clock@chrono@std@@V?$duration@_JU?$ratio@$00$0DLJKMKAA@@std@@@23@@23@XZ 000000018001e720 f i main.obj
 0001:0001d790       ?clear@?$basic_string@DU?$char_traits@D@std@@V?$allocator@D@2@@std@@QEAAXXZ 000000018001e790 f i main.obj
 0001:0001d7c0       ??$_Emplace_reallocate@D@?$vector@DV?$allocator@D@std@@@std@@AEAAPEADQEAD$$QEAD@Z 000000018001e7c0 f i main.obj
 0001:0001d940       ??A?$basic_string@DU?$char_traits@D@std@@V?$allocator@D@2@@std@@QEAAAEAD_K@Z 000000018001e940 f i main.obj
 0001:0001d960       ?_Decref@_Ref_count_base@std@@QEAAXXZ 000000018001e960 f i main.obj
 0001:0001d9b0       ?token_type_name@?$lexer_base@V?$basic_json@Vmap@std@@Vvector@2@V?$basic_string@DU?$char_traits@D@std@@V?$allocator@D@2@@2@_N_J_KNVallocator@2@Uadl_serializer@json_abi_v3_11_2@nlohmann@@V?$vector@EV?$allocator@E@std@@@2@@json_abi_v3_11_2@nlohmann@@@detail@json_abi_v3_11_2@nlohmann@@SAPEBDW4token_type@1234@@Z 000000018001e9b0 f i main.obj
 0001:0001daa0       __local_stdio_printf_options 000000018001eaa0 f i main.obj
 0001:0001dab0       snprintf                   000000018001eab0 f i main.obj
 0001:0001db10       ??1?$basic_string@_WU?$char_traits@_W@std@@V?$allocator@_W@2@@std@@QEAA@XZ 000000018001eb10 f i main.obj
 0001:0001db10       ??1path@filesystem@std@@QEAA@XZ 000000018001eb10 f i main.obj
 0001:0001db80       ??1?$unique_ptr@VLogWorker@g3@@U?$default_delete@VLogWorker@g3@@@std@@@std@@QEAA@XZ 000000018001eb80 f i main.obj
 0001:0001dbb0       ??1logger@big@@QEAA@XZ     000000018001ebb0 f i main.obj
 0001:0001de10       ??$?8DU?$char_traits@D@std@@V?$allocator@D@1@@std@@YA_NAEBV?$basic_string@DU?$char_traits@D@std@@V?$allocator@D@2@@0@0@Z 000000018001ee10 f i main.obj
 0001:0001de50       ??$_Find_lower_bound@V?$basic_string@DU?$char_traits@D@std@@V?$allocator@D@2@@std@@@?$_Tree@V?$_Tmap_traits@V?$basic_string@DU?$char_traits@D@std@@V?$allocator@D@2@@std@@V?$basic_json@Vmap@std@@Vvector@2@V?$basic_string@DU?$char_traits@D@std@@V?$allocator@D@2@@2@_N_J_KNVallocator@2@Uadl_serializer@json_abi_v3_11_2@nlohmann@@V?$vector@EV?$allocator@E@std@@@2@@json_abi_v3_11_2@nlohmann@@U?$less@X@2@V?$allocator@U?$pair@$$CBV?$basic_string@DU?$char_traits@D@std@@V?$allocator@D@2@@std@@V?$basic_json@Vmap@std@@Vvector@2@V?$basic_string@DU?$char_traits@D@std@@V?$allocator@D@2@@2@_N_J_KNVallocator@2@Uadl_serializer@json_abi_v3_11_2@nlohmann@@V?$vector@EV?$allocator@E@std@@@2@@json_abi_v3_11_2@nlohmann@@@std@@@2@$0A@@std@@@std@@IEBA?AU?$_Tree_find_result@PEAU?$_Tree_node@U?$pair@$$CBV?$basic_string@DU?$char_traits@D@std@@V?$allocator@D@2@@std@@V?$basic_json@Vmap@std@@Vvector@2@V?$basic_string@DU?$char_traits@D@std@@V?$allocator@D@2@@2@_N_J_KNVallocator@2@Uadl_serializer@json_abi_v3_11_2@nlohmann@@V?$vector@EV?$allocator@E@std@@@2@@json_abi_v3_11_2@nlohmann@@@std@@PEAX@std@@@1@AEBV?$basic_string@DU?$char_traits@D@std@@V?$allocator@D@2@@1@@Z 000000018001ee50 f i main.obj
 0001:0001df20       ?compare@?$_Narrow_char_traits@DH@std@@SAHQEBD0_K@Z 000000018001ef20 f i main.obj
 0001:0001df30       ??$_Lower_bound_duplicate@V?$basic_string@DU?$char_traits@D@std@@V?$allocator@D@2@@std@@@?$_Tree@V?$_Tmap_traits@V?$basic_string@DU?$char_traits@D@std@@V?$allocator@D@2@@std@@V?$basic_json@Vmap@std@@Vvector@2@V?$basic_string@DU?$char_traits@D@std@@V?$allocator@D@2@@2@_N_J_KNVallocator@2@Uadl_serializer@json_abi_v3_11_2@nlohmann@@V?$vector@EV?$allocator@E@std@@@2@@json_abi_v3_11_2@nlohmann@@U?$less@X@2@V?$allocator@U?$pair@$$CBV?$basic_string@DU?$char_traits@D@std@@V?$allocator@D@2@@std@@V?$basic_json@Vmap@std@@Vvector@2@V?$basic_string@DU?$char_traits@D@std@@V?$allocator@D@2@@2@_N_J_KNVallocator@2@Uadl_serializer@json_abi_v3_11_2@nlohmann@@V?$vector@EV?$allocator@E@std@@@2@@json_abi_v3_11_2@nlohmann@@@std@@@2@$0A@@std@@@std@@IEBA_NQEAU?$_Tree_node@U?$pair@$$CBV?$basic_string@DU?$char_traits@D@std@@V?$allocator@D@2@@std@@V?$basic_json@Vmap@std@@Vvector@2@V?$basic_string@DU?$char_traits@D@std@@V?$allocator@D@2@@2@_N_J_KNVallocator@2@Uadl_serializer@json_abi_v3_11_2@nlohmann@@V?$vector@EV?$allocator@E@std@@@2@@json_abi_v3_11_2@nlohmann@@@std@@PEAX@1@AEBV?$basic_string@DU?$char_traits@D@std@@V?$allocator@D@2@@1@@Z 000000018001ef30 f i main.obj
 0001:0001dfb0       ??0invalid_iterator@detail@json_abi_v3_11_2@nlohmann@@QEAA@AEBV0123@@Z 000000018001efb0 f i main.obj
 0001:0001dfe0       ?open@?$basic_filebuf@DU?$char_traits@D@std@@@std@@QEAAPEAV12@PEBDHH@Z 000000018001efe0 f i main.obj
 0001:0001e120       ??1?$json_sax_dom_parser@V?$basic_json@Vmap@std@@Vvector@2@V?$basic_string@DU?$char_traits@D@std@@V?$allocator@D@2@@2@_N_J_KNVallocator@2@Uadl_serializer@json_abi_v3_11_2@nlohmann@@V?$vector@EV?$allocator@E@std@@@2@@json_abi_v3_11_2@nlohmann@@@detail@json_abi_v3_11_2@nlohmann@@QEAA@XZ 000000018001f120 f i main.obj
 0001:0001e180       ??$concat@V?$basic_string@DU?$char_traits@D@std@@V?$allocator@D@2@@std@@V12@AEAY0M@$$CBDV12@AEAY02$$CBDV12@AEBV12@@detail@json_abi_v3_11_2@nlohmann@@YA?AV?$basic_string@DU?$char_traits@D@std@@V?$allocator@D@2@@std@@$$QEAV34@AEAY0M@$$CBD0AEAY02$$CBD0AEBV34@@Z 000000018001f180 f i main.obj
 0001:0001e2b0       ??$_UIntegral_to_buff@D_K@std@@YAPEADPEAD_K@Z 000000018001f2b0 f i main.obj
 0001:0001e2f0       ?to_string@std@@YA?AV?$basic_string@DU?$char_traits@D@std@@V?$allocator@D@2@@1@_K@Z 000000018001f2f0 f i main.obj
 0001:0001e380       ?position_string@parse_error@detail@json_abi_v3_11_2@nlohmann@@CA?AV?$basic_string@DU?$char_traits@D@std@@V?$allocator@D@2@@std@@AEBUposition_t@234@@Z 000000018001f380 f i main.obj
 0001:0001e5d0       ??$create@$$T$0A@@parse_error@detail@json_abi_v3_11_2@nlohmann@@SA?AV0123@HAEBUposition_t@123@AEBV?$basic_string@DU?$char_traits@D@std@@V?$allocator@D@2@@std@@$$T@Z 000000018001f5d0 f i main.obj
 0001:0001e880       ??_Eparse_error@detail@json_abi_v3_11_2@nlohmann@@UEAAPEAXI@Z 000000018001f880 f i * CIL library *:* CIL module *
 0001:0001e880       ??_Gparse_error@detail@json_abi_v3_11_2@nlohmann@@UEAAPEAXI@Z 000000018001f880 f i main.obj
 0001:0001e8e0       ??0parse_error@detail@json_abi_v3_11_2@nlohmann@@QEAA@AEBV0123@@Z 000000018001f8e0 f i main.obj
 0001:0001e920       ??1?$json_sax_dom_callback_parser@V?$basic_json@Vmap@std@@Vvector@2@V?$basic_string@DU?$char_traits@D@std@@V?$allocator@D@2@@2@_N_J_KNVallocator@2@Uadl_serializer@json_abi_v3_11_2@nlohmann@@V?$vector@EV?$allocator@E@std@@@2@@json_abi_v3_11_2@nlohmann@@@detail@json_abi_v3_11_2@nlohmann@@QEAA@XZ 000000018001f920 f i main.obj
 0001:0001ea60       ??1?$vector@PEAV?$basic_json@Vmap@std@@Vvector@2@V?$basic_string@DU?$char_traits@D@std@@V?$allocator@D@2@@2@_N_J_KNVallocator@2@Uadl_serializer@json_abi_v3_11_2@nlohmann@@V?$vector@EV?$allocator@E@std@@@2@@json_abi_v3_11_2@nlohmann@@V?$allocator@PEAV?$basic_json@Vmap@std@@Vvector@2@V?$basic_string@DU?$char_traits@D@std@@V?$allocator@D@2@@2@_N_J_KNVallocator@2@Uadl_serializer@json_abi_v3_11_2@nlohmann@@V?$vector@EV?$allocator@E@std@@@2@@json_abi_v3_11_2@nlohmann@@@std@@@std@@QEAA@XZ 000000018001fa60 f i main.obj
 0001:0001eac0       ??1?$vector@_NV?$allocator@_N@std@@@std@@QEAA@XZ 000000018001fac0 f i main.obj
 0001:0001eb20       ?_Xlen@?$vector@_NV?$allocator@_N@std@@@std@@QEBAXXZ 000000018001fb20 f i main.obj
 0001:0001eb40       ?deallocate@?$allocator@I@std@@QEAAXQEAI_K@Z 000000018001fb40 f i main.obj
 0001:0001eb90       ??$_Resize_reallocate@I@?$vector@IV?$allocator@I@std@@@std@@AEAAX_KAEBI@Z 000000018001fb90 f i main.obj
 0001:0001ed20       ?_Insert_x@?$vector@_NV?$allocator@_N@std@@@std@@QEAA_KV?$_Vb_const_iterator@U?$_Wrap_alloc@V?$allocator@I@std@@@std@@@2@_K@Z 000000018001fd20 f i main.obj
 0001:0001ef30       ?_Insert_n@?$vector@_NV?$allocator@_N@std@@@std@@QEAA?AV?$_Vb_iterator@U?$_Wrap_alloc@V?$allocator@I@std@@@std@@@2@V?$_Vb_const_iterator@U?$_Wrap_alloc@V?$allocator@I@std@@@std@@@2@_KAEB_N@Z 000000018001ff30 f i main.obj
 0001:0001f0b0       ??0?$json_sax_dom_callback_parser@V?$basic_json@Vmap@std@@Vvector@2@V?$basic_string@DU?$char_traits@D@std@@V?$allocator@D@2@@2@_N_J_KNVallocator@2@Uadl_serializer@json_abi_v3_11_2@nlohmann@@V?$vector@EV?$allocator@E@std@@@2@@json_abi_v3_11_2@nlohmann@@@detail@json_abi_v3_11_2@nlohmann@@QEAA@AEAV?$basic_json@Vmap@std@@Vvector@2@V?$basic_string@DU?$char_traits@D@std@@V?$allocator@D@2@@2@_N_J_KNVallocator@2@Uadl_serializer@json_abi_v3_11_2@nlohmann@@V?$vector@EV?$allocator@E@std@@@2@@23@V?$function@$$A6A_NHW4parse_event_t@detail@json_abi_v3_11_2@nlohmann@@AEAV?$basic_json@Vmap@std@@Vvector@2@V?$basic_string@DU?$char_traits@D@std@@V?$allocator@D@2@@2@_N_J_KNVallocator@2@Uadl_serializer@json_abi_v3_11_2@nlohmann@@V?$vector@EV?$allocator@E@std@@@2@@34@@Z@std@@_N@Z 00000001800200b0 f i main.obj
 0001:0001f200       ??0?$basic_string@DU?$char_traits@D@std@@V?$allocator@D@2@@std@@QEAA@_KD@Z 0000000180020200 f i main.obj
 0001:0001f330       ?_Eos@?$basic_string@DU?$char_traits@D@std@@V?$allocator@D@2@@std@@AEAAX_K@Z 0000000180020330 f i main.obj
 0001:0001f350       ?assign@?$_Narrow_char_traits@DH@std@@SAPEADQEAD_KD@Z 0000000180020350 f i main.obj
 0001:0001f360       ??$_Reallocate_grow_by@V<lambda_1>@?1??append@?$basic_string@DU?$char_traits@D@std@@V?$allocator@D@2@@std@@QEAAAEAV34@_KD@Z@_KD@?$basic_string@DU?$char_traits@D@std@@V?$allocator@D@2@@std@@AEAAAEAV01@_KV<lambda_1>@?1??append@01@QEAAAEAV01@0D@Z@_KD@Z 0000000180020360 f i main.obj
 0001:0001f4f0       ?resize@?$basic_string@DU?$char_traits@D@std@@V?$allocator@D@2@@std@@QEAAX_KD@Z 00000001800204f0 f i main.obj
 0001:0001f590       ?size@?$basic_json@Vmap@std@@Vvector@2@V?$basic_string@DU?$char_traits@D@std@@V?$allocator@D@2@@2@_N_J_KNVallocator@2@Uadl_serializer@json_abi_v3_11_2@nlohmann@@V?$vector@EV?$allocator@E@std@@@2@@json_abi_v3_11_2@nlohmann@@QEBA_KXZ 0000000180020590 f i main.obj
 0001:0001f600       ??0type_error@detail@json_abi_v3_11_2@nlohmann@@QEAA@AEBV0123@@Z 0000000180020600 f i main.obj
 0001:0001f630       ?type_name@?$basic_json@Vmap@std@@Vvector@2@V?$basic_string@DU?$char_traits@D@std@@V?$allocator@D@2@@2@_N_J_KNVallocator@2@Uadl_serializer@json_abi_v3_11_2@nlohmann@@V?$vector@EV?$allocator@E@std@@@2@@json_abi_v3_11_2@nlohmann@@QEBAPEBDXZ 0000000180020630 f i main.obj
 0001:0001f6c0       ??1input_stream_adapter@detail@json_abi_v3_11_2@nlohmann@@QEAA@XZ 00000001800206c0 f i main.obj
 0001:0001f6f0       ??__Ks@chrono_literals@literals@std@@YA?AV?$duration@_JU?$ratio@$00$00@std@@@chrono@3@_K@Z 00000001800206f0 f i main.obj
 0001:0001f700       ??_E?$basic_ofstream@DU?$char_traits@D@std@@@std@@UEAAPEAXI@Z 0000000180020700 f i * CIL library *:* CIL module *
 0001:0001f700       ??_G?$basic_ofstream@DU?$char_traits@D@std@@@std@@UEAAPEAXI@Z 0000000180020700 f i main.obj
 0001:0001f798       ??_E?$basic_ofstream@DU?$char_traits@D@std@@@std@@$4PPPPPPPM@A@EAAPEAXI@Z 0000000180020798 f i main.obj
 0001:0001f7b0       ??_E?$basic_filebuf@DU?$char_traits@D@std@@@std@@UEAAPEAXI@Z 00000001800207b0 f i * CIL library *:* CIL module *
 0001:0001f7b0       ??_G?$basic_filebuf@DU?$char_traits@D@std@@@std@@UEAAPEAXI@Z 00000001800207b0 f i main.obj
 0001:0001f7f0       ?_Lock@?$basic_filebuf@DU?$char_traits@D@std@@@std@@UEAAXXZ 00000001800207f0 f i main.obj
 0001:0001f810       ?_Unlock@?$basic_filebuf@DU?$char_traits@D@std@@@std@@UEAAXXZ 0000000180020810 f i main.obj
 0001:0001f830       ?pbackfail@?$basic_filebuf@DU?$char_traits@D@std@@@std@@MEAAHH@Z 0000000180020830 f i main.obj
 0001:0001f920       ?underflow@?$basic_filebuf@DU?$char_traits@D@std@@@std@@MEAAHXZ 0000000180020920 f i main.obj
 0001:0001f990       ?_Check_offset@?$_String_val@U?$_Simple_types@D@std@@@std@@QEBAX_K@Z 0000000180020990 f i main.obj
 0001:0001f9b0       ?_Clamp_suffix_size@?$_String_val@U?$_Simple_types@D@std@@@std@@QEBA_K_K0@Z 00000001800209b0 f i main.obj
 0001:0001f9d0       ?_Erase_noexcept@?$basic_string@DU?$char_traits@D@std@@V?$allocator@D@2@@std@@AEAAAEAV12@_K_K@Z 00000001800209d0 f i main.obj
 0001:0001fa30       ?uflow@?$basic_filebuf@DU?$char_traits@D@std@@@std@@MEAAHXZ 0000000180020a30 f i main.obj
 0001:0001fd20       ?xsgetn@?$basic_filebuf@DU?$char_traits@D@std@@@std@@MEAA_JPEAD_J@Z 0000000180020d20 f i main.obj
 0001:0001fe80       ?xsputn@?$basic_filebuf@DU?$char_traits@D@std@@@std@@MEAA_JPEBD_J@Z 0000000180020e80 f i main.obj
 0001:0001ff50       ?seekoff@?$basic_filebuf@DU?$char_traits@D@std@@@std@@MEAA?AV?$fpos@U_Mbstatet@@@2@_JHH@Z 0000000180020f50 f i main.obj
 0001:00020040       ?seekpos@?$basic_filebuf@DU?$char_traits@D@std@@@std@@MEAA?AV?$fpos@U_Mbstatet@@@2@V32@H@Z 0000000180021040 f i main.obj
 0001:00020100       ?setbuf@?$basic_filebuf@DU?$char_traits@D@std@@@std@@MEAAPEAV?$basic_streambuf@DU?$char_traits@D@std@@@2@PEAD_J@Z 0000000180021100 f i main.obj
 0001:000201e0       ?sync@?$basic_filebuf@DU?$char_traits@D@std@@@std@@MEAAHXZ 00000001800211e0 f i main.obj
 0001:00020230       ?_Getfacet@locale@std@@QEBAPEBVfacet@12@_K@Z 0000000180021230 f i main.obj
 0001:000202a0       ??0bad_cast@std@@QEAA@XZ   00000001800212a0 f i main.obj
 0001:000202d0       ??0bad_cast@std@@QEAA@AEBV01@@Z 00000001800212d0 f i main.obj
 0001:00020310       ?_Throw_bad_cast@std@@YAXXZ 0000000180021310 f i main.obj
 0001:00020330       ?release@?$unique_ptr@V_Facet_base@std@@U?$default_delete@V_Facet_base@std@@@2@@std@@QEAAPEAV_Facet_base@2@XZ 0000000180021330 f i main.obj
 0001:00020340       ??$use_facet@V?$codecvt@DDU_Mbstatet@@@std@@@std@@YAAEBV?$codecvt@DDU_Mbstatet@@@0@AEBVlocale@0@@Z 0000000180021340 f i main.obj
 0001:00020430       ?imbue@?$basic_filebuf@DU?$char_traits@D@std@@@std@@MEAAXAEBVlocale@2@@Z 0000000180021430 f i main.obj
 0001:00020480       ??1locale@std@@QEAA@XZ     0000000180021480 f i main.obj
 0001:000204b0       ?overflow@?$basic_filebuf@DU?$char_traits@D@std@@@std@@MEAAHH@Z 00000001800214b0 f i main.obj
 0001:00020660       ?_Endwrite@?$basic_filebuf@DU?$char_traits@D@std@@@std@@IEAA_NXZ 0000000180021660 f i main.obj
 0001:00020750       ?close@?$basic_filebuf@DU?$char_traits@D@std@@@std@@QEAAPEAV12@XZ 0000000180021750 f i main.obj
 0001:00020800       ??1?$basic_filebuf@DU?$char_traits@D@std@@@std@@UEAA@XZ 0000000180021800 f i main.obj
 0001:00020870       ??_D?$basic_ofstream@DU?$char_traits@D@std@@@std@@QEAAXXZ 0000000180021870 f i main.obj
 0001:000208e0       ??1?$unique_ptr@V?$map@V?$basic_string@DU?$char_traits@D@std@@V?$allocator@D@2@@std@@V?$basic_json@Vmap@std@@Vvector@2@V?$basic_string@DU?$char_traits@D@std@@V?$allocator@D@2@@2@_N_J_KNVallocator@2@Uadl_serializer@json_abi_v3_11_2@nlohmann@@V?$vector@EV?$allocator@E@std@@@2@@json_abi_v3_11_2@nlohmann@@U?$less@X@2@V?$allocator@U?$pair@$$CBV?$basic_string@DU?$char_traits@D@std@@V?$allocator@D@2@@std@@V?$basic_json@Vmap@std@@Vvector@2@V?$basic_string@DU?$char_traits@D@std@@V?$allocator@D@2@@2@_N_J_KNVallocator@2@Uadl_serializer@json_abi_v3_11_2@nlohmann@@V?$vector@EV?$allocator@E@std@@@2@@json_abi_v3_11_2@nlohmann@@@std@@@2@@std@@V<lambda_1>@?1???$create@V?$map@V?$basic_string@DU?$char_traits@D@std@@V?$allocator@D@2@@std@@V?$basic_json@Vmap@std@@Vvector@2@V?$basic_string@DU?$char_traits@D@std@@V?$allocator@D@2@@2@_N_J_KNVallocator@2@Uadl_serializer@json_abi_v3_11_2@nlohmann@@V?$vector@EV?$allocator@E@std@@@2@@json_abi_v3_11_2@nlohmann@@U?$less@X@2@V?$allocator@U?$pair@$$CBV?$basic_string@DU?$char_traits@D@std@@V?$allocator@D@2@@std@@V?$basic_json@Vmap@std@@Vvector@2@V?$basic_string@DU?$char_traits@D@std@@V?$allocator@D@2@@2@_N_J_KNVallocator@2@Uadl_serializer@json_abi_v3_11_2@nlohmann@@V?$vector@EV?$allocator@E@std@@@2@@json_abi_v3_11_2@nlohmann@@@std@@@2@@std@@$$V@?$basic_json@Vmap@std@@Vvector@2@V?$basic_string@DU?$char_traits@D@std@@V?$allocator@D@2@@2@_N_J_KNVallocator@2@Uadl_serializer@json_abi_v3_11_2@nlohmann@@V?$vector@EV?$allocator@E@std@@@2@@json_abi_v3_11_2@nlohmann@@CAPEAV12@XZ@@std@@QEAA@XZ 00000001800218e0 f i main.obj
 0001:000208e0       ??1?$unique_ptr@V?$map@V?$basic_string@DU?$char_traits@D@std@@V?$allocator@D@2@@std@@V?$basic_json@Vmap@std@@Vvector@2@V?$basic_string@DU?$char_traits@D@std@@V?$allocator@D@2@@2@_N_J_KNVallocator@2@Uadl_serializer@json_abi_v3_11_2@nlohmann@@V?$vector@EV?$allocator@E@std@@@2@@json_abi_v3_11_2@nlohmann@@U?$less@X@2@V?$allocator@U?$pair@$$CBV?$basic_string@DU?$char_traits@D@std@@V?$allocator@D@2@@std@@V?$basic_json@Vmap@std@@Vvector@2@V?$basic_string@DU?$char_traits@D@std@@V?$allocator@D@2@@2@_N_J_KNVallocator@2@Uadl_serializer@json_abi_v3_11_2@nlohmann@@V?$vector@EV?$allocator@E@std@@@2@@json_abi_v3_11_2@nlohmann@@@std@@@2@@std@@V<lambda_1>@?1???$create@V?$map@V?$basic_string@DU?$char_traits@D@std@@V?$allocator@D@2@@std@@V?$basic_json@Vmap@std@@Vvector@2@V?$basic_string@DU?$char_traits@D@std@@V?$allocator@D@2@@2@_N_J_KNVallocator@2@Uadl_serializer@json_abi_v3_11_2@nlohmann@@V?$vector@EV?$allocator@E@std@@@2@@json_abi_v3_11_2@nlohmann@@U?$less@X@2@V?$allocator@U?$pair@$$CBV?$basic_string@DU?$char_traits@D@std@@V?$allocator@D@2@@std@@V?$basic_json@Vmap@std@@Vvector@2@V?$basic_string@DU?$char_traits@D@std@@V?$allocator@D@2@@2@_N_J_KNVallocator@2@Uadl_serializer@json_abi_v3_11_2@nlohmann@@V?$vector@EV?$allocator@E@std@@@2@@json_abi_v3_11_2@nlohmann@@@std@@@2@@std@@AEBV12@@?$basic_json@Vmap@std@@Vvector@2@V?$basic_string@DU?$char_traits@D@std@@V?$allocator@D@2@@2@_N_J_KNVallocator@2@Uadl_serializer@json_abi_v3_11_2@nlohmann@@V?$vector@EV?$allocator@E@std@@@2@@json_abi_v3_11_2@nlohmann@@CAPEAV12@AEBV12@@Z@@std@@QEAA@XZ 00000001800218e0 f i main.obj
 0001:00020900       ??1?$_Tree_head_scoped_ptr@V?$allocator@U?$_Tree_node@U?$pair@$$CBV?$basic_string@DU?$char_traits@D@std@@V?$allocator@D@2@@std@@V?$basic_json@Vmap@std@@Vvector@2@V?$basic_string@DU?$char_traits@D@std@@V?$allocator@D@2@@2@_N_J_KNVallocator@2@Uadl_serializer@json_abi_v3_11_2@nlohmann@@V?$vector@EV?$allocator@E@std@@@2@@json_abi_v3_11_2@nlohmann@@@std@@PEAX@std@@@std@@V?$_Tree_val@U?$_Tree_simple_types@U?$pair@$$CBV?$basic_string@DU?$char_traits@D@std@@V?$allocator@D@2@@std@@V?$basic_json@Vmap@std@@Vvector@2@V?$basic_string@DU?$char_traits@D@std@@V?$allocator@D@2@@2@_N_J_KNVallocator@2@Uadl_serializer@json_abi_v3_11_2@nlohmann@@V?$vector@EV?$allocator@E@std@@@2@@json_abi_v3_11_2@nlohmann@@@std@@@std@@@2@@std@@QEAA@XZ 0000000180021900 f i main.obj
 0001:00020920       ??$_Erase_tree@V?$allocator@U?$_Tree_node@U?$pair@$$CBV?$basic_string@DU?$char_traits@D@std@@V?$allocator@D@2@@std@@V?$basic_json@Vmap@std@@Vvector@2@V?$basic_string@DU?$char_traits@D@std@@V?$allocator@D@2@@2@_N_J_KNVallocator@2@Uadl_serializer@json_abi_v3_11_2@nlohmann@@V?$vector@EV?$allocator@E@std@@@2@@json_abi_v3_11_2@nlohmann@@@std@@PEAX@std@@@std@@@?$_Tree_val@U?$_Tree_simple_types@U?$pair@$$CBV?$basic_string@DU?$char_traits@D@std@@V?$allocator@D@2@@std@@V?$basic_json@Vmap@std@@Vvector@2@V?$basic_string@DU?$char_traits@D@std@@V?$allocator@D@2@@2@_N_J_KNVallocator@2@Uadl_serializer@json_abi_v3_11_2@nlohmann@@V?$vector@EV?$allocator@E@std@@@2@@json_abi_v3_11_2@nlohmann@@@std@@@std@@@std@@QEAAXAEAV?$allocator@U?$_Tree_node@U?$pair@$$CBV?$basic_string@DU?$char_traits@D@std@@V?$allocator@D@2@@std@@V?$basic_json@Vmap@std@@Vvector@2@V?$basic_string@DU?$char_traits@D@std@@V?$allocator@D@2@@2@_N_J_KNVallocator@2@Uadl_serializer@json_abi_v3_11_2@nlohmann@@V?$vector@EV?$allocator@E@std@@@2@@json_abi_v3_11_2@nlohmann@@@std@@PEAX@std@@@1@PEAU?$_Tree_node@U?$pair@$$CBV?$basic_string@DU?$char_traits@D@std@@V?$allocator@D@2@@std@@V?$basic_json@Vmap@std@@Vvector@2@V?$basic_string@DU?$char_traits@D@std@@V?$allocator@D@2@@2@_N_J_KNVallocator@2@Uadl_serializer@json_abi_v3_11_2@nlohmann@@V?$vector@EV?$allocator@E@std@@@2@@json_abi_v3_11_2@nlohmann@@@std@@PEAX@1@@Z 0000000180021920 f i main.obj
 0001:00020920       ??$_Erase_tree_and_orphan@V?$allocator@U?$_Tree_node@U?$pair@$$CBV?$basic_string@DU?$char_traits@D@std@@V?$allocator@D@2@@std@@V?$basic_json@Vmap@std@@Vvector@2@V?$basic_string@DU?$char_traits@D@std@@V?$allocator@D@2@@2@_N_J_KNVallocator@2@Uadl_serializer@json_abi_v3_11_2@nlohmann@@V?$vector@EV?$allocator@E@std@@@2@@json_abi_v3_11_2@nlohmann@@@std@@PEAX@std@@@std@@@?$_Tree_val@U?$_Tree_simple_types@U?$pair@$$CBV?$basic_string@DU?$char_traits@D@std@@V?$allocator@D@2@@std@@V?$basic_json@Vmap@std@@Vvector@2@V?$basic_string@DU?$char_traits@D@std@@V?$allocator@D@2@@2@_N_J_KNVallocator@2@Uadl_serializer@json_abi_v3_11_2@nlohmann@@V?$vector@EV?$allocator@E@std@@@2@@json_abi_v3_11_2@nlohmann@@@std@@@std@@@std@@QEAAXAEAV?$allocator@U?$_Tree_node@U?$pair@$$CBV?$basic_string@DU?$char_traits@D@std@@V?$allocator@D@2@@std@@V?$basic_json@Vmap@std@@Vvector@2@V?$basic_string@DU?$char_traits@D@std@@V?$allocator@D@2@@2@_N_J_KNVallocator@2@Uadl_serializer@json_abi_v3_11_2@nlohmann@@V?$vector@EV?$allocator@E@std@@@2@@json_abi_v3_11_2@nlohmann@@@std@@PEAX@std@@@1@PEAU?$_Tree_node@U?$pair@$$CBV?$basic_string@DU?$char_traits@D@std@@V?$allocator@D@2@@std@@V?$basic_json@Vmap@std@@Vvector@2@V?$basic_string@DU?$char_traits@D@std@@V?$allocator@D@2@@2@_N_J_KNVallocator@2@Uadl_serializer@json_abi_v3_11_2@nlohmann@@V?$vector@EV?$allocator@E@std@@@2@@json_abi_v3_11_2@nlohmann@@@std@@PEAX@1@@Z 0000000180021920 f i main.obj
 0001:000209a0       ??$_Copy_nodes@$0A@@?$_Tree@V?$_Tmap_traits@V?$basic_string@DU?$char_traits@D@std@@V?$allocator@D@2@@std@@V?$basic_json@Vmap@std@@Vvector@2@V?$basic_string@DU?$char_traits@D@std@@V?$allocator@D@2@@2@_N_J_KNVallocator@2@Uadl_serializer@json_abi_v3_11_2@nlohmann@@V?$vector@EV?$allocator@E@std@@@2@@json_abi_v3_11_2@nlohmann@@U?$less@X@2@V?$allocator@U?$pair@$$CBV?$basic_string@DU?$char_traits@D@std@@V?$allocator@D@2@@std@@V?$basic_json@Vmap@std@@Vvector@2@V?$basic_string@DU?$char_traits@D@std@@V?$allocator@D@2@@2@_N_J_KNVallocator@2@Uadl_serializer@json_abi_v3_11_2@nlohmann@@V?$vector@EV?$allocator@E@std@@@2@@json_abi_v3_11_2@nlohmann@@@std@@@2@$0A@@std@@@std@@IEAAPEAU?$_Tree_node@U?$pair@$$CBV?$basic_string@DU?$char_traits@D@std@@V?$allocator@D@2@@std@@V?$basic_json@Vmap@std@@Vvector@2@V?$basic_string@DU?$char_traits@D@std@@V?$allocator@D@2@@2@_N_J_KNVallocator@2@Uadl_serializer@json_abi_v3_11_2@nlohmann@@V?$vector@EV?$allocator@E@std@@@2@@json_abi_v3_11_2@nlohmann@@@std@@PEAX@1@PEAU21@0@Z 00000001800219a0 f i main.obj
 0001:00020a80       ??0?$map@V?$basic_string@DU?$char_traits@D@std@@V?$allocator@D@2@@std@@V?$basic_json@Vmap@std@@Vvector@2@V?$basic_string@DU?$char_traits@D@std@@V?$allocator@D@2@@2@_N_J_KNVallocator@2@Uadl_serializer@json_abi_v3_11_2@nlohmann@@V?$vector@EV?$allocator@E@std@@@2@@json_abi_v3_11_2@nlohmann@@U?$less@X@2@V?$allocator@U?$pair@$$CBV?$basic_string@DU?$char_traits@D@std@@V?$allocator@D@2@@std@@V?$basic_json@Vmap@std@@Vvector@2@V?$basic_string@DU?$char_traits@D@std@@V?$allocator@D@2@@2@_N_J_KNVallocator@2@Uadl_serializer@json_abi_v3_11_2@nlohmann@@V?$vector@EV?$allocator@E@std@@@2@@json_abi_v3_11_2@nlohmann@@@std@@@2@@std@@QEAA@AEBV01@@Z 0000000180021a80 f i main.obj
 0001:00020b50       ?_Buy_nonzero@?$vector@V?$basic_json@Vmap@std@@Vvector@2@V?$basic_string@DU?$char_traits@D@std@@V?$allocator@D@2@@2@_N_J_KNVallocator@2@Uadl_serializer@json_abi_v3_11_2@nlohmann@@V?$vector@EV?$allocator@E@std@@@2@@json_abi_v3_11_2@nlohmann@@V?$allocator@V?$basic_json@Vmap@std@@Vvector@2@V?$basic_string@DU?$char_traits@D@std@@V?$allocator@D@2@@2@_N_J_KNVallocator@2@Uadl_serializer@json_abi_v3_11_2@nlohmann@@V?$vector@EV?$allocator@E@std@@@2@@json_abi_v3_11_2@nlohmann@@@std@@@std@@AEAAX_K@Z 0000000180021b50 f i main.obj
 0001:00020be0       ??1?$_Tidy_guard@V?$vector@V?$basic_json@Vmap@std@@Vvector@2@V?$basic_string@DU?$char_traits@D@std@@V?$allocator@D@2@@2@_N_J_KNVallocator@2@Uadl_serializer@json_abi_v3_11_2@nlohmann@@V?$vector@EV?$allocator@E@std@@@2@@json_abi_v3_11_2@nlohmann@@V?$allocator@V?$basic_json@Vmap@std@@Vvector@2@V?$basic_string@DU?$char_traits@D@std@@V?$allocator@D@2@@2@_N_J_KNVallocator@2@Uadl_serializer@json_abi_v3_11_2@nlohmann@@V?$vector@EV?$allocator@E@std@@@2@@json_abi_v3_11_2@nlohmann@@@std@@@std@@@std@@QEAA@XZ 0000000180021be0 f i main.obj
 0001:00020bf0       ??0?$vector@V?$basic_json@Vmap@std@@Vvector@2@V?$basic_string@DU?$char_traits@D@std@@V?$allocator@D@2@@2@_N_J_KNVallocator@2@Uadl_serializer@json_abi_v3_11_2@nlohmann@@V?$vector@EV?$allocator@E@std@@@2@@json_abi_v3_11_2@nlohmann@@V?$allocator@V?$basic_json@Vmap@std@@Vvector@2@V?$basic_string@DU?$char_traits@D@std@@V?$allocator@D@2@@2@_N_J_KNVallocator@2@Uadl_serializer@json_abi_v3_11_2@nlohmann@@V?$vector@EV?$allocator@E@std@@@2@@json_abi_v3_11_2@nlohmann@@@std@@@std@@QEAA@AEBV01@@Z 0000000180021bf0 f i main.obj
 0001:00020c90       ??1?$unique_ptr@V?$byte_container_with_subtype@V?$vector@EV?$allocator@E@std@@@std@@@json_abi_v3_11_2@nlohmann@@V<lambda_1>@?1???$create@V?$byte_container_with_subtype@V?$vector@EV?$allocator@E@std@@@std@@@json_abi_v3_11_2@nlohmann@@AEBV123@@?$basic_json@Vmap@std@@Vvector@2@V?$basic_string@DU?$char_traits@D@std@@V?$allocator@D@2@@2@_N_J_KNVallocator@2@Uadl_serializer@json_abi_v3_11_2@nlohmann@@V?$vector@EV?$allocator@E@std@@@2@@23@CAPEAV123@AEBV123@@Z@@std@@QEAA@XZ 0000000180021c90 f i main.obj
 0001:00020cb0       ??0?$byte_container_with_subtype@V?$vector@EV?$allocator@E@std@@@std@@@json_abi_v3_11_2@nlohmann@@QEAA@AEBV012@@Z 0000000180021cb0 f i main.obj
 0001:00020da0       ??0?$basic_json@Vmap@std@@Vvector@2@V?$basic_string@DU?$char_traits@D@std@@V?$allocator@D@2@@2@_N_J_KNVallocator@2@Uadl_serializer@json_abi_v3_11_2@nlohmann@@V?$vector@EV?$allocator@E@std@@@2@@json_abi_v3_11_2@nlohmann@@QEAA@AEBV012@@Z 0000000180021da0 f i main.obj
 0001:00020f40       ??0?$basic_string@DU?$char_traits@D@std@@V?$allocator@D@2@@std@@QEAA@QEBD_K@Z 0000000180021f40 f i main.obj
 0001:00020f70       ??$concat@V?$basic_string@DU?$char_traits@D@std@@V?$allocator@D@2@@std@@V12@V12@AEBV12@@detail@json_abi_v3_11_2@nlohmann@@YA?AV?$basic_string@DU?$char_traits@D@std@@V?$allocator@D@2@@std@@$$QEAV34@0AEBV34@@Z 0000000180021f70 f i main.obj
 0001:00021040       ??0?$basic_string@DU?$char_traits@D@std@@V?$allocator@D@2@@std@@QEAA@XZ 0000000180022040 f i main.obj
 0001:00021060       ??$_Reallocate_grow_by@V<lambda_1>@?1??reserve@?$basic_string@DU?$char_traits@D@std@@V?$allocator@D@2@@std@@QEAAX_K@Z@$$V@?$basic_string@DU?$char_traits@D@std@@V?$allocator@D@2@@std@@AEAAAEAV01@_KV<lambda_1>@?1??reserve@01@QEAAX0@Z@@Z 0000000180022060 f i main.obj
 0001:000211b0       ??$_Reallocate_grow_by@V<lambda_1>@?1??push_back@?$basic_string@DU?$char_traits@D@std@@V?$allocator@D@2@@std@@QEAAXD@Z@D@?$basic_string@DU?$char_traits@D@std@@V?$allocator@D@2@@std@@AEAAAEAV01@_KV<lambda_1>@?1??push_back@01@QEAAXD@Z@D@Z 00000001800221b0 f i main.obj
 0001:00021320       ?push_back@?$basic_string@DU?$char_traits@D@std@@V?$allocator@D@2@@std@@QEAAXD@Z 0000000180022320 f i main.obj
 0001:00021360       ??$end@D$0BF@@std@@YAPEADAEAY0BF@D@Z 0000000180022360 f i main.obj
 0001:00021370       ??$?0PEAD$0A@@?$basic_string@DU?$char_traits@D@std@@V?$allocator@D@2@@std@@QEAA@PEAD0AEBV?$allocator@D@1@@Z 0000000180022370 f i main.obj
 0001:000214b0       ?to_string@std@@YA?AV?$basic_string@DU?$char_traits@D@std@@V?$allocator@D@2@@1@H@Z 00000001800224b0 f i main.obj
 0001:00021580       ?name@exception@detail@json_abi_v3_11_2@nlohmann@@KA?AV?$basic_string@DU?$char_traits@D@std@@V?$allocator@D@2@@std@@AEBV56@H@Z 0000000180022580 f i main.obj
 0001:00021700       ??0runtime_error@std@@QEAA@PEBD@Z 0000000180022700 f i main.obj
 0001:00021750       ??$create@$$T$0A@@other_error@detail@json_abi_v3_11_2@nlohmann@@SA?AV0123@HAEBV?$basic_string@DU?$char_traits@D@std@@V?$allocator@D@2@@std@@$$T@Z 0000000180022750 f i main.obj
 0001:00021990       ??0other_error@detail@json_abi_v3_11_2@nlohmann@@QEAA@AEBV0123@@Z 0000000180022990 f i main.obj
 0001:000219c0       ?what@exception@detail@json_abi_v3_11_2@nlohmann@@UEBAPEBDXZ 00000001800229c0 f i main.obj
 0001:000219e0       ??0exception@detail@json_abi_v3_11_2@nlohmann@@QEAA@AEBV0123@@Z 00000001800229e0 f i main.obj
 0001:00021a60       ??0json_value@?$basic_json@Vmap@std@@Vvector@2@V?$basic_string@DU?$char_traits@D@std@@V?$allocator@D@2@@2@_N_J_KNVallocator@2@Uadl_serializer@json_abi_v3_11_2@nlohmann@@V?$vector@EV?$allocator@E@std@@@2@@json_abi_v3_11_2@nlohmann@@QEAA@W4value_t@detail@23@@Z 0000000180022a60 f i main.obj
 0001:00021be0       ?_Reallocate_exactly@?$vector@V?$basic_json@Vmap@std@@Vvector@2@V?$basic_string@DU?$char_traits@D@std@@V?$allocator@D@2@@2@_N_J_KNVallocator@2@Uadl_serializer@json_abi_v3_11_2@nlohmann@@V?$vector@EV?$allocator@E@std@@@2@@json_abi_v3_11_2@nlohmann@@V?$allocator@V?$basic_json@Vmap@std@@Vvector@2@V?$basic_string@DU?$char_traits@D@std@@V?$allocator@D@2@@2@_N_J_KNVallocator@2@Uadl_serializer@json_abi_v3_11_2@nlohmann@@V?$vector@EV?$allocator@E@std@@@2@@json_abi_v3_11_2@nlohmann@@@std@@@std@@AEAAX_K@Z 0000000180022be0 f i main.obj
 0001:00021cd0       ??1?$_Uninitialized_backout_al@V?$allocator@V?$basic_json@Vmap@std@@Vvector@2@V?$basic_string@DU?$char_traits@D@std@@V?$allocator@D@2@@2@_N_J_KNVallocator@2@Uadl_serializer@json_abi_v3_11_2@nlohmann@@V?$vector@EV?$allocator@E@std@@@2@@json_abi_v3_11_2@nlohmann@@@std@@@std@@QEAA@XZ 0000000180022cd0 f i main.obj
 0001:00021d10       ?_Change_array@?$vector@V?$basic_json@Vmap@std@@Vvector@2@V?$basic_string@DU?$char_traits@D@std@@V?$allocator@D@2@@2@_N_J_KNVallocator@2@Uadl_serializer@json_abi_v3_11_2@nlohmann@@V?$vector@EV?$allocator@E@std@@@2@@json_abi_v3_11_2@nlohmann@@V?$allocator@V?$basic_json@Vmap@std@@Vvector@2@V?$basic_string@DU?$char_traits@D@std@@V?$allocator@D@2@@2@_N_J_KNVallocator@2@Uadl_serializer@json_abi_v3_11_2@nlohmann@@V?$vector@EV?$allocator@E@std@@@2@@json_abi_v3_11_2@nlohmann@@@std@@@std@@AEAAXQEAV?$basic_json@Vmap@std@@Vvector@2@V?$basic_string@DU?$char_traits@D@std@@V?$allocator@D@2@@2@_N_J_KNVallocator@2@Uadl_serializer@json_abi_v3_11_2@nlohmann@@V?$vector@EV?$allocator@E@std@@@2@@json_abi_v3_11_2@nlohmann@@_K1@Z 0000000180022d10 f i main.obj
 0001:00021dd0       ??$_Emplace_reallocate@V?$basic_json@Vmap@std@@Vvector@2@V?$basic_string@DU?$char_traits@D@std@@V?$allocator@D@2@@2@_N_J_KNVallocator@2@Uadl_serializer@json_abi_v3_11_2@nlohmann@@V?$vector@EV?$allocator@E@std@@@2@@json_abi_v3_11_2@nlohmann@@@?$vector@V?$basic_json@Vmap@std@@Vvector@2@V?$basic_string@DU?$char_traits@D@std@@V?$allocator@D@2@@2@_N_J_KNVallocator@2@Uadl_serializer@json_abi_v3_11_2@nlohmann@@V?$vector@EV?$allocator@E@std@@@2@@json_abi_v3_11_2@nlohmann@@V?$allocator@V?$basic_json@Vmap@std@@Vvector@2@V?$basic_string@DU?$char_traits@D@std@@V?$allocator@D@2@@2@_N_J_KNVallocator@2@Uadl_serializer@json_abi_v3_11_2@nlohmann@@V?$vector@EV?$allocator@E@std@@@2@@json_abi_v3_11_2@nlohmann@@@std@@@std@@AEAAPEAV?$basic_json@Vmap@std@@Vvector@2@V?$basic_string@DU?$char_traits@D@std@@V?$allocator@D@2@@2@_N_J_KNVallocator@2@Uadl_serializer@json_abi_v3_11_2@nlohmann@@V?$vector@EV?$allocator@E@std@@@2@@json_abi_v3_11_2@nlohmann@@QEAV234@$$QEAV234@@Z 0000000180022dd0 f i main.obj
 0001:00021fb0       ??1?$pair@$$CBV?$basic_string@DU?$char_traits@D@std@@V?$allocator@D@2@@std@@V?$basic_json@Vmap@std@@Vvector@2@V?$basic_string@DU?$char_traits@D@std@@V?$allocator@D@2@@2@_N_J_KNVallocator@2@Uadl_serializer@json_abi_v3_11_2@nlohmann@@V?$vector@EV?$allocator@E@std@@@2@@json_abi_v3_11_2@nlohmann@@@std@@QEAA@XZ 0000000180022fb0 f i main.obj
 0001:00022020       ??$_Erase_head@V?$allocator@U?$_Tree_node@U?$pair@$$CBV?$basic_string@DU?$char_traits@D@std@@V?$allocator@D@2@@std@@V?$basic_json@Vmap@std@@Vvector@2@V?$basic_string@DU?$char_traits@D@std@@V?$allocator@D@2@@2@_N_J_KNVallocator@2@Uadl_serializer@json_abi_v3_11_2@nlohmann@@V?$vector@EV?$allocator@E@std@@@2@@json_abi_v3_11_2@nlohmann@@@std@@PEAX@std@@@std@@@?$_Tree_val@U?$_Tree_simple_types@U?$pair@$$CBV?$basic_string@DU?$char_traits@D@std@@V?$allocator@D@2@@std@@V?$basic_json@Vmap@std@@Vvector@2@V?$basic_string@DU?$char_traits@D@std@@V?$allocator@D@2@@2@_N_J_KNVallocator@2@Uadl_serializer@json_abi_v3_11_2@nlohmann@@V?$vector@EV?$allocator@E@std@@@2@@json_abi_v3_11_2@nlohmann@@@std@@@std@@@std@@QEAAXAEAV?$allocator@U?$_Tree_node@U?$pair@$$CBV?$basic_string@DU?$char_traits@D@std@@V?$allocator@D@2@@std@@V?$basic_json@Vmap@std@@Vvector@2@V?$basic_string@DU?$char_traits@D@std@@V?$allocator@D@2@@2@_N_J_KNVallocator@2@Uadl_serializer@json_abi_v3_11_2@nlohmann@@V?$vector@EV?$allocator@E@std@@@2@@json_abi_v3_11_2@nlohmann@@@std@@PEAX@std@@@1@@Z 0000000180023020 f i main.obj
 0001:000220b0       ??$_Destroy_range@V?$allocator@V?$basic_json@Vmap@std@@Vvector@2@V?$basic_string@DU?$char_traits@D@std@@V?$allocator@D@2@@2@_N_J_KNVallocator@2@Uadl_serializer@json_abi_v3_11_2@nlohmann@@V?$vector@EV?$allocator@E@std@@@2@@json_abi_v3_11_2@nlohmann@@@std@@@std@@YAXPEAV?$basic_json@Vmap@std@@Vvector@2@V?$basic_string@DU?$char_traits@D@std@@V?$allocator@D@2@@2@_N_J_KNVallocator@2@Uadl_serializer@json_abi_v3_11_2@nlohmann@@V?$vector@EV?$allocator@E@std@@@2@@json_abi_v3_11_2@nlohmann@@QEAV123@AEAV?$allocator@V?$basic_json@Vmap@std@@Vvector@2@V?$basic_string@DU?$char_traits@D@std@@V?$allocator@D@2@@2@_N_J_KNVallocator@2@Uadl_serializer@json_abi_v3_11_2@nlohmann@@V?$vector@EV?$allocator@E@std@@@2@@json_abi_v3_11_2@nlohmann@@@0@@Z 00000001800230b0 f i main.obj
 0001:000220f0       ?deallocate@?$allocator@V?$basic_json@Vmap@std@@Vvector@2@V?$basic_string@DU?$char_traits@D@std@@V?$allocator@D@2@@2@_N_J_KNVallocator@2@Uadl_serializer@json_abi_v3_11_2@nlohmann@@V?$vector@EV?$allocator@E@std@@@2@@json_abi_v3_11_2@nlohmann@@@std@@QEAAXQEAV?$basic_json@Vmap@std@@Vvector@2@V?$basic_string@DU?$char_traits@D@std@@V?$allocator@D@2@@2@_N_J_KNVallocator@2@Uadl_serializer@json_abi_v3_11_2@nlohmann@@V?$vector@EV?$allocator@E@std@@@2@@json_abi_v3_11_2@nlohmann@@_K@Z 00000001800230f0 f i main.obj
 0001:00022140       ?_Tidy@?$vector@V?$basic_json@Vmap@std@@Vvector@2@V?$basic_string@DU?$char_traits@D@std@@V?$allocator@D@2@@2@_N_J_KNVallocator@2@Uadl_serializer@json_abi_v3_11_2@nlohmann@@V?$vector@EV?$allocator@E@std@@@2@@json_abi_v3_11_2@nlohmann@@V?$allocator@V?$basic_json@Vmap@std@@Vvector@2@V?$basic_string@DU?$char_traits@D@std@@V?$allocator@D@2@@2@_N_J_KNVallocator@2@Uadl_serializer@json_abi_v3_11_2@nlohmann@@V?$vector@EV?$allocator@E@std@@@2@@json_abi_v3_11_2@nlohmann@@@std@@@std@@AEAAXXZ 0000000180023140 f i main.obj
 0001:000221d0       ??1?$vector@V?$basic_json@Vmap@std@@Vvector@2@V?$basic_string@DU?$char_traits@D@std@@V?$allocator@D@2@@2@_N_J_KNVallocator@2@Uadl_serializer@json_abi_v3_11_2@nlohmann@@V?$vector@EV?$allocator@E@std@@@2@@json_abi_v3_11_2@nlohmann@@V?$allocator@V?$basic_json@Vmap@std@@Vvector@2@V?$basic_string@DU?$char_traits@D@std@@V?$allocator@D@2@@2@_N_J_KNVallocator@2@Uadl_serializer@json_abi_v3_11_2@nlohmann@@V?$vector@EV?$allocator@E@std@@@2@@json_abi_v3_11_2@nlohmann@@@std@@@std@@QEAA@XZ 00000001800231d0 f i main.obj
 0001:000221e0       ?destroy@json_value@?$basic_json@Vmap@std@@Vvector@2@V?$basic_string@DU?$char_traits@D@std@@V?$allocator@D@2@@2@_N_J_KNVallocator@2@Uadl_serializer@json_abi_v3_11_2@nlohmann@@V?$vector@EV?$allocator@E@std@@@2@@json_abi_v3_11_2@nlohmann@@QEAAXW4value_t@detail@34@@Z 00000001800231e0 f i main.obj
 0001:00022680       ??1?$basic_json@Vmap@std@@Vvector@2@V?$basic_string@DU?$char_traits@D@std@@V?$allocator@D@2@@2@_N_J_KNVallocator@2@Uadl_serializer@json_abi_v3_11_2@nlohmann@@V?$vector@EV?$allocator@E@std@@@2@@json_abi_v3_11_2@nlohmann@@QEAA@XZ 0000000180023680 f i main.obj
 0001:000227d0       ??1?$vector@V?$optional@E@std@@V?$allocator@V?$optional@E@std@@@2@@std@@QEAA@XZ 00000001800237d0 f i pattern.obj
 0001:000227d0       ??1pattern@memory@@QEAA@XZ 00000001800237d0 f i pattern_batch.obj
 0001:00022830       ??$_Emplace_reallocate@E@?$vector@V?$optional@E@std@@V?$allocator@V?$optional@E@std@@@2@@std@@AEAAPEAV?$optional@E@1@QEAV21@$$QEAE@Z 0000000180023830 f i pattern.obj
 0001:000229d0       ??$_Emplace_reallocate@V?$optional@E@std@@@?$vector@V?$optional@E@std@@V?$allocator@V?$optional@E@std@@@2@@std@@AEAAPEAV?$optional@E@1@QEAV21@$$QEAV21@@Z 00000001800239d0 f i pattern.obj
 0001:00022b70       ??0entry@pattern_batch@memory@@QEAA@V?$basic_string@DU?$char_traits@D@std@@V?$allocator@D@2@@std@@Vpattern@2@V?$function@$$A6AXVhandle@memory@@@Z@4@@Z 0000000180023b70 f i pattern_batch.obj
 0001:00022cf0       ?add@pattern_batch@memory@@QEAAXV?$basic_string@DU?$char_traits@D@std@@V?$allocator@D@2@@std@@Vpattern@2@V?$function@$$A6AXVhandle@memory@@@Z@4@@Z 0000000180023cf0 f   pattern_batch.obj
 0001:00022e20       ?run@pattern_batch@memory@@QEAAXVrange@2@@Z 0000000180023e20 f   pattern_batch.obj
 0001:000231c0       ??$_Destroy_range@V?$allocator@Uentry@pattern_batch@memory@@@std@@@std@@YAXPEAUentry@pattern_batch@memory@@QEAU123@AEAV?$allocator@Uentry@pattern_batch@memory@@@0@@Z 00000001800241c0 f i pattern_batch.obj
 0001:000232c0       ??$_Emplace_reallocate@V?$basic_string@DU?$char_traits@D@std@@V?$allocator@D@2@@std@@Vpattern@memory@@V?$function@$$A6AXVhandle@memory@@@Z@2@@?$vector@Uentry@pattern_batch@memory@@V?$allocator@Uentry@pattern_batch@memory@@@std@@@std@@AEAAPEAUentry@pattern_batch@memory@@QEAU234@$$QEAV?$basic_string@DU?$char_traits@D@std@@V?$allocator@D@2@@1@$$QEAVpattern@4@$$QEAV?$function@$$A6AXVhandle@memory@@@Z@1@@Z 00000001800242c0 f i pattern_batch.obj
 0001:00023560       ??$construct@Uentry@pattern_batch@memory@@V?$basic_string@DU?$char_traits@D@std@@V?$allocator@D@2@@std@@Vpattern@3@V?$function@$$A6AXVhandle@memory@@@Z@5@@?$_Default_allocator_traits@V?$allocator@Uentry@pattern_batch@memory@@@std@@@std@@SAXAEAV?$allocator@Uentry@pattern_batch@memory@@@1@QEAUentry@pattern_batch@memory@@$$QEAV?$basic_string@DU?$char_traits@D@std@@V?$allocator@D@2@@1@$$QEAVpattern@5@$$QEAV?$function@$$A6AXVhandle@memory@@@Z@1@@Z 0000000180024560 f i pattern_batch.obj
 0001:00023650       ??0entry@pattern_batch@memory@@QEAA@$$QEAU012@@Z 0000000180024650 f i pattern_batch.obj
 0001:00023720       ?nouppercase@std@@YAAEAVios_base@1@AEAV21@@Z 0000000180024720 f i pattern_batch.obj
 0001:00023730       ?dec@std@@YAAEAVios_base@1@AEAV21@@Z 0000000180024730 f i pattern_batch.obj
 0001:00023750       ?uppercase@std@@YAAEAVios_base@1@AEAV21@@Z 0000000180024750 f i pattern_batch.obj
 0001:00023760       ?hex@std@@YAAEAVios_base@1@AEAV21@@Z 0000000180024760 f i pattern_batch.obj
 0001:00023780       ??0pointers@big@@QEAA@XZ   0000000180024780 f   pointers.obj
 0001:000239d0       ??1pattern_batch@memory@@QEAA@XZ 00000001800249d0 f i pointers.obj
 0001:000239e0       ?get_swapchain@pointers@big@@AEAA_NXZ 00000001800249e0 f   pointers.obj
 0001:00023d10       ??1?$vector@Uentry@pattern_batch@memory@@V?$allocator@Uentry@pattern_batch@memory@@@std@@@std@@QEAA@XZ 0000000180024d10 f i pointers.obj
 0001:00023de0       ?on_present@renderer@big@@QEAAXXZ 0000000180024de0 f   renderer.obj
 0001:00023f00       ?init@renderer@big@@QEAA_NPEAUIDirect3DDevice9@@@Z 0000000180024f00 f   renderer.obj
 0001:00023fc0       ?imgui_init@renderer@big@@QEAAXPEAUIDirect3DDevice9@@@Z 0000000180024fc0 f   renderer.obj
 0001:00024540       ?script_exception_handler@script@big@@SAXPEAU_EXCEPTION_POINTERS@@@Z 0000000180025540 f   script.obj
 0001:00024770       ?fiber_func@script@big@@AEAAXXZ 0000000180025770 f   script.obj
 0001:00024870       ??0bad_optional_access@std@@QEAA@XZ 0000000180025870 f i script.obj
 0001:00024890       ?what@bad_optional_access@std@@UEBAPEBDXZ 0000000180025890 f i script.obj
 0001:000248a0       ??0bad_optional_access@std@@QEAA@AEBV01@@Z 00000001800258a0 f i script.obj
 0001:000248e0       ?_Throw_bad_optional_access@std@@YAXXZ 00000001800258e0 f i script.obj
 0001:00024920       ?add_script@script_mgr@big@@QEAAXV?$unique_ptr@Vscript@big@@U?$default_delete@Vscript@big@@@std@@@std@@@Z 0000000180025920 f   script_mgr.obj
 0001:000249d0       ?remove_all_scripts@script_mgr@big@@QEAAXXZ 00000001800259d0 f   script_mgr.obj
 0001:00024a70       ?tick@script_mgr@big@@QEAAXXZ 0000000180025a70 f   script_mgr.obj
 0001:00024a80       ?tick_internal@script_mgr@big@@AEAAXXZ 0000000180025a80 f   script_mgr.obj
 0001:00024ba0       ??$_Emplace_reallocate@V?$unique_ptr@Vscript@big@@U?$default_delete@Vscript@big@@@std@@@std@@@?$vector@V?$unique_ptr@Vscript@big@@U?$default_delete@Vscript@big@@@std@@@std@@V?$allocator@V?$unique_ptr@Vscript@big@@U?$default_delete@Vscript@big@@@std@@@std@@@2@@std@@AEAAPEAV?$unique_ptr@Vscript@big@@U?$default_delete@Vscript@big@@@std@@@1@QEAV21@$$QEAV21@@Z 0000000180025ba0 f i script_mgr.obj
 0001:00024de0       ??0thread_pool@big@@QEAA@XZ 0000000180025de0 f   thread_pool.obj
 0001:00024f20       ?create@thread_pool@big@@AEAAXXZ 0000000180025f20 f   thread_pool.obj
 0001:000250e0       ?destroy@thread_pool@big@@QEAAXXZ 00000001800260e0 f   thread_pool.obj
 0001:00025240       ?run@thread_pool@big@@AEAAXXZ 0000000180026240 f   thread_pool.obj
 0001:000254d0       ??1?$vector@Vthread@std@@V?$allocator@Vthread@std@@@2@@std@@QEAA@XZ 00000001800264d0 f i thread_pool.obj
 0001:00025560       ?_Reallocate_exactly@?$vector@Vthread@std@@V?$allocator@Vthread@std@@@2@@std@@AEAAX_K@Z 0000000180026560 f i thread_pool.obj
 0001:00025640       ?_Change_array@?$vector@Vthread@std@@V?$allocator@Vthread@std@@@2@@std@@AEAAXQEAVthread@2@_K1@Z 0000000180026640 f i thread_pool.obj
 0001:000256f0       ??$?6DU?$char_traits@D@std@@@std@@YAAEAV?$basic_ostream@DU?$char_traits@D@std@@@0@AEAV10@Vid@thread@0@@Z 00000001800266f0 f i thread_pool.obj
 0001:00025700       ??$endl@DU?$char_traits@D@std@@@std@@YAAEAV?$basic_ostream@DU?$char_traits@D@std@@@0@AEAV10@@Z 0000000180026700 f i thread_pool.obj
 0001:00025740       ??$_Emplace_reallocate@Vthread@std@@@?$vector@Vthread@std@@V?$allocator@Vthread@std@@@2@@std@@AEAAPEAVthread@1@QEAV21@$$QEAV21@@Z 0000000180026740 f i thread_pool.obj
 0001:000258e0       ?get_id@this_thread@std@@YA?AVid@thread@2@XZ 00000001800268e0 f i thread_pool.obj
 0001:00025900       ?notify_all@condition_variable@std@@QEAAXXZ 0000000180026900 f i thread_pool.obj
 0001:00025910       ??$?RUmonostate@v10@fmt@@$0A@@?$precision_checker@Uerror_handler@detail@v10@fmt@@@detail@v10@fmt@@QEAA_KUmonostate@23@@Z 0000000180026910 f i fmt:format.obj
 0001:00025990       ??$?RUmonostate@v10@fmt@@$0A@@?$width_checker@Uerror_handler@detail@v10@fmt@@@detail@v10@fmt@@QEAA_KUmonostate@23@@Z 0000000180026990 f i fmt:format.obj
 0001:00025a10       ??$?XH@bigint@detail@v10@fmt@@QEAAAEAV0123@H@Z 0000000180026a10 f i fmt:format.obj
 0001:00025a90       ??$append@D@?$buffer@D@detail@v10@fmt@@QEAAXPEBD0@Z 0000000180026a90 f i fmt:format.obj
 0001:00025b30       ??$apply@Vappender@v10@fmt@@D@?$digit_grouping@D@detail@v10@fmt@@QEBA?AVappender@23@V423@V?$basic_string_view@D@23@@Z 0000000180026b30 f i fmt:format.obj
 0001:00025d70       ??$check_char_specs@D@detail@v10@fmt@@YA_NAEBU?$format_specs@D@12@@Z 0000000180026d70 f i fmt:format.obj
 0001:00025e20       ??$decimal_point@D@detail@v10@fmt@@YADVlocale_ref@012@@Z 0000000180026e20 f i fmt:format.obj
 0001:00025f20       ??$do_parse_arg_id@DAEAUid_adapter@?1???$parse_replacement_field@DAEAUformat_handler@?1???$vformat_to@D@detail@v10@fmt@@YAXAEAV?$buffer@D@234@V?$basic_string_view@D@34@V?$basic_format_args@V?$basic_format_context@Vappender@v10@fmt@@D@v10@fmt@@@34@Vlocale_ref@234@@Z@@detail@v10@fmt@@YAPEBDPEBD0AEAUformat_handler@?1???$vformat_to@D@234@YAXAEAV?$buffer@D@234@V?$basic_string_view@D@34@V?$basic_format_args@V?$basic_format_context@Vappender@v10@fmt@@D@v10@fmt@@@34@Vlocale_ref@234@@Z@@Z@@detail@v10@fmt@@YAPEBDPEBD0AEAUid_adapter@?1???$parse_replacement_field@DAEAUformat_handler@?1???$vformat_to@D@detail@v10@fmt@@YAXAEAV?$buffer@D@234@V?$basic_string_view@D@34@V?$basic_format_args@V?$basic_format_context@Vappender@v10@fmt@@D@v10@fmt@@@34@Vlocale_ref@234@@Z@@012@YAPEBD00AEAUformat_handler@?1???$vformat_to@D@012@YAXAEAV?$buffer@D@012@V?$basic_string_view@D@12@V?$basic_format_args@V?$basic_format_context@Vappender@v10@fmt@@D@v10@fmt@@@12@Vlocale_ref@012@@Z@@Z@@Z 0000000180026f20 f i fmt:format.obj
 0001:00026100       ??$do_write_float@Vappender@v10@fmt@@U?$decimal_fp@M@dragonbox@detail@23@DV?$digit_grouping@D@623@@detail@v10@fmt@@YA?AVappender@12@V312@AEBU?$decimal_fp@M@dragonbox@012@AEBU?$format_specs@D@12@Ufloat_specs@012@Vlocale_ref@012@@Z 0000000180027100 f i fmt:format.obj
 0001:00026600       ??$do_write_float@Vappender@v10@fmt@@U?$decimal_fp@N@dragonbox@detail@23@DV?$digit_grouping@D@623@@detail@v10@fmt@@YA?AVappender@12@V312@AEBU?$decimal_fp@N@dragonbox@012@AEBU?$format_specs@D@12@Ufloat_specs@012@Vlocale_ref@012@@Z 0000000180027600 f i fmt:format.obj
 0001:00026b10       ??$do_write_float@Vappender@v10@fmt@@Ubig_decimal_fp@detail@23@DV?$digit_grouping@D@523@@detail@v10@fmt@@YA?AVappender@12@V312@AEBUbig_decimal_fp@012@AEBU?$format_specs@D@12@Ufloat_specs@012@Vlocale_ref@012@@Z 0000000180027b10 f i fmt:format.obj
 0001:00026fd0       ??$for_each_codepoint@Ucount_code_points@?1??compute_width@detail@v10@fmt@@YA_KV?$basic_string_view@D@45@@Z@@detail@v10@fmt@@YAXV?$basic_string_view@D@12@Ucount_code_points@?1??compute_width@012@YA_K0@Z@@Z 0000000180027fd0 f i fmt:format.obj
 0001:000272c0       ??$for_each_codepoint@V<lambda_c85436508a79f262573fc91afe7b55ee>@@@detail@v10@fmt@@YAXV?$basic_string_view@D@12@V<lambda_c85436508a79f262573fc91afe7b55ee>@@@Z 00000001800282c0 f i fmt:format.obj
 0001:000274e0       ??$format_decimal@DIVappender@v10@fmt@@$0A@@detail@v10@fmt@@YA?AU?$format_decimal_result@Vappender@v10@fmt@@@012@Vappender@12@IH@Z 00000001800284e0 f i fmt:format.obj
 0001:00027610       ??$format_decimal@D_KVappender@v10@fmt@@$0A@@detail@v10@fmt@@YA?AU?$format_decimal_result@Vappender@v10@fmt@@@012@Vappender@12@_KH@Z 0000000180028610 f i fmt:format.obj
 0001:00027760       ??$format_float@N@detail@v10@fmt@@YAHNHUfloat_specs@012@AEAV?$buffer@D@012@@Z 0000000180028760 f i fmt:format.obj
 0001:00027d90       ??$format_hexfloat@N$0A@@detail@v10@fmt@@YAXNHUfloat_specs@012@AEAV?$buffer@D@012@@Z 0000000180028d90 f i fmt:format.obj
 0001:00028090       ??$format_uint@$03DVappender@v10@fmt@@_K@detail@v10@fmt@@YA?AVappender@12@V312@_KH_N@Z 0000000180029090 f i fmt:format.obj
 0001:000281f0       ??$get_arg@V?$basic_format_context@Vappender@v10@fmt@@D@v10@fmt@@H@detail@v10@fmt@@YA?AV?$basic_format_arg@V?$basic_format_context@Vappender@v10@fmt@@D@v10@fmt@@@12@AEAV?$basic_format_context@Vappender@v10@fmt@@D@12@H@Z 00000001800291f0 f i fmt:format.obj
 0001:00028290       ??$get_arg@V?$basic_format_context@Vappender@v10@fmt@@D@v10@fmt@@V?$basic_string_view@D@23@@detail@v10@fmt@@YA?AV?$basic_format_arg@V?$basic_format_context@Vappender@v10@fmt@@D@v10@fmt@@@12@AEAV?$basic_format_context@Vappender@v10@fmt@@D@12@V?$basic_string_view@D@12@@Z 0000000180029290 f i fmt:format.obj
 0001:000283c0       ??$get_dynamic_spec@Vprecision_checker@detail@v10@fmt@@V?$basic_format_arg@V?$basic_format_context@Vappender@v10@fmt@@D@v10@fmt@@@34@Uerror_handler@234@@detail@v10@fmt@@YAHV?$basic_format_arg@V?$basic_format_context@Vappender@v10@fmt@@D@v10@fmt@@@12@Uerror_handler@012@@Z 00000001800293c0 f i fmt:format.obj
 0001:00028470       ??$get_dynamic_spec@Vwidth_checker@detail@v10@fmt@@V?$basic_format_arg@V?$basic_format_context@Vappender@v10@fmt@@D@v10@fmt@@@34@Uerror_handler@234@@detail@v10@fmt@@YAHV?$basic_format_arg@V?$basic_format_context@Vappender@v10@fmt@@D@v10@fmt@@@12@Uerror_handler@012@@Z 0000000180029470 f i fmt:format.obj
 0001:00028520       ??$get_id@D@?$basic_format_args@V?$basic_format_context@Vappender@v10@fmt@@D@v10@fmt@@@v10@fmt@@QEBAHV?$basic_string_view@D@12@@Z 0000000180029520 f i fmt:format.obj
 0001:000285f0       ??$multiply@Vuint128_fallback@detail@v10@fmt@@$0A@@bigint@detail@v10@fmt@@AEAAXVuint128_fallback@123@@Z 00000001800295f0 f i fmt:format.obj
 0001:00028800       ??$parse_arg_id@DAEAU?$dynamic_spec_id_handler@D@detail@v10@fmt@@@detail@v10@fmt@@YAPEBDPEBD0AEAU?$dynamic_spec_id_handler@D@012@@Z 0000000180029800 f i fmt:format.obj
 0001:000289e0       ??$parse_dynamic_spec@D@detail@v10@fmt@@YAPEBDPEBD0AEAHAEAU?$arg_ref@D@012@AEAV?$basic_format_parse_context@D@12@@Z 00000001800299e0 f i fmt:format.obj
 0001:00028b00       ??$parse_float_type_spec@Uerror_handler@detail@v10@fmt@@D@detail@v10@fmt@@YA?AUfloat_specs@012@AEBU?$format_specs@D@12@$$QEAUerror_handler@012@@Z 0000000180029b00 f i fmt:format.obj
 0001:00028c80       ??$parse_format_specs@D@detail@v10@fmt@@YAPEBDPEBD0AEAU?$dynamic_format_specs@D@012@AEAV?$basic_format_parse_context@D@12@W4type@012@@Z 0000000180029c80 f i fmt:format.obj
 0001:000297e0       ??$parse_format_string@$0A@DUformat_handler@?1???$vformat_to@D@detail@v10@fmt@@YAXAEAV?$buffer@D@234@V?$basic_string_view@D@34@V?$basic_format_args@V?$basic_format_context@Vappender@v10@fmt@@D@v10@fmt@@@34@Vlocale_ref@234@@Z@@detail@v10@fmt@@YAXV?$basic_string_view@D@12@$$QEAUformat_handler@?1???$vformat_to@D@012@YAXAEAV?$buffer@D@012@0V?$basic_format_args@V?$basic_format_context@Vappender@v10@fmt@@D@v10@fmt@@@12@Vlocale_ref@012@@Z@@Z 000000018002a7e0 f i fmt:format.obj
 0001:00029a70       ??$parse_nonnegative_int@D@detail@v10@fmt@@YAHAEAPEBDPEBDH@Z 000000018002aa70 f i fmt:format.obj
 0001:00029b00       ??$parse_replacement_field@DAEAUformat_handler@?1???$vformat_to@D@detail@v10@fmt@@YAXAEAV?$buffer@D@234@V?$basic_string_view@D@34@V?$basic_format_args@V?$basic_format_context@Vappender@v10@fmt@@D@v10@fmt@@@34@Vlocale_ref@234@@Z@@detail@v10@fmt@@YAPEBDPEBD0AEAUformat_handler@?1???$vformat_to@D@012@YAXAEAV?$buffer@D@012@V?$basic_string_view@D@12@V?$basic_format_args@V?$basic_format_context@Vappender@v10@fmt@@D@v10@fmt@@@12@Vlocale_ref@012@@Z@@Z 000000018002ab00 f i fmt:format.obj
 0001:00029d20       ??$shorter_interval_case@M@dragonbox@detail@v10@fmt@@YA?AU?$decimal_fp@M@0123@H@Z 000000018002ad20 f i fmt:format.obj
 0001:00029e60       ??$shorter_interval_case@N@dragonbox@detail@v10@fmt@@YA?AU?$decimal_fp@N@0123@H@Z 000000018002ae60 f i fmt:format.obj
 0001:0002a020       ??$thousands_sep@D@detail@v10@fmt@@YA?AU?$thousands_sep_result@D@012@Vlocale_ref@012@@Z 000000018002b020 f i fmt:format.obj
 0001:0002a280       ??$to_decimal@M@dragonbox@detail@v10@fmt@@YA?AU?$decimal_fp@M@0123@M@Z 000000018002b280 f i fmt:format.obj
 0001:0002a500       ??$to_decimal@N@dragonbox@detail@v10@fmt@@YA?AU?$decimal_fp@N@0123@N@Z 000000018002b500 f i fmt:format.obj
 0001:0002a760       ??$use_facet@V?$numpunct@D@std@@@std@@YAAEBV?$numpunct@D@0@AEBVlocale@0@@Z 000000018002b760 f i fmt:format.obj
 0001:0002a8c0       ??$vformat_to@D@detail@v10@fmt@@YAXAEAV?$buffer@D@012@V?$basic_string_view@D@12@V?$basic_format_args@V?$basic_format_context@Vappender@v10@fmt@@D@v10@fmt@@@12@Vlocale_ref@012@@Z 000000018002b8c0 f i fmt:format.obj
 0001:0002aa10       ??$visit_format_arg@AEAU?$arg_formatter@D@detail@v10@fmt@@V?$basic_format_context@Vappender@v10@fmt@@D@34@@v10@fmt@@YA?AVappender@01@AEAU?$arg_formatter@D@detail@01@AEBV?$basic_format_arg@V?$basic_format_context@Vappender@v10@fmt@@D@v10@fmt@@@01@@Z 000000018002ba10 f i fmt:format.obj
 0001:0002afa0       ??$visit_format_arg@AEAU?$loc_writer@D@detail@v10@fmt@@V?$basic_format_context@Vappender@v10@fmt@@D@34@@v10@fmt@@YA_NAEAU?$loc_writer@D@detail@01@AEBV?$basic_format_arg@V?$basic_format_context@Vappender@v10@fmt@@D@v10@fmt@@@01@@Z 000000018002bfa0 f i fmt:format.obj
 0001:0002b2c0       ??$visit_format_arg@U?$default_arg_formatter@D@detail@v10@fmt@@V?$basic_format_context@Vappender@v10@fmt@@D@34@@v10@fmt@@YA?AVappender@01@$$QEAU?$default_arg_formatter@D@detail@01@AEBV?$basic_format_arg@V?$basic_format_context@Vappender@v10@fmt@@D@v10@fmt@@@01@@Z 000000018002c2c0 f i fmt:format.obj
 0001:0002b7f0       ??$visit_format_arg@V?$precision_checker@Uerror_handler@detail@v10@fmt@@@detail@v10@fmt@@V?$basic_format_context@Vappender@v10@fmt@@D@34@@v10@fmt@@YA_K$$QEAV?$precision_checker@Uerror_handler@detail@v10@fmt@@@detail@01@AEBV?$basic_format_arg@V?$basic_format_context@Vappender@v10@fmt@@D@v10@fmt@@@01@@Z 000000018002c7f0 f i fmt:format.obj
 0001:0002bcf0       ??$visit_format_arg@V?$width_checker@Uerror_handler@detail@v10@fmt@@@detail@v10@fmt@@V?$basic_format_context@Vappender@v10@fmt@@D@34@@v10@fmt@@YA_K$$QEAV?$width_checker@Uerror_handler@detail@v10@fmt@@@detail@01@AEBV?$basic_format_arg@V?$basic_format_context@Vappender@v10@fmt@@D@v10@fmt@@@01@@Z 000000018002ccf0 f i fmt:format.obj
 0001:0002c1f0       ??$write@DVappender@v10@fmt@@@detail@v10@fmt@@YA?AVappender@12@V312@V?$basic_string_view@D@12@AEBU?$format_specs@D@12@@Z 000000018002d1f0 f i fmt:format.obj
 0001:0002c480       ??$write@DVappender@v10@fmt@@H$0A@@detail@v10@fmt@@YA?AVappender@12@V312@H@Z 000000018002d480 f i fmt:format.obj
 0001:0002c5d0       ??$write@DVappender@v10@fmt@@H$0A@@detail@v10@fmt@@YA?AVappender@12@V312@HAEBU?$format_specs@D@12@Vlocale_ref@012@@Z 000000018002d5d0 f i fmt:format.obj
 0001:0002c6c0       ??$write@DVappender@v10@fmt@@I$0A@@detail@v10@fmt@@YA?AVappender@12@V312@I@Z 000000018002d6c0 f i fmt:format.obj
 0001:0002c7e0       ??$write@DVappender@v10@fmt@@M$0A@@detail@v10@fmt@@YA?AVappender@12@V312@MU?$format_specs@D@12@Vlocale_ref@012@@Z 000000018002d7e0 f i fmt:format.obj
 0001:0002c8a0       ??$write@DVappender@v10@fmt@@N$0A@@detail@v10@fmt@@YA?AVappender@12@V312@NU?$format_specs@D@12@Vlocale_ref@012@@Z 000000018002d8a0 f i fmt:format.obj
 0001:0002c960       ??$write@DVappender@v10@fmt@@O$0A@@detail@v10@fmt@@YA?AVappender@12@V312@OU?$format_specs@D@12@Vlocale_ref@012@@Z 000000018002d960 f i fmt:format.obj
 0001:0002ca20       ??$write@DVappender@v10@fmt@@_J$0A@@detail@v10@fmt@@YA?AVappender@12@V312@_J@Z 000000018002da20 f i fmt:format.obj
 0001:0002cba0       ??$write@DVappender@v10@fmt@@_K$0A@@detail@v10@fmt@@YA?AVappender@12@V312@_K@Z 000000018002dba0 f i fmt:format.obj
 0001:0002cce0       ??$write@DVappender@v10@fmt@@_N$0A@@detail@v10@fmt@@YA?AVappender@12@V312@_NAEBU?$format_specs@D@12@Vlocale_ref@012@@Z 000000018002dce0 f i fmt:format.obj
 0001:0002cd90       ??$write_char@DVappender@v10@fmt@@@detail@v10@fmt@@YA?AVappender@12@V312@DAEBU?$format_specs@D@12@@Z 000000018002dd90 f i fmt:format.obj
 0001:0002cde0       ??$write_codepoint@$01DVappender@v10@fmt@@@detail@v10@fmt@@YA?AVappender@12@V312@DI@Z 000000018002dde0 f i fmt:format.obj
 0001:0002cf10       ??$write_escaped_cp@Vappender@v10@fmt@@D@detail@v10@fmt@@YA?AVappender@12@V312@AEBU?$find_escape_result@D@012@@Z 000000018002df10 f i fmt:format.obj
 0001:0002d2e0       ??$write_exponent@DVappender@v10@fmt@@@detail@v10@fmt@@YA?AVappender@12@HV312@@Z 000000018002e2e0 f i fmt:format.obj
 0001:0002d450       ??$write_float@DVappender@v10@fmt@@M@detail@v10@fmt@@YA?AVappender@12@V312@MU?$format_specs@D@12@Vlocale_ref@012@@Z 000000018002e450 f i fmt:format.obj
 0001:0002d7e0       ??$write_float@DVappender@v10@fmt@@N@detail@v10@fmt@@YA?AVappender@12@V312@NU?$format_specs@D@12@Vlocale_ref@012@@Z 000000018002e7e0 f i fmt:format.obj
 0001:0002db60       ??$write_float@DVappender@v10@fmt@@O@detail@v10@fmt@@YA?AVappender@12@V312@OU?$format_specs@D@12@Vlocale_ref@012@@Z 000000018002eb60 f i fmt:format.obj
 0001:0002dee0       ??$write_int@DVappender@v10@fmt@@I@detail@v10@fmt@@YA?AVappender@12@V312@U?$write_int_arg@I@012@AEBU?$format_specs@D@12@Vlocale_ref@012@@Z 000000018002eee0 f i fmt:format.obj
 0001:0002e480       ??$write_int@DVappender@v10@fmt@@_K@detail@v10@fmt@@YA?AVappender@12@V312@U?$write_int_arg@_K@012@AEBU?$format_specs@D@12@Vlocale_ref@012@@Z 000000018002f480 f i fmt:format.obj
 0001:0002ea20       ??$write_int@Vappender@v10@fmt@@_KD@detail@v10@fmt@@YA?AVappender@12@V312@_KIAEBU?$format_specs@D@12@AEBV?$digit_grouping@D@012@@Z 000000018002fa20 f i fmt:format.obj
 0001:0002eba0       ??$write_padded@$00Vappender@v10@fmt@@DAEAV<lambda_3f39b21915825f62e18a3e097eabb611>@@@detail@v10@fmt@@YA?AVappender@12@V312@AEBU?$format_specs@D@12@_K2AEAV<lambda_3f39b21915825f62e18a3e097eabb611>@@@Z 000000018002fba0 f i fmt:format.obj
 0001:0002ee30       ??$write_padded@$00Vappender@v10@fmt@@DAEAV<lambda_f2dc4da2b478bff00222a7f53109ea3e>@@@detail@v10@fmt@@YA?AVappender@12@V312@AEBU?$format_specs@D@12@_K2AEAV<lambda_f2dc4da2b478bff00222a7f53109ea3e>@@@Z 000000018002fe30 f i fmt:format.obj
 0001:0002ef90       ??$write_padded@$00Vappender@v10@fmt@@DAEAV<lambda_f9fdae34866a8d10b78522c0139e86ae>@@@detail@v10@fmt@@YA?AVappender@12@V312@AEBU?$format_specs@D@12@_K2AEAV<lambda_f9fdae34866a8d10b78522c0139e86ae>@@@Z 000000018002ff90 f i fmt:format.obj
 0001:0002f150       ??$write_padded@$00Vappender@v10@fmt@@DV<lambda_ca047ca76e1d762f8949d86d0ff2d076>@@@detail@v10@fmt@@YA?AVappender@12@V312@AEBU?$format_specs@D@12@_K2$$QEAV<lambda_ca047ca76e1d762f8949d86d0ff2d076>@@@Z 0000000180030150 f i fmt:format.obj
 0001:0002f3f0       ??$write_padded@$01Vappender@v10@fmt@@DAEAV<lambda_2d4f55e19f4542332df02c860450a1ae>@@@detail@v10@fmt@@YA?AVappender@12@V312@AEBU?$format_specs@D@12@_K2AEAV<lambda_2d4f55e19f4542332df02c860450a1ae>@@@Z 00000001800303f0 f i fmt:format.obj
 0001:0002f540       ??$write_padded@$01Vappender@v10@fmt@@DAEAV<lambda_3524c1a8e0359ea3a123ee236cf56033>@@@detail@v10@fmt@@YA?AVappender@12@V312@AEBU?$format_specs@D@12@_K2AEAV<lambda_3524c1a8e0359ea3a123ee236cf56033>@@@Z 0000000180030540 f i fmt:format.obj
 0001:0002f690       ??$write_padded@$01Vappender@v10@fmt@@DAEAV<lambda_4adbbbd4c12792c88c39c3bfa088bc98>@@@detail@v10@fmt@@YA?AVappender@12@V312@AEBU?$format_specs@D@12@_K2AEAV<lambda_4adbbbd4c12792c88c39c3bfa088bc98>@@@Z 0000000180030690 f i fmt:format.obj
 0001:0002f880       ??$write_padded@$01Vappender@v10@fmt@@DAEAV<lambda_68b100e206ef54e9f30ac19be4084c12>@@@detail@v10@fmt@@YA?AVappender@12@V312@AEBU?$format_specs@D@12@_K2AEAV<lambda_68b100e206ef54e9f30ac19be4084c12>@@@Z 0000000180030880 f i fmt:format.obj
 0001:0002f9d0       ??$write_padded@$01Vappender@v10@fmt@@DAEAV<lambda_6c39e03621611bf6994577c825685b6e>@@@detail@v10@fmt@@YA?AVappender@12@V312@AEBU?$format_specs@D@12@_K2AEAV<lambda_6c39e03621611bf6994577c825685b6e>@@@Z 00000001800309d0 f i fmt:format.obj
 0001:0002fb20       ??$write_padded@$01Vappender@v10@fmt@@DAEAV<lambda_818aba7266bb4e442ffaf2c1dc204257>@@@detail@v10@fmt@@YA?AVappender@12@V312@AEBU?$format_specs@D@12@_K2AEAV<lambda_818aba7266bb4e442ffaf2c1dc204257>@@@Z 0000000180030b20 f i fmt:format.obj
 0001:0002fc70       ??$write_padded@$01Vappender@v10@fmt@@DAEAV<lambda_823b17854daf27339f090cefdee44e78>@@@detail@v10@fmt@@YA?AVappender@12@V312@AEBU?$format_specs@D@12@_K2AEAV<lambda_823b17854daf27339f090cefdee44e78>@@@Z 0000000180030c70 f i fmt:format.obj
 0001:0002fdc0       ??$write_padded@$01Vappender@v10@fmt@@DAEAV<lambda_84c19b3b8277638d729df7aa3959d902>@@@detail@v10@fmt@@YA?AVappender@12@V312@AEBU?$format_specs@D@12@_K2AEAV<lambda_84c19b3b8277638d729df7aa3959d902>@@@Z 0000000180030dc0 f i fmt:format.obj
 0001:0002ffb0       ??$write_padded@$01Vappender@v10@fmt@@DAEAV<lambda_8a46224cba95b4feda0e7be714e72bf3>@@@detail@v10@fmt@@YA?AVappender@12@V312@AEBU?$format_specs@D@12@_K2AEAV<lambda_8a46224cba95b4feda0e7be714e72bf3>@@@Z 0000000180030fb0 f i fmt:format.obj
 0001:00030100       ??$write_padded@$01Vappender@v10@fmt@@DAEAV<lambda_8d1c3a736dc7f742bcd7597e755cbd83>@@@detail@v10@fmt@@YA?AVappender@12@V312@AEBU?$format_specs@D@12@_K2AEAV<lambda_8d1c3a736dc7f742bcd7597e755cbd83>@@@Z 0000000180031100 f i fmt:format.obj
 0001:000302f0       ??$write_padded@$01Vappender@v10@fmt@@DAEAV<lambda_90dce01ae735fc3dc79c8eb606652632>@@@detail@v10@fmt@@YA?AVappender@12@V312@AEBU?$format_specs@D@12@_K2AEAV<lambda_90dce01ae735fc3dc79c8eb606652632>@@@Z 00000001800312f0 f i fmt:format.obj
 0001:00030440       ??$write_padded@$01Vappender@v10@fmt@@DAEAV<lambda_978759eade7a5acbfde12cb5f1c29cb5>@@@detail@v10@fmt@@YA?AVappender@12@V312@AEBU?$format_specs@D@12@_K2AEAV<lambda_978759eade7a5acbfde12cb5f1c29cb5>@@@Z 0000000180031440 f i fmt:format.obj
 0001:00030590       ??$write_padded@$01Vappender@v10@fmt@@DAEAV<lambda_9ed846785a100ef7e4d8996b002e3598>@@@detail@v10@fmt@@YA?AVappender@12@V312@AEBU?$format_specs@D@12@_K2AEAV<lambda_9ed846785a100ef7e4d8996b002e3598>@@@Z 0000000180031590 f i fmt:format.obj
 0001:000306e0       ??$write_padded@$01Vappender@v10@fmt@@DAEAV<lambda_9f8a1ffb1b0f345f31ec2444454ef85f>@@@detail@v10@fmt@@YA?AVappender@12@V312@AEBU?$format_specs@D@12@_K2AEAV<lambda_9f8a1ffb1b0f345f31ec2444454ef85f>@@@Z 00000001800316e0 f i fmt:format.obj
 0001:00030830       ??$write_padded@$01Vappender@v10@fmt@@DAEAV<lambda_a29eb9ac90aa96bd8936d2843afd5a06>@@@detail@v10@fmt@@YA?AVappender@12@V312@AEBU?$format_specs@D@12@_K2AEAV<lambda_a29eb9ac90aa96bd8936d2843afd5a06>@@@Z 0000000180031830 f i fmt:format.obj
 0001:00030a20       ??$write_padded@$01Vappender@v10@fmt@@DAEAV<lambda_b436089dde4297341b0ea35c2e29f4e7>@@@detail@v10@fmt@@YA?AVappender@12@V312@AEBU?$format_specs@D@12@_K2AEAV<lambda_b436089dde4297341b0ea35c2e29f4e7>@@@Z 0000000180031a20 f i fmt:format.obj
 0001:00030c10       ??$write_padded@$01Vappender@v10@fmt@@DAEAV<lambda_d1d22b7885c0b325d695747f904f8250>@@@detail@v10@fmt@@YA?AVappender@12@V312@AEBU?$format_specs@D@12@_K2AEAV<lambda_d1d22b7885c0b325d695747f904f8250>@@@Z 0000000180031c10 f i fmt:format.obj
 0001:00030d70       ??$write_padded@$01Vappender@v10@fmt@@DAEAV<lambda_d34923a6f8069cfbc97887a0649debb5>@@@detail@v10@fmt@@YA?AVappender@12@V312@AEBU?$format_specs@D@12@_K2AEAV<lambda_d34923a6f8069cfbc97887a0649debb5>@@@Z 0000000180031d70 f i fmt:format.obj
 0001:00030f70       ??$write_padded@$01Vappender@v10@fmt@@DAEAV<lambda_e8524898cbb8a439b072ad9538a19a75>@@@detail@v10@fmt@@YA?AVappender@12@V312@AEBU?$format_specs@D@12@_K2AEAV<lambda_e8524898cbb8a439b072ad9538a19a75>@@@Z 0000000180031f70 f i fmt:format.obj
 0001:00031160       ??$write_padded@$01Vappender@v10@fmt@@DAEAV<lambda_eaccedcb0f4c807c126bc48e2de7c7ee>@@@detail@v10@fmt@@YA?AVappender@12@V312@AEBU?$format_specs@D@12@_K2AEAV<lambda_eaccedcb0f4c807c126bc48e2de7c7ee>@@@Z 0000000180032160 f i fmt:format.obj
 0001:00031310       ??$write_padded@$01Vappender@v10@fmt@@DAEAV<lambda_f0b97023247b28d5c1aad51bbe19bc13>@@@detail@v10@fmt@@YA?AVappender@12@V312@AEBU?$format_specs@D@12@_K2AEAV<lambda_f0b97023247b28d5c1aad51bbe19bc13>@@@Z 0000000180032310 f i fmt:format.obj
 0001:00031570       ??$write_padded@$01Vappender@v10@fmt@@DAEAV<lambda_ffacaa5519ee2a29a7eb6d2bb1da4596>@@@detail@v10@fmt@@YA?AVappender@12@V312@AEBU?$format_specs@D@12@_K2AEAV<lambda_ffacaa5519ee2a29a7eb6d2bb1da4596>@@@Z 0000000180032570 f i fmt:format.obj
 0001:00031760       ??$write_padded@$01Vappender@v10@fmt@@DV<lambda_b0ea59c3783f15bbb105b5fdf73b63cf>@@@detail@v10@fmt@@YA?AVappender@12@V312@AEBU?$format_specs@D@12@_K2$$QEAV<lambda_b0ea59c3783f15bbb105b5fdf73b63cf>@@@Z 0000000180032760 f i fmt:format.obj
 0001:00031920       ??$write_significand@DI$0A@@detail@v10@fmt@@YAPEADPEADIHHD@Z 0000000180032920 f i fmt:format.obj
 0001:00031a90       ??$write_significand@DVappender@v10@fmt@@PEBDV?$digit_grouping@D@detail@23@@detail@v10@fmt@@YA?AVappender@12@V312@PEBDHHAEBV?$digit_grouping@D@012@@Z 0000000180032a90 f i fmt:format.obj
 0001:00031c40       ??$write_significand@D_K$0A@@detail@v10@fmt@@YAPEADPEAD_KHHD@Z 0000000180032c40 f i fmt:format.obj
 0001:00031e10       ??$write_significand@Vappender@v10@fmt@@ID$0A@@detail@v10@fmt@@YA?AVappender@12@V312@IHHD@Z 0000000180032e10 f i fmt:format.obj
 0001:00031f00       ??$write_significand@Vappender@v10@fmt@@_KD$0A@@detail@v10@fmt@@YA?AVappender@12@V312@_KHHD@Z 0000000180032f00 f i fmt:format.obj
 0001:00031ff0       ??0?$digit_grouping@D@detail@v10@fmt@@QEAA@V?$basic_string@DU?$char_traits@D@std@@V?$allocator@D@2@@std@@0@Z 0000000180032ff0 f i fmt:format.obj
 0001:00032120       ??0?$digit_grouping@D@detail@v10@fmt@@QEAA@Vlocale_ref@123@_N@Z 0000000180033120 f i fmt:format.obj
 0001:000322d0       ??0?$format_facet@Vlocale@std@@@v10@fmt@@QEAA@AEAVlocale@std@@@Z 00000001800332d0 f i fmt:format.obj
 0001:00032520       ??0?$numpunct@D@std@@QEAA@AEBV_Locinfo@1@_K_N@Z 0000000180033520 f i fmt:format.obj
 0001:000326d0       ??0format_error@v10@fmt@@QEAA@AEBV012@@Z 00000001800336d0 f i fmt:format.obj
 0001:00032710       ??1?$_Tidy_guard@V?$numpunct@D@std@@@std@@QEAA@XZ 0000000180033710 f i fmt:format.obj
 0001:00032750       ??1?$basic_memory_buffer@D$0BPE@V?$allocator@D@std@@@v10@fmt@@QEAA@XZ 0000000180033750 f i fmt:format.obj
 0001:000327b0       ??1?$basic_memory_buffer@H$0BPE@V?$allocator@H@std@@@v10@fmt@@QEAA@XZ 00000001800337b0 f i fmt:format.obj
 0001:00032810       ??1?$basic_memory_buffer@I$0CA@V?$allocator@I@std@@@v10@fmt@@QEAA@XZ 0000000180033810 f i fmt:format.obj
 0001:00032810       ??1bigint@detail@v10@fmt@@QEAA@XZ 0000000180033810 f i fmt:format.obj
 0001:00032870       ??1?$digit_grouping@D@detail@v10@fmt@@QEAA@XZ 0000000180033870 f i fmt:format.obj
 0001:00032920       ??1?$format_facet@Vlocale@std@@@v10@fmt@@UEAA@XZ 0000000180033920 f i fmt:format.obj
 0001:00032a30       ??1?$loc_writer@D@detail@v10@fmt@@QEAA@XZ 0000000180033a30 f i fmt:format.obj
 0001:00032b30       ??1?$thousands_sep_result@D@detail@v10@fmt@@QEAA@XZ 0000000180033b30 f i fmt:format.obj
 0001:00032b90       ??1format_error@v10@fmt@@UEAA@XZ 0000000180033b90 f i fmt:format.obj
 0001:00032bb0       ??R<lambda_2d4f55e19f4542332df02c860450a1ae>@@QEBA@Vappender@v10@fmt@@@Z 0000000180033bb0 f i fmt:format.obj
 0001:00032e50       ??R<lambda_3524c1a8e0359ea3a123ee236cf56033>@@QEBA@Vappender@v10@fmt@@@Z 0000000180033e50 f i fmt:format.obj
 0001:00032f60       ??R<lambda_68b100e206ef54e9f30ac19be4084c12>@@QEBA@Vappender@v10@fmt@@@Z 0000000180033f60 f i fmt:format.obj
 0001:000330c0       ??R<lambda_6c39e03621611bf6994577c825685b6e>@@QEBA@Vappender@v10@fmt@@@Z 00000001800340c0 f i fmt:format.obj
 0001:000331d0       ??R<lambda_7b60ae0f34404c022c16ba905a9e0543>@@QEBA@Vappender@v10@fmt@@@Z 00000001800341d0 f i fmt:format.obj
 0001:00033320       ??R<lambda_7c8204a025b8fc72931fb15d1556899d>@@QEBA@Vappender@v10@fmt@@@Z 0000000180034320 f i fmt:format.obj
 0001:00033470       ??R<lambda_818aba7266bb4e442ffaf2c1dc204257>@@QEBA@Vappender@v10@fmt@@@Z 0000000180034470 f i fmt:format.obj
 0001:000336f0       ??R<lambda_823b17854daf27339f090cefdee44e78>@@QEBA@Vappender@v10@fmt@@@Z 00000001800346f0 f i fmt:format.obj
 0001:00033850       ??R<lambda_8a46224cba95b4feda0e7be714e72bf3>@@QEBA@Vappender@v10@fmt@@@Z 0000000180034850 f i fmt:format.obj
 0001:000339b0       ??R<lambda_90dce01ae735fc3dc79c8eb606652632>@@QEBA@Vappender@v10@fmt@@@Z 00000001800349b0 f i fmt:format.obj
 0001:00033c30       ??R<lambda_978759eade7a5acbfde12cb5f1c29cb5>@@QEBA@Vappender@v10@fmt@@@Z 0000000180034c30 f i fmt:format.obj
 0001:00033e20       ??R<lambda_983441502d0add4b02924e916fdf0ced>@@QEBA@Vappender@v10@fmt@@@Z 0000000180034e20 f i fmt:format.obj
 0001:00033f80       ??R<lambda_9ed846785a100ef7e4d8996b002e3598>@@QEBA@Vappender@v10@fmt@@@Z 0000000180034f80 f i fmt:format.obj
 0001:00034170       ??R<lambda_9f8a1ffb1b0f345f31ec2444454ef85f>@@QEBA@Vappender@v10@fmt@@@Z 0000000180035170 f i fmt:format.obj
 0001:000342c0       ??R<lambda_a6fe839563ce935b54297827b3d4aafb>@@QEBA@IPEAD@Z 00000001800352c0 f i fmt:format.obj
 0001:000343a0       ??R<lambda_c3a10a05a5c243a8828638b9afb7c2e7>@@QEBA@Vappender@v10@fmt@@@Z 00000001800353a0 f i fmt:format.obj
 0001:000344f0       ??R<lambda_d5073a984aceb9567a0bb219c4ed1076>@@QEBA@Vappender@v10@fmt@@@Z 00000001800354f0 f i fmt:format.obj
 0001:00034670       ??R<unnamed-type-parse_presentation_type>@?1???$parse_format_specs@D@detail@v10@fmt@@YAPEBDPEBD0AEAU?$dynamic_format_specs@D@123@AEAV?$basic_format_parse_context@D@23@W4type@123@@Z@QEAAPEBDW4presentation_type@23@H@Z 0000000180035670 f i fmt:format.obj
 0001:00034720       ??Rwriter@?1???$parse_format_string@$0A@DUformat_handler@?1???$vformat_to@D@detail@v10@fmt@@YAXAEAV?$buffer@D@234@V?$basic_string_view@D@34@V?$basic_format_args@V?$basic_format_context@Vappender@v10@fmt@@D@v10@fmt@@@34@Vlocale_ref@234@@Z@@detail@v10@fmt@@YAXV?$basic_string_view@D@23@$$QEAUformat_handler@?1???$vformat_to@D@123@YAXAEAV?$buffer@D@123@0V?$basic_format_args@V?$basic_format_context@Vappender@v10@fmt@@D@v10@fmt@@@23@Vlocale_ref@123@@Z@@Z@QEAAXPEBD5@Z 0000000180035720 f i fmt:format.obj
 0001:00034850       ??_3bigint@detail@v10@fmt@@QEAAAEAV0123@H@Z 0000000180035850 f i fmt:format.obj
 0001:00034910       ??_E?$format_facet@Vlocale@std@@@v10@fmt@@UEAAPEAXI@Z 0000000180035910 f i fmt:format.obj
 0001:00034910       ??_G?$format_facet@Vlocale@std@@@v10@fmt@@UEAAPEAXI@Z 0000000180035910 f i fmt:format.obj
 0001:00034950       ??_E?$numpunct@D@std@@MEAAPEAXI@Z 0000000180035950 f i fmt:format.obj
 0001:00034950       ??_G?$numpunct@D@std@@MEAAPEAXI@Z 0000000180035950 f i fmt:format.obj
 0001:000349b0       ??_Eformat_error@v10@fmt@@UEAAPEAXI@Z 00000001800359b0 f i fmt:format.obj
 0001:000349b0       ??_Gformat_error@v10@fmt@@UEAAPEAXI@Z 00000001800359b0 f i fmt:format.obj
 0001:00034a00       ??_H@YAXPEAX_K1P6APEAX0@Z@Z 0000000180035a00 f i fmt:format.obj
 0001:00034a50       ?add_compare@detail@v10@fmt@@YAHAEBVbigint@123@00@Z 0000000180035a50 f i fmt:format.obj
 0001:00034b90       ?adjust_precision@detail@v10@fmt@@YAXAEAHH@Z 0000000180035b90 f i fmt:format.obj
 0001:00034c30       ?assign_pow10@bigint@detail@v10@fmt@@QEAAXH@Z 0000000180035c30 f i fmt:format.obj
 0001:00034d60       ?check_arg_id@?$basic_format_parse_context@D@v10@fmt@@QEAAXH@Z 0000000180035d60 f i fmt:format.obj
 0001:00034df0       ?compare@detail@v10@fmt@@YAHAEBVbigint@123@0@Z 0000000180035df0 f i fmt:format.obj
 0001:00034e90       ?count_separators@?$digit_grouping@D@detail@v10@fmt@@QEBAHH@Z 0000000180035e90 f i fmt:format.obj
 0001:00034f20       ?divmod_assign@bigint@detail@v10@fmt@@QEAAHAEBV1234@@Z 0000000180035f20 f i fmt:format.obj
 0001:00035130       ?do_decimal_point@?$numpunct@D@std@@MEBADXZ 0000000180036130 f i fmt:format.obj
 0001:00035140       ?do_falsename@?$numpunct@D@std@@MEBA?AV?$basic_string@DU?$char_traits@D@std@@V?$allocator@D@2@@2@XZ 0000000180036140 f i fmt:format.obj
 0001:00035180       ?do_grouping@?$numpunct@D@std@@MEBA?AV?$basic_string@DU?$char_traits@D@std@@V?$allocator@D@2@@2@XZ 0000000180036180 f i fmt:format.obj
 0001:000351c0       ?do_put@?$format_facet@Vlocale@std@@@v10@fmt@@MEBA_NVappender@23@Vloc_value@23@AEBU?$format_specs@D@23@@Z 00000001800361c0 f   fmt:format.obj
 0001:00035310       ?do_thousands_sep@?$numpunct@D@std@@MEBADXZ 0000000180036310 f i fmt:format.obj
 0001:00035320       ?do_truename@?$numpunct@D@std@@MEBA?AV?$basic_string@DU?$char_traits@D@std@@V?$allocator@D@2@@2@XZ 0000000180036320 f i fmt:format.obj
 0001:00035360       ?format_dragon@detail@v10@fmt@@YAXU?$basic_fp@Vuint128_fallback@detail@v10@fmt@@@123@IHAEAV?$buffer@D@123@AEAH@Z 0000000180036360 f i fmt:format.obj
 0001:00036940       ?get@?$basic_format_args@V?$basic_format_context@Vappender@v10@fmt@@D@v10@fmt@@@v10@fmt@@QEBA?AV?$basic_format_arg@V?$basic_format_context@Vappender@v10@fmt@@D@v10@fmt@@@23@H@Z 0000000180037940 f i fmt:format.obj
 0001:000369b0       ?get_cached_power@?$cache_accessor@N@dragonbox@detail@v10@fmt@@SA?AVuint128_fallback@345@H@Z 00000001800379b0 f i fmt:format.obj
 0001:00036a90       ?grow@?$basic_memory_buffer@D$0BPE@V?$allocator@D@std@@@v10@fmt@@MEAAX_K@Z 0000000180037a90 f i fmt:format.obj
 0001:00036b90       ?grow@?$basic_memory_buffer@H$0BPE@V?$allocator@H@std@@@v10@fmt@@MEAAX_K@Z 0000000180037b90 f i fmt:format.obj
 0001:00036b90       ?grow@?$basic_memory_buffer@I$0CA@V?$allocator@I@std@@@v10@fmt@@MEAAX_K@Z 0000000180037b90 f i fmt:format.obj
 0001:00036cc0       ?is_printable@detail@v10@fmt@@YA_NI@Z 0000000180037cc0 f   fmt:format.obj
 0001:00036f20       ?next_arg_id@?$basic_format_parse_context@D@v10@fmt@@QEAAHXZ 0000000180037f20 f i fmt:format.obj
 0001:00036fb0       ?on_format_specs@format_handler@?1???$vformat_to@D@detail@v10@fmt@@YAXAEAV?$buffer@D@234@V?$basic_string_view@D@34@V?$basic_format_args@V?$basic_format_context@Vappender@v10@fmt@@D@v10@fmt@@@34@Vlocale_ref@234@@Z@QEAAPEBDHPEBD4@Z 0000000180037fb0 f i fmt:format.obj
 0001:00037360       ?on_replacement_field@format_handler@?1???$vformat_to@D@detail@v10@fmt@@YAXAEAV?$buffer@D@234@V?$basic_string_view@D@34@V?$basic_format_args@V?$basic_format_context@Vappender@v10@fmt@@D@v10@fmt@@@34@Vlocale_ref@234@@Z@QEAAXHPEBD@Z 0000000180038360 f i fmt:format.obj
 0001:000374a0       ?remove_trailing_zeros@dragonbox@detail@v10@fmt@@YAHAEA_K@Z 00000001800384a0 f i fmt:format.obj
 0001:000375b0       ?square@bigint@detail@v10@fmt@@QEAAXXZ 00000001800385b0 f i fmt:format.obj
 0001:00037890       ?throw_format_error@detail@v10@fmt@@YAXPEBD@Z 0000000180038890 f   fmt:format.obj
 0001:00037900       ?try_resize@?$buffer@D@detail@v10@fmt@@QEAAX_K@Z 0000000180038900 f i fmt:format.obj
 0001:00037940       ?utf8_decode@detail@v10@fmt@@YAPEBDPEBDPEAIPEAH@Z 0000000180038940 f i fmt:format.obj
 0001:00037ab0       ?vformat@v10@fmt@@YA?AV?$basic_string@DU?$char_traits@D@std@@V?$allocator@D@2@@std@@V?$basic_string_view@D@12@V?$basic_format_args@V?$basic_format_context@Vappender@v10@fmt@@D@v10@fmt@@@12@@Z 0000000180038ab0 f   fmt:format.obj
 0001:00037bb0       ?write_loc@detail@v10@fmt@@YA_NVappender@23@Vloc_value@23@AEBU?$format_specs@D@23@Vlocale_ref@123@@Z 0000000180038bb0 f   fmt:format.obj
 0001:00037e40       MH_Initialize              0000000180038e40 f   MinHook:hook.obj
 0001:00037eb0       MH_Uninitialize            0000000180038eb0 f   MinHook:hook.obj
 0001:00037f50       MH_CreateHook              0000000180038f50 f   MinHook:hook.obj
 0001:000381e0       MH_CreateHookApi           00000001800391e0 f   MinHook:hook.obj
 0001:00038230       MH_CreateHookApiEx         0000000180039230 f   MinHook:hook.obj
 0001:000382c0       MH_RemoveHook              00000001800392c0 f   MinHook:hook.obj
 0001:000383a0       MH_EnableHook              00000001800393a0 f   MinHook:hook.obj
 0001:000383d0       MH_DisableHook             00000001800393d0 f   MinHook:hook.obj
 0001:000383f0       MH_QueueEnableHook         00000001800393f0 f   MinHook:hook.obj
 0001:00038420       MH_QueueDisableHook        0000000180039420 f   MinHook:hook.obj
 0001:00038440       MH_ApplyQueued             0000000180039440 f   MinHook:hook.obj
 0001:000385c0       MH_StatusToString          00000001800395c0 f   MinHook:hook.obj
 0001:00039540       InitializeBuffer           000000018003a540 f   MinHook:buffer.obj
 0001:00039550       UninitializeBuffer         000000018003a550 f   MinHook:buffer.obj
 0001:000395b0       AllocateBuffer             000000018003a5b0 f   MinHook:buffer.obj
 0001:00039620       FreeBuffer                 000000018003a620 f   MinHook:buffer.obj
 0001:00039720       IsExecutableAddress        000000018003a720 f   MinHook:buffer.obj
 0001:00039bf0       CreateTrampolineFunction   000000018003abf0 f   MinHook:trampoline.obj
 0001:0003a430       hde64_disasm               000000018003b430 f   MinHook:hde64.obj
 0001:0003b430       ?CreateContext@ImGui@@YAPEAUImGuiContext@@PEAUImFontAtlas@@@Z 000000018003c430 f   ImGui:imgui.obj
 0001:0003b4f0       ?DestroyContext@ImGui@@YAXPEAUImGuiContext@@@Z 000000018003c4f0 f   ImGui:imgui.obj
 0001:0003b570       ?GetCurrentContext@ImGui@@YAPEAUImGuiContext@@XZ 000000018003c570 f   ImGui:imgui.obj
 0001:0003b580       ?SetCurrentContext@ImGui@@YAXPEAUImGuiContext@@@Z 000000018003c580 f   ImGui:imgui.obj
 0001:0003b5a0       ?GetIO@ImGui@@YAAEAUImGuiIO@@XZ 000000018003c5a0 f   ImGui:imgui.obj
 0001:0003b5c0       ?GetStyle@ImGui@@YAAEAUImGuiStyle@@XZ 000000018003c5c0 f   ImGui:imgui.obj
 0001:0003b5e0       ?NewFrame@ImGui@@YAXXZ     000000018003c5e0 f   ImGui:imgui.obj
 0001:0003c4e0       ?EndFrame@ImGui@@YAXXZ     000000018003d4e0 f   ImGui:imgui.obj
 0001:0003c870       ?Render@ImGui@@YAXXZ       000000018003d870 f   ImGui:imgui.obj
 0001:0003cd10       ?GetDrawData@ImGui@@YAPEAUImDrawData@@XZ 000000018003dd10 f   ImGui:imgui.obj
 0001:0003cd80       ?ShowMetricsWindow@ImGui@@YAXPEA_N@Z 000000018003dd80 f   ImGui:imgui.obj
 0001:0003f0f0       ?ShowDebugLogWindow@ImGui@@YAXPEA_N@Z 00000001800400f0 f   ImGui:imgui.obj
 0001:0003f3f0       ?ShowStackToolWindow@ImGui@@YAXPEA_N@Z 00000001800403f0 f   ImGui:imgui.obj
 0001:0003f9c0       ?GetVersion@ImGui@@YAPEBDXZ 00000001800409c0 f   ImGui:imgui.obj
 0001:0003f9d0       ?Begin@ImGui@@YA_NPEBDPEA_NH@Z 00000001800409d0 f   ImGui:imgui.obj
 0001:00042d30       ?End@ImGui@@YAXXZ          0000000180043d30 f   ImGui:imgui.obj
 0001:00042eb0       ?BeginChild@ImGui@@YA_NPEBDAEBUImVec2@@_NH@Z 0000000180043eb0 f   ImGui:imgui.obj
 0001:00042f10       ?BeginChild@ImGui@@YA_NIAEBUImVec2@@_NH@Z 0000000180043f10 f   ImGui:imgui.obj
 0001:00042f50       ?EndChild@ImGui@@YAXXZ     0000000180043f50 f   ImGui:imgui.obj
 0001:00043210       ?IsWindowAppearing@ImGui@@YA_NXZ 0000000180044210 f   ImGui:imgui.obj
 0001:00043240       ?IsWindowCollapsed@ImGui@@YA_NXZ 0000000180044240 f   ImGui:imgui.obj
 0001:00043270       ?IsWindowFocused@ImGui@@YA_NH@Z 0000000180044270 f   ImGui:imgui.obj
 0001:00043360       ?IsWindowHovered@ImGui@@YA_NH@Z 0000000180044360 f   ImGui:imgui.obj
 0001:000434c0       ?GetWindowDrawList@ImGui@@YAPEAUImDrawList@@XZ 00000001800444c0 f   ImGui:imgui.obj
 0001:000434f0       ?GetWindowPos@ImGui@@YA?AUImVec2@@XZ 00000001800444f0 f   ImGui:imgui.obj
 0001:00043540       ?GetWindowSize@ImGui@@YA?AUImVec2@@XZ 0000000180044540 f   ImGui:imgui.obj
 0001:00043580       ?GetWindowWidth@ImGui@@YAMXZ 0000000180044580 f   ImGui:imgui.obj
 0001:000435b0       ?GetWindowHeight@ImGui@@YAMXZ 00000001800445b0 f   ImGui:imgui.obj
 0001:000435e0       ?SetNextWindowPos@ImGui@@YAXAEBUImVec2@@H0@Z 00000001800445e0 f   ImGui:imgui.obj
 0001:00043670       ?SetNextWindowSize@ImGui@@YAXAEBUImVec2@@H@Z 0000000180044670 f   ImGui:imgui.obj
 0001:000436f0       ?SetNextWindowSizeConstraints@ImGui@@YAXAEBUImVec2@@0P6AXPEAUImGuiSizeCallbackData@@@ZPEAX@Z 00000001800446f0 f   ImGui:imgui.obj
 0001:00043790       ?SetNextWindowContentSize@ImGui@@YAXAEBUImVec2@@@Z 0000000180044790 f   ImGui:imgui.obj
 0001:000437f0       ?SetNextWindowCollapsed@ImGui@@YAX_NH@Z 00000001800447f0 f   ImGui:imgui.obj
 0001:00043870       ?SetNextWindowFocus@ImGui@@YAXXZ 0000000180044870 f   ImGui:imgui.obj
 0001:000438b0       ?SetNextWindowBgAlpha@ImGui@@YAXM@Z 00000001800448b0 f   ImGui:imgui.obj
 0001:00043900       ?SetWindowPos@ImGui@@YAXAEBUImVec2@@H@Z 0000000180044900 f   ImGui:imgui.obj
 0001:00043940       ?SetWindowSize@ImGui@@YAXAEBUImVec2@@H@Z 0000000180044940 f   ImGui:imgui.obj
 0001:00043980       ?SetWindowCollapsed@ImGui@@YAX_NH@Z 0000000180044980 f   ImGui:imgui.obj
 0001:000439c0       ?SetWindowFocus@ImGui@@YAXXZ 00000001800449c0 f   ImGui:imgui.obj
 0001:000439f0       ?SetWindowFontScale@ImGui@@YAXM@Z 00000001800449f0 f   ImGui:imgui.obj
 0001:00043a70       ?SetWindowPos@ImGui@@YAXPEBDAEBUImVec2@@H@Z 0000000180044a70 f   ImGui:imgui.obj
 0001:00043ac0       ?SetWindowSize@ImGui@@YAXPEBDAEBUImVec2@@H@Z 0000000180044ac0 f   ImGui:imgui.obj
 0001:00043b10       ?SetWindowCollapsed@ImGui@@YAXPEBD_NH@Z 0000000180044b10 f   ImGui:imgui.obj
 0001:00043b60       ?SetWindowFocus@ImGui@@YAXPEBD@Z 0000000180044b60 f   ImGui:imgui.obj
 0001:00043bb0       ?GetContentRegionAvail@ImGui@@YA?AUImVec2@@XZ 0000000180044bb0 f   ImGui:imgui.obj
 0001:00043c10       ?GetContentRegionMax@ImGui@@YA?AUImVec2@@XZ 0000000180044c10 f   ImGui:imgui.obj
 0001:00043cb0       ?GetWindowContentRegionMin@ImGui@@YA?AUImVec2@@XZ 0000000180044cb0 f   ImGui:imgui.obj
 0001:00043d10       ?GetWindowContentRegionMax@ImGui@@YA?AUImVec2@@XZ 0000000180044d10 f   ImGui:imgui.obj
 0001:00043d70       ?GetScrollX@ImGui@@YAMXZ   0000000180044d70 f   ImGui:imgui.obj
 0001:00043da0       ?GetScrollY@ImGui@@YAMXZ   0000000180044da0 f   ImGui:imgui.obj
 0001:00043dd0       ?SetScrollX@ImGui@@YAXM@Z  0000000180044dd0 f   ImGui:imgui.obj
 0001:00043e10       ?SetScrollY@ImGui@@YAXM@Z  0000000180044e10 f   ImGui:imgui.obj
 0001:00043e50       ?GetScrollMaxX@ImGui@@YAMXZ 0000000180044e50 f   ImGui:imgui.obj
 0001:00043e80       ?GetScrollMaxY@ImGui@@YAMXZ 0000000180044e80 f   ImGui:imgui.obj
 0001:00043eb0       ?SetScrollHereX@ImGui@@YAXM@Z 0000000180044eb0 f   ImGui:imgui.obj
 0001:00043fa0       ?SetScrollHereY@ImGui@@YAXM@Z 0000000180044fa0 f   ImGui:imgui.obj
 0001:000440a0       ?SetScrollFromPosX@ImGui@@YAXMM@Z 00000001800450a0 f   ImGui:imgui.obj
 0001:000440f0       ?SetScrollFromPosY@ImGui@@YAXMM@Z 00000001800450f0 f   ImGui:imgui.obj
 0001:00044140       ?PushFont@ImGui@@YAXPEAUImFont@@@Z 0000000180045140 f   ImGui:imgui.obj
 0001:000441d0       ?PopFont@ImGui@@YAXXZ      00000001800451d0 f   ImGui:imgui.obj
 0001:00044270       ?PushStyleColor@ImGui@@YAXHI@Z 0000000180045270 f   ImGui:imgui.obj
 0001:00044330       ?PushStyleColor@ImGui@@YAXHAEBUImVec4@@@Z 0000000180045330 f   ImGui:imgui.obj
 0001:000443d0       ?PopStyleColor@ImGui@@YAXH@Z 00000001800453d0 f   ImGui:imgui.obj
 0001:00044460       ?PushStyleVar@ImGui@@YAXHM@Z 0000000180045460 f   ImGui:imgui.obj
 0001:00044510       ?PushStyleVar@ImGui@@YAXHAEBUImVec2@@@Z 0000000180045510 f   ImGui:imgui.obj
 0001:000445c0       ?PopStyleVar@ImGui@@YAXH@Z 00000001800455c0 f   ImGui:imgui.obj
 0001:00044700       ?PushAllowKeyboardFocus@ImGui@@YAX_N@Z 0000000180045700 f   ImGui:imgui.obj
 0001:00044740       ?PopAllowKeyboardFocus@ImGui@@YAXXZ 0000000180045740 f   ImGui:imgui.obj
 0001:00044760       ?PushButtonRepeat@ImGui@@YAX_N@Z 0000000180045760 f   ImGui:imgui.obj
 0001:00044790       ?PopButtonRepeat@ImGui@@YAXXZ 0000000180045790 f   ImGui:imgui.obj
 0001:000447b0       ?PushItemWidth@ImGui@@YAXM@Z 00000001800457b0 f   ImGui:imgui.obj
 0001:00044870       ?PopItemWidth@ImGui@@YAXXZ 0000000180045870 f   ImGui:imgui.obj
 0001:000448c0       ?SetNextItemWidth@ImGui@@YAXM@Z 00000001800458c0 f   ImGui:imgui.obj
 0001:00044910       ?CalcItemWidth@ImGui@@YAMXZ 0000000180045910 f   ImGui:imgui.obj
 0001:000449e0       ?PushTextWrapPos@ImGui@@YAXM@Z 00000001800459e0 f   ImGui:imgui.obj
 0001:00044a40       ?PopTextWrapPos@ImGui@@YAXXZ 0000000180045a40 f   ImGui:imgui.obj
 0001:00044a90       ?GetFont@ImGui@@YAPEAUImFont@@XZ 0000000180045a90 f   ImGui:imgui.obj
 0001:00044ab0       ?GetFontSize@ImGui@@YAMXZ  0000000180045ab0 f   ImGui:imgui.obj
 0001:00044ad0       ?GetFontTexUvWhitePixel@ImGui@@YA?AUImVec2@@XZ 0000000180045ad0 f   ImGui:imgui.obj
 0001:00044b00       ?GetColorU32@ImGui@@YAIHM@Z 0000000180045b00 f   ImGui:imgui.obj
 0001:00044b80       ?GetColorU32@ImGui@@YAIAEBUImVec4@@@Z 0000000180045b80 f   ImGui:imgui.obj
 0001:00044be0       ?GetColorU32@ImGui@@YAII@Z 0000000180045be0 f   ImGui:imgui.obj
 0001:00044c60       ?GetStyleColorVec4@ImGui@@YAAEBUImVec4@@H@Z 0000000180045c60 f   ImGui:imgui.obj
 0001:00044ca0       ?SameLine@ImGui@@YAXMM@Z   0000000180045ca0 f   ImGui:imgui.obj
 0001:00044e10       ?Indent@ImGui@@YAXM@Z      0000000180045e10 f   ImGui:imgui.obj
 0001:00044ec0       ?Unindent@ImGui@@YAXM@Z    0000000180045ec0 f   ImGui:imgui.obj
 0001:00044f70       ?BeginGroup@ImGui@@YAXXZ   0000000180045f70 f   ImGui:imgui.obj
 0001:00045170       ?EndGroup@ImGui@@YAXXZ     0000000180046170 f   ImGui:imgui.obj
 0001:00045510       ?GetCursorPos@ImGui@@YA?AUImVec2@@XZ 0000000180046510 f   ImGui:imgui.obj
 0001:00045580       ?GetCursorPosX@ImGui@@YAMXZ 0000000180046580 f   ImGui:imgui.obj
 0001:000455c0       ?GetCursorPosY@ImGui@@YAMXZ 00000001800465c0 f   ImGui:imgui.obj
 0001:00045600       ?SetCursorPos@ImGui@@YAXAEBUImVec2@@@Z 0000000180046600 f   ImGui:imgui.obj
 0001:000456a0       ?SetCursorPosX@ImGui@@YAXM@Z 00000001800466a0 f   ImGui:imgui.obj
 0001:00045720       ?SetCursorPosY@ImGui@@YAXM@Z 0000000180046720 f   ImGui:imgui.obj
 0001:000457a0       ?GetCursorStartPos@ImGui@@YA?AUImVec2@@XZ 00000001800467a0 f   ImGui:imgui.obj
 0001:000457f0       ?GetCursorScreenPos@ImGui@@YA?AUImVec2@@XZ 00000001800467f0 f   ImGui:imgui.obj
 0001:00045830       ?SetCursorScreenPos@ImGui@@YAXAEBUImVec2@@@Z 0000000180046830 f   ImGui:imgui.obj
 0001:000458a0       ?GetTextLineHeight@ImGui@@YAMXZ 00000001800468a0 f   ImGui:imgui.obj
 0001:000458d0       ?GetTextLineHeightWithSpacing@ImGui@@YAMXZ 00000001800468d0 f   ImGui:imgui.obj
 0001:00045910       ?GetFrameHeight@ImGui@@YAMXZ 0000000180046910 f   ImGui:imgui.obj
 0001:00045950       ?GetFrameHeightWithSpacing@ImGui@@YAMXZ 0000000180046950 f   ImGui:imgui.obj
 0001:000459a0       ?PushID@ImGui@@YAXPEBD@Z   00000001800469a0 f   ImGui:imgui.obj
 0001:00045a10       ?PushID@ImGui@@YAXPEBD0@Z  0000000180046a10 f   ImGui:imgui.obj
 0001:00045a80       ?PushID@ImGui@@YAXPEBX@Z   0000000180046a80 f   ImGui:imgui.obj
 0001:00045af0       ?PushID@ImGui@@YAXH@Z      0000000180046af0 f   ImGui:imgui.obj
 0001:00045b60       ?PopID@ImGui@@YAXXZ        0000000180046b60 f   ImGui:imgui.obj
 0001:00045ba0       ?GetID@ImGui@@YAIPEBD@Z    0000000180046ba0 f   ImGui:imgui.obj
 0001:00045be0       ?GetID@ImGui@@YAIPEBD0@Z   0000000180046be0 f   ImGui:imgui.obj
 0001:00045c20       ?GetID@ImGui@@YAIPEBX@Z    0000000180046c20 f   ImGui:imgui.obj
 0001:00045c60       ?BeginTooltip@ImGui@@YAXXZ 0000000180046c60 f   ImGui:imgui.obj
 0001:00045c80       ?EndTooltip@ImGui@@YAXXZ   0000000180046c80 f   ImGui:imgui.obj
 0001:00045ca0       ?SetTooltip@ImGui@@YAXPEBDZZ 0000000180046ca0 f   ImGui:imgui.obj
 0001:00045cf0       ?SetTooltipV@ImGui@@YAXPEBDPEAD@Z 0000000180046cf0 f   ImGui:imgui.obj
 0001:00045d30       ?BeginPopup@ImGui@@YA_NPEBDH@Z 0000000180046d30 f   ImGui:imgui.obj
 0001:00045dd0       ?BeginPopupModal@ImGui@@YA_NPEBDPEA_NH@Z 0000000180046dd0 f   ImGui:imgui.obj
 0001:00045f40       ?EndPopup@ImGui@@YAXXZ     0000000180046f40 f   ImGui:imgui.obj
 0001:00045fc0       ?OpenPopup@ImGui@@YAXPEBDH@Z 0000000180046fc0 f   ImGui:imgui.obj
 0001:00046050       ?OpenPopup@ImGui@@YAXIH@Z  0000000180047050 f   ImGui:imgui.obj
 0001:00046080       ?OpenPopupOnItemClick@ImGui@@YAXPEBDH@Z 0000000180047080 f   ImGui:imgui.obj
 0001:00046130       ?CloseCurrentPopup@ImGui@@YAXXZ 0000000180047130 f   ImGui:imgui.obj
 0001:000462e0       ?BeginPopupContextItem@ImGui@@YA_NPEBDH@Z 00000001800472e0 f   ImGui:imgui.obj
 0001:000463b0       ?BeginPopupContextWindow@ImGui@@YA_NPEBDH@Z 00000001800473b0 f   ImGui:imgui.obj
 0001:00046470       ?BeginPopupContextVoid@ImGui@@YA_NPEBDH@Z 0000000180047470 f   ImGui:imgui.obj
 0001:00046520       ?IsPopupOpen@ImGui@@YA_NPEBDH@Z 0000000180047520 f   ImGui:imgui.obj
 0001:000465a0       ?LogToTTY@ImGui@@YAXH@Z    00000001800475a0 f   ImGui:imgui.obj
 0001:00046600       ?LogToFile@ImGui@@YAXHPEBD@Z 0000000180047600 f   ImGui:imgui.obj
 0001:000466b0       ?LogToClipboard@ImGui@@YAXH@Z 00000001800476b0 f   ImGui:imgui.obj
 0001:000466f0       ?LogFinish@ImGui@@YAXXZ    00000001800476f0 f   ImGui:imgui.obj
 0001:000467f0       ?LogButtons@ImGui@@YAXXZ   00000001800477f0 f   ImGui:imgui.obj
 0001:00046950       ?LogText@ImGui@@YAXPEBDZZ  0000000180047950 f   ImGui:imgui.obj
 0001:000469c0       ?LogTextV@ImGui@@YAXPEBDPEAD@Z 00000001800479c0 f   ImGui:imgui.obj
 0001:00046a10       ?BeginDragDropSource@ImGui@@YA_NH@Z 0000000180047a10 f   ImGui:imgui.obj
 0001:00046de0       ?SetDragDropPayload@ImGui@@YA_NPEBDPEBX_KH@Z 0000000180047de0 f   ImGui:imgui.obj
 0001:00046fa0       ?EndDragDropSource@ImGui@@YAXXZ 0000000180047fa0 f   ImGui:imgui.obj
 0001:00047000       ?BeginDragDropTarget@ImGui@@YA_NXZ 0000000180048000 f   ImGui:imgui.obj
 0001:00047170       ?AcceptDragDropPayload@ImGui@@YAPEBUImGuiPayload@@PEBDH@Z 0000000180048170 f   ImGui:imgui.obj
 0001:00047460       ?EndDragDropTarget@ImGui@@YAXXZ 0000000180048460 f   ImGui:imgui.obj
 0001:00047490       ?GetDragDropPayload@ImGui@@YAPEBUImGuiPayload@@XZ 0000000180048490 f   ImGui:imgui.obj
 0001:000474e0       ?BeginDisabled@ImGui@@YAX_N@Z 00000001800484e0 f   ImGui:imgui.obj
 0001:000475f0       ?EndDisabled@ImGui@@YAXXZ  00000001800485f0 f   ImGui:imgui.obj
 0001:000476c0       ?PushClipRect@ImGui@@YAXAEBUImVec2@@0_N@Z 00000001800486c0 f   ImGui:imgui.obj
 0001:00047760       ?PopClipRect@ImGui@@YAXXZ  0000000180048760 f   ImGui:imgui.obj
 0001:000477d0       ?SetItemDefaultFocus@ImGui@@YAXXZ 00000001800487d0 f   ImGui:imgui.obj
 0001:00047900       ?SetKeyboardFocusHere@ImGui@@YAXH@Z 0000000180048900 f   ImGui:imgui.obj
 0001:00047a50       ?IsItemHovered@ImGui@@YA_NH@Z 0000000180048a50 f   ImGui:imgui.obj
 0001:00047d20       ?IsItemActive@ImGui@@YA_NXZ 0000000180048d20 f   ImGui:imgui.obj
 0001:00047d80       ?IsItemFocused@ImGui@@YA_NXZ 0000000180048d80 f   ImGui:imgui.obj
 0001:00047dd0       ?IsItemClicked@ImGui@@YA_NH@Z 0000000180048dd0 f   ImGui:imgui.obj
 0001:00047e20       ?IsItemVisible@ImGui@@YA_NXZ 0000000180048e20 f   ImGui:imgui.obj
 0001:00047e70       ?IsItemEdited@ImGui@@YA_NXZ 0000000180048e70 f   ImGui:imgui.obj
 0001:00047ec0       ?IsItemActivated@ImGui@@YA_NXZ 0000000180048ec0 f   ImGui:imgui.obj
 0001:00047f20       ?IsItemDeactivated@ImGui@@YA_NXZ 0000000180048f20 f   ImGui:imgui.obj
 0001:00047fd0       ?IsItemDeactivatedAfterEdit@ImGui@@YA_NXZ 0000000180048fd0 f   ImGui:imgui.obj
 0001:00048040       ?IsItemToggledOpen@ImGui@@YA_NXZ 0000000180049040 f   ImGui:imgui.obj
 0001:00048080       ?IsAnyItemHovered@ImGui@@YA_NXZ 0000000180049080 f   ImGui:imgui.obj
 0001:000480d0       ?IsAnyItemActive@ImGui@@YA_NXZ 00000001800490d0 f   ImGui:imgui.obj
 0001:00048110       ?IsAnyItemFocused@ImGui@@YA_NXZ 0000000180049110 f   ImGui:imgui.obj
 0001:00048160       ?GetItemRectMin@ImGui@@YA?AUImVec2@@XZ 0000000180049160 f   ImGui:imgui.obj
 0001:000481a0       ?GetItemRectMax@ImGui@@YA?AUImVec2@@XZ 00000001800491a0 f   ImGui:imgui.obj
 0001:000481e0       ?GetItemRectSize@ImGui@@YA?AUImVec2@@XZ 00000001800491e0 f   ImGui:imgui.obj
 0001:00048230       ?SetItemAllowOverlap@ImGui@@YAXXZ 0000000180049230 f   ImGui:imgui.obj
 0001:000482a0       ?GetMainViewport@ImGui@@YAPEAUImGuiViewport@@XZ 00000001800492a0 f   ImGui:imgui.obj
 0001:000482e0       ?GetBackgroundDrawList@ImGui@@YAPEAUImDrawList@@XZ 00000001800492e0 f   ImGui:imgui.obj
 0001:00048320       ?GetForegroundDrawList@ImGui@@YAPEAUImDrawList@@XZ 0000000180049320 f   ImGui:imgui.obj
 0001:00048360       ?IsRectVisible@ImGui@@YA_NAEBUImVec2@@@Z 0000000180049360 f   ImGui:imgui.obj
 0001:000483e0       ?IsRectVisible@ImGui@@YA_NAEBUImVec2@@0@Z 00000001800493e0 f   ImGui:imgui.obj
 0001:00048440       ?GetTime@ImGui@@YANXZ      0000000180049440 f   ImGui:imgui.obj
 0001:00048460       ?GetFrameCount@ImGui@@YAHXZ 0000000180049460 f   ImGui:imgui.obj
 0001:00048480       ?GetDrawListSharedData@ImGui@@YAPEAUImDrawListSharedData@@XZ 0000000180049480 f   ImGui:imgui.obj
 0001:000484a0       ?GetStyleColorName@ImGui@@YAPEBDH@Z 00000001800494a0 f   ImGui:imgui.obj
 0001:00048810       ?SetStateStorage@ImGui@@YAXPEAUImGuiStorage@@@Z 0000000180049810 f   ImGui:imgui.obj
 0001:00048870       ?GetStateStorage@ImGui@@YAPEAUImGuiStorage@@XZ 0000000180049870 f   ImGui:imgui.obj
 0001:000488a0       ?BeginChildFrame@ImGui@@YA_NIAEBUImVec2@@H@Z 00000001800498a0 f   ImGui:imgui.obj
 0001:00048980       ?EndChildFrame@ImGui@@YAXXZ 0000000180049980 f   ImGui:imgui.obj
 0001:000489a0       ?CalcTextSize@ImGui@@YA?AUImVec2@@PEBD0_NM@Z 00000001800499a0 f   ImGui:imgui.obj
 0001:00048ae0       ?ColorConvertU32ToFloat4@ImGui@@YA?AUImVec4@@I@Z 0000000180049ae0 f   ImGui:imgui.obj
 0001:00048b90       ?ColorConvertFloat4ToU32@ImGui@@YAIAEBUImVec4@@@Z 0000000180049b90 f   ImGui:imgui.obj
 0001:00048c70       ?ColorConvertRGBtoHSV@ImGui@@YAXMMMAEAM00@Z 0000000180049c70 f   ImGui:imgui.obj
 0001:00048db0       ?ColorConvertHSVtoRGB@ImGui@@YAXMMMAEAM00@Z 0000000180049db0 f   ImGui:imgui.obj
 0001:00049040       ?IsKeyDown@ImGui@@YA_NH@Z  000000018004a040 f   ImGui:imgui.obj
 0001:00049080       ?IsKeyPressed@ImGui@@YA_NH_N@Z 000000018004a080 f   ImGui:imgui.obj
 0001:000490c0       ?IsKeyReleased@ImGui@@YA_NH@Z 000000018004a0c0 f   ImGui:imgui.obj
 0001:00049110       ?GetKeyPressedAmount@ImGui@@YAHHMM@Z 000000018004a110 f   ImGui:imgui.obj
 0001:00049180       ?GetKeyName@ImGui@@YAPEBDH@Z 000000018004a180 f   ImGui:imgui.obj
 0001:00049220       ?SetNextFrameWantCaptureKeyboard@ImGui@@YAX_N@Z 000000018004a220 f   ImGui:imgui.obj
 0001:00049270       ?IsMouseDown@ImGui@@YA_NH@Z 000000018004a270 f   ImGui:imgui.obj
 0001:000492a0       ?IsMouseClicked@ImGui@@YA_NH_N@Z 000000018004a2a0 f   ImGui:imgui.obj
 0001:00049360       ?IsMouseReleased@ImGui@@YA_NH@Z 000000018004a360 f   ImGui:imgui.obj
 0001:00049390       ?IsMouseDoubleClicked@ImGui@@YA_NH@Z 000000018004a390 f   ImGui:imgui.obj
 0001:000493e0       ?GetMouseClickedCount@ImGui@@YAHH@Z 000000018004a3e0 f   ImGui:imgui.obj
 0001:00049410       ?IsMouseHoveringRect@ImGui@@YA_NAEBUImVec2@@0_N@Z 000000018004a410 f   ImGui:imgui.obj
 0001:00049500       ?IsMousePosValid@ImGui@@YA_NPEBUImVec2@@@Z 000000018004a500 f   ImGui:imgui.obj
 0001:000495a0       ?IsAnyMouseDown@ImGui@@YA_NXZ 000000018004a5a0 f   ImGui:imgui.obj
 0001:000495f0       ?GetMousePos@ImGui@@YA?AUImVec2@@XZ 000000018004a5f0 f   ImGui:imgui.obj
 0001:00049630       ?GetMousePosOnOpeningCurrentPopup@ImGui@@YA?AUImVec2@@XZ 000000018004a630 f   ImGui:imgui.obj
 0001:000496c0       ?IsMouseDragging@ImGui@@YA_NHM@Z 000000018004a6c0 f   ImGui:imgui.obj
 0001:00049710       ?GetMouseDragDelta@ImGui@@YA?AUImVec2@@HM@Z 000000018004a710 f   ImGui:imgui.obj
 0001:00049840       ?ResetMouseDragDelta@ImGui@@YAXH@Z 000000018004a840 f   ImGui:imgui.obj
 0001:00049880       ?GetMouseCursor@ImGui@@YAHXZ 000000018004a880 f   ImGui:imgui.obj
 0001:000498b0       ?SetMouseCursor@ImGui@@YAXH@Z 000000018004a8b0 f   ImGui:imgui.obj
 0001:000498e0       ?SetNextFrameWantCaptureMouse@ImGui@@YAX_N@Z 000000018004a8e0 f   ImGui:imgui.obj
 0001:00049930       ?GetClipboardText@ImGui@@YAPEBDXZ 000000018004a930 f   ImGui:imgui.obj
 0001:000499a0       ?SetClipboardText@ImGui@@YAXPEBD@Z 000000018004a9a0 f   ImGui:imgui.obj
 0001:00049a00       ?LoadIniSettingsFromDisk@ImGui@@YAXPEBD@Z 000000018004aa00 f   ImGui:imgui.obj
 0001:00049a70       ?LoadIniSettingsFromMemory@ImGui@@YAXPEBD_K@Z 000000018004aa70 f   ImGui:imgui.obj
 0001:00049f70       ?SaveIniSettingsToDisk@ImGui@@YAXPEBD@Z 000000018004af70 f   ImGui:imgui.obj
 0001:0004a010       ?SaveIniSettingsToMemory@ImGui@@YAPEBDPEA_K@Z 000000018004b010 f   ImGui:imgui.obj
 0001:0004a130       ?DebugTextEncoding@ImGui@@YAXPEBD@Z 000000018004b130 f   ImGui:imgui.obj
 0001:0004a350       ?DebugCheckVersionAndDataLayout@ImGui@@YA_NPEBD_K11111@Z 000000018004b350 f   ImGui:imgui.obj
 0001:0004a410       ?SetAllocatorFunctions@ImGui@@YAXP6APEAX_KPEAX@ZP6AX11@Z1@Z 000000018004b410 f   ImGui:imgui.obj
 0001:0004a450       ?GetAllocatorFunctions@ImGui@@YAXPEAP6APEAX_KPEAX@ZPEAP6AX11@ZPEAPEAX@Z 000000018004b450 f   ImGui:imgui.obj
 0001:0004a4a0       ?MemAlloc@ImGui@@YAPEAX_K@Z 000000018004b4a0 f   ImGui:imgui.obj
 0001:0004a500       ?MemFree@ImGui@@YAXPEAX@Z  000000018004b500 f   ImGui:imgui.obj
 0001:0004a570       ??0ImGuiStyle@@QEAA@XZ     000000018004b570 f   ImGui:imgui.obj
 0001:0004aad0       ?ScaleAllSizes@ImGuiStyle@@QEAAXM@Z 000000018004bad0 f   ImGui:imgui.obj
 0001:0004afc0       ?AddKeyEvent@ImGuiIO@@QEAAXH_N@Z 000000018004bfc0 f   ImGui:imgui.obj
 0001:0004b030       ?AddKeyAnalogEvent@ImGuiIO@@QEAAXH_NM@Z 000000018004c030 f   ImGui:imgui.obj
 0001:0004b240       ?AddMousePosEvent@ImGuiIO@@QEAAXMM@Z 000000018004c240 f   ImGui:imgui.obj
 0001:0004b2d0       ?AddMouseButtonEvent@ImGuiIO@@QEAAXH_N@Z 000000018004c2d0 f   ImGui:imgui.obj
 0001:0004b360       ?AddMouseWheelEvent@ImGuiIO@@QEAAXMM@Z 000000018004c360 f   ImGui:imgui.obj
 0001:0004b410       ?AddFocusEvent@ImGuiIO@@QEAAX_N@Z 000000018004c410 f   ImGui:imgui.obj
 0001:0004b470       ?AddInputCharacter@ImGuiIO@@QEAAXI@Z 000000018004c470 f   ImGui:imgui.obj
 0001:0004b4f0       ?AddInputCharacterUTF16@ImGuiIO@@QEAAXG@Z 000000018004c4f0 f   ImGui:imgui.obj
 0001:0004b5e0       ?AddInputCharactersUTF8@ImGuiIO@@QEAAXPEBD@Z 000000018004c5e0 f   ImGui:imgui.obj
 0001:0004b660       ?SetKeyEventNativeData@ImGuiIO@@QEAAXHHHH@Z 000000018004c660 f   ImGui:imgui.obj
 0001:0004b6f0       ?SetAppAcceptingEvents@ImGuiIO@@QEAAX_N@Z 000000018004c6f0 f   ImGui:imgui.obj
 0001:0004b710       ?ClearInputCharacters@ImGuiIO@@QEAAXXZ 000000018004c710 f   ImGui:imgui.obj
 0001:0004b740       ?ClearInputKeys@ImGuiIO@@QEAAXXZ 000000018004c740 f   ImGui:imgui.obj
 0001:0004b830       ??0ImGuiIO@@QEAA@XZ        000000018004c830 f   ImGui:imgui.obj
 0001:0004bcb0       ??0ImGuiTextFilter@@QEAA@PEBD@Z 000000018004ccb0 f   ImGui:imgui.obj
 0001:0004bd30       ?Draw@ImGuiTextFilter@@QEAA_NPEBDM@Z 000000018004cd30 f   ImGui:imgui.obj
 0001:0004bdc0       ?PassFilter@ImGuiTextFilter@@QEBA_NPEBD0@Z 000000018004cdc0 f   ImGui:imgui.obj
 0001:0004bf00       ?Build@ImGuiTextFilter@@QEAAXXZ 000000018004cf00 f   ImGui:imgui.obj
 0001:0004c0d0       ?split@ImGuiTextRange@ImGuiTextFilter@@QEBAXDPEAU?$ImVector@UImGuiTextRange@ImGuiTextFilter@@@@@Z 000000018004d0d0 f   ImGui:imgui.obj
 0001:0004c1a0       ?append@ImGuiTextBuffer@@QEAAXPEBD0@Z 000000018004d1a0 f   ImGui:imgui.obj
 0001:0004c320       ?appendf@ImGuiTextBuffer@@QEAAXPEBDZZ 000000018004d320 f   ImGui:imgui.obj
 0001:0004c370       ?appendfv@ImGuiTextBuffer@@QEAAXPEBDPEAD@Z 000000018004d370 f   ImGui:imgui.obj
 0001:0004c4c0       ?GetInt@ImGuiStorage@@QEBAHIH@Z 000000018004d4c0 f   ImGui:imgui.obj
 0001:0004c530       ?SetInt@ImGuiStorage@@QEAAXIH@Z 000000018004d530 f   ImGui:imgui.obj
 0001:0004c5d0       ?GetBool@ImGuiStorage@@QEBA_NI_N@Z 000000018004d5d0 f   ImGui:imgui.obj
 0001:0004c640       ?SetBool@ImGuiStorage@@QEAAXI_N@Z 000000018004d640 f   ImGui:imgui.obj
 0001:0004c690       ?GetFloat@ImGuiStorage@@QEBAMIM@Z 000000018004d690 f   ImGui:imgui.obj
 0001:0004c700       ?SetFloat@ImGuiStorage@@QEAAXIM@Z 000000018004d700 f   ImGui:imgui.obj
 0001:0004c7a0       ?GetVoidPtr@ImGuiStorage@@QEBAPEAXI@Z 000000018004d7a0 f   ImGui:imgui.obj
 0001:0004c800       ?SetVoidPtr@ImGuiStorage@@QEAAXIPEAX@Z 000000018004d800 f   ImGui:imgui.obj
 0001:0004c8a0       ?GetIntRef@ImGuiStorage@@QEAAPEAHIH@Z 000000018004d8a0 f   ImGui:imgui.obj
 0001:0004c940       ?GetBoolRef@ImGuiStorage@@QEAAPEA_NI_N@Z 000000018004d940 f   ImGui:imgui.obj
 0001:0004c990       ?GetFloatRef@ImGuiStorage@@QEAAPEAMIM@Z 000000018004d990 f   ImGui:imgui.obj
 0001:0004ca30       ?GetVoidPtrRef@ImGuiStorage@@QEAAPEAPEAXIPEAX@Z 000000018004da30 f   ImGui:imgui.obj
 0001:0004cad0       ?SetAllInt@ImGuiStorage@@QEAAXH@Z 000000018004dad0 f   ImGui:imgui.obj
 0001:0004cb30       ?BuildSortByKey@ImGuiStorage@@QEAAXXZ 000000018004db30 f   ImGui:imgui.obj
 0001:0004cb70       ??0ImGuiListClipper@@QEAA@XZ 000000018004db70 f   ImGui:imgui.obj
 0001:0004cbb0       ??1ImGuiListClipper@@QEAA@XZ 000000018004dbb0 f   ImGui:imgui.obj
 0001:0004cbd0       ?Begin@ImGuiListClipper@@QEAAXHM@Z 000000018004dbd0 f   ImGui:imgui.obj
 0001:0004cdf0       ?End@ImGuiListClipper@@QEAAXXZ 000000018004ddf0 f   ImGui:imgui.obj
 0001:0004cf30       ?Step@ImGuiListClipper@@QEAA_NXZ 000000018004df30 f   ImGui:imgui.obj
 0001:0004d0c0       ?ForceDisplayRangeByIndices@ImGuiListClipper@@QEAAXHH@Z 000000018004e0c0 f   ImGui:imgui.obj
 0001:0004d170       ?GetKeyIndex@ImGui@@YAHH@Z 000000018004e170 f   ImGui:imgui.obj
 0001:0004d1c0       ?CalcListClipping@ImGui@@YAXHMPEAH0@Z 000000018004e1c0 f   ImGui:imgui.obj
 0001:0004d440       ?ImHashData@@YAIPEBX_KI@Z  000000018004e440 f   ImGui:imgui.obj
 0001:0004d4e0       ?ImHashStr@@YAIPEBD_KI@Z   000000018004e4e0 f   ImGui:imgui.obj
 0001:0004d6e0       ?ImAlphaBlendColors@@YAIII@Z 000000018004e6e0 f   ImGui:imgui.obj
 0001:0004d7b0       ?ImStricmp@@YAHPEBD0@Z     000000018004e7b0 f   ImGui:imgui.obj
 0001:0004d830       ?ImStrnicmp@@YAHPEBD0_K@Z  000000018004e830 f   ImGui:imgui.obj
 0001:0004d8d0       ?ImStrncpy@@YAXPEADPEBD_K@Z 000000018004e8d0 f   ImGui:imgui.obj
 0001:0004d930       ?ImStrdup@@YAPEADPEBD@Z    000000018004e930 f   ImGui:imgui.obj
 0001:0004d990       ?ImStrdupcpy@@YAPEADPEADPEA_KPEBD@Z 000000018004e990 f   ImGui:imgui.obj
 0001:0004da50       ?ImStrchrRange@@YAPEBDPEBD0D@Z 000000018004ea50 f   ImGui:imgui.obj
 0001:0004daa0       ?ImStrlenW@@YAHPEBG@Z      000000018004eaa0 f   ImGui:imgui.obj
 0001:0004daf0       ?ImStreolRange@@YAPEBDPEBD0@Z 000000018004eaf0 f   ImGui:imgui.obj
 0001:0004db60       ?ImStrbolW@@YAPEBGPEBG0@Z  000000018004eb60 f   ImGui:imgui.obj
 0001:0004dbb0       ?ImStristr@@YAPEBDPEBD000@Z 000000018004ebb0 f   ImGui:imgui.obj
 0001:0004dcf0       ?ImStrTrimBlanks@@YAXPEAD@Z 000000018004ecf0 f   ImGui:imgui.obj
 0001:0004de00       ?ImStrSkipBlank@@YAPEBDPEBD@Z 000000018004ee00 f   ImGui:imgui.obj
 0001:0004de90       ?ImFormatString@@YAHPEAD_KPEBDZZ 000000018004ee90 f   ImGui:imgui.obj
 0001:0004df20       ?ImFormatStringV@@YAHPEAD_KPEBD0@Z 000000018004ef20 f   ImGui:imgui.obj
 0001:0004dfa0       ?ImFormatStringToTempBuffer@@YAXPEAPEBD0PEBDZZ 000000018004efa0 f   ImGui:imgui.obj
 0001:0004e050       ?ImFormatStringToTempBufferV@@YAXPEAPEBD0PEBDPEAD@Z 000000018004f050 f   ImGui:imgui.obj
 0001:0004e0f0       ?ImTextCharToUtf8@@YAPEBDQEADI@Z 000000018004f0f0 f   ImGui:imgui.obj
 0001:0004e140       ?ImTextStrToUtf8@@YAHPEADHPEBG1@Z 000000018004f140 f   ImGui:imgui.obj
 0001:0004e260       ?ImTextCharFromUtf8@@YAHPEAIPEBD1@Z 000000018004f260 f   ImGui:imgui.obj
 0001:0004e6b0       ?ImTextStrFromUtf8@@YAHPEAGHPEBD1PEAPEBD@Z 000000018004f6b0 f   ImGui:imgui.obj
 0001:0004e7a0       ?ImTextCountCharsFromUtf8@@YAHPEBD0@Z 000000018004f7a0 f   ImGui:imgui.obj
 0001:0004e820       ?ImTextCountUtf8BytesFromChar@@YAHPEBD0@Z 000000018004f820 f   ImGui:imgui.obj
 0001:0004e860       ?ImTextCountUtf8BytesFromStr@@YAHPEBG0@Z 000000018004f860 f   ImGui:imgui.obj
 0001:0004ebe0       ?ImFileOpen@@YAPEAU_iobuf@@PEBD0@Z 000000018004fbe0 f   ImGui:imgui.obj
 0001:0004ed30       ?ImFileClose@@YA_NPEAU_iobuf@@@Z 000000018004fd30 f   ImGui:imgui.obj
 0001:0004ed70       ?ImFileGetSize@@YA_KPEAU_iobuf@@@Z 000000018004fd70 f   ImGui:imgui.obj
 0001:0004ee10       ?ImFileRead@@YA_KPEAX_K1PEAU_iobuf@@@Z 000000018004fe10 f   ImGui:imgui.obj
 0001:0004ee50       ?ImFileWrite@@YA_KPEBX_K1PEAU_iobuf@@@Z 000000018004fe50 f   ImGui:imgui.obj
 0001:0004ee90       ?ImFileLoadToMemory@@YAPEAXPEBD0PEA_KH@Z 000000018004fe90 f   ImGui:imgui.obj
 0001:0004f5a0       ?ImBezierCubicClosestPoint@@YA?AUImVec2@@AEBU1@0000H@Z 00000001800505a0 f   ImGui:imgui.obj
 0001:0004f6f0       ?ImBezierCubicClosestPointCasteljau@@YA?AUImVec2@@AEBU1@0000M@Z 00000001800506f0 f   ImGui:imgui.obj
 0001:0004f820       ?ImLineClosestPoint@@YA?AUImVec2@@AEBU1@00@Z 0000000180050820 f   ImGui:imgui.obj
 0001:0004f940       ?ImTriangleContainsPoint@@YA_NAEBUImVec2@@000@Z 0000000180050940 f   ImGui:imgui.obj
 0001:0004fb10       ?ImTriangleClosestPoint@@YA?AUImVec2@@AEBU1@000@Z 0000000180050b10 f   ImGui:imgui.obj
 0001:0004fc80       ?ImTriangleBarycentricCoords@@YAXAEBUImVec2@@000AEAM11@Z 0000000180050c80 f   ImGui:imgui.obj
 0001:0004fd80       ?ImGetDirQuadrantFromDelta@@YAHMM@Z 0000000180050d80 f   ImGui:imgui.obj
 0001:0004fe20       ?FlattenIntoSingleLayer@ImDrawDataBuilder@@QEAAXXZ 0000000180050e20 f   ImGui:imgui.obj
 0001:0004ffd0       ?SetToCurrentState@ImGuiStackSizes@@QEAAXXZ 0000000180050fd0 f   ImGui:imgui.obj
 0001:000500c0       ?CompareWithCurrentState@ImGuiStackSizes@@QEAAXXZ 00000001800510c0 f   ImGui:imgui.obj
 0001:000500f0       ??0ImGuiWindow@@QEAA@PEAUImGuiContext@@PEBD@Z 00000001800510f0 f   ImGui:imgui.obj
 0001:00050590       ??1ImGuiWindow@@QEAA@XZ    0000000180051590 f   ImGui:imgui.obj
 0001:00050630       ?GetID@ImGuiWindow@@QEAAIPEBD0@Z 0000000180051630 f   ImGui:imgui.obj
 0001:000506f0       ?GetID@ImGuiWindow@@QEAAIPEBX@Z 00000001800516f0 f   ImGui:imgui.obj
 0001:00050780       ?GetID@ImGuiWindow@@QEAAIH@Z 0000000180051780 f   ImGui:imgui.obj
 0001:00050810       ?GetIDFromRectangle@ImGuiWindow@@QEAAIAEBUImRect@@@Z 0000000180051810 f   ImGui:imgui.obj
 0001:00050880       ?FindWindowByID@ImGui@@YAPEAUImGuiWindow@@I@Z 0000000180051880 f   ImGui:imgui.obj
 0001:000508c0       ?FindWindowByName@ImGui@@YAPEAUImGuiWindow@@PEBD@Z 00000001800518c0 f   ImGui:imgui.obj
 0001:000508f0       ?UpdateWindowParentAndRootLinks@ImGui@@YAXPEAUImGuiWindow@@H0@Z 00000001800518f0 f   ImGui:imgui.obj
 0001:00050a40       ?CalcWindowNextAutoFitSize@ImGui@@YA?AUImVec2@@PEAUImGuiWindow@@@Z 0000000180051a40 f   ImGui:imgui.obj
 0001:00050ab0       ?IsWindowChildOf@ImGui@@YA_NPEAUImGuiWindow@@0_N@Z 0000000180051ab0 f   ImGui:imgui.obj
 0001:00050b30       ?IsWindowWithinBeginStackOf@ImGui@@YA_NPEAUImGuiWindow@@0@Z 0000000180051b30 f   ImGui:imgui.obj
 0001:00050b90       ?IsWindowAbove@ImGui@@YA_NPEAUImGuiWindow@@0@Z 0000000180051b90 f   ImGui:imgui.obj
 0001:00050c70       ?IsWindowNavFocusable@ImGui@@YA_NPEAUImGuiWindow@@@Z 0000000180051c70 f   ImGui:imgui.obj
 0001:00050cd0       ?SetWindowPos@ImGui@@YAXPEAUImGuiWindow@@AEBUImVec2@@H@Z 0000000180051cd0 f   ImGui:imgui.obj
 0001:00050e50       ?SetWindowSize@ImGui@@YAXPEAUImGuiWindow@@AEBUImVec2@@H@Z 0000000180051e50 f   ImGui:imgui.obj
 0001:00050fe0       ?SetWindowCollapsed@ImGui@@YAXPEAUImGuiWindow@@_NH@Z 0000000180051fe0 f   ImGui:imgui.obj
 0001:00051070       ?SetWindowHitTestHole@ImGui@@YAXPEAUImGuiWindow@@AEBUImVec2@@1@Z 0000000180052070 f   ImGui:imgui.obj
 0001:000510e0       ?FocusWindow@ImGui@@YAXPEAUImGuiWindow@@@Z 00000001800520e0 f   ImGui:imgui.obj
 0001:000512a0       ?FocusTopMostWindowUnderOne@ImGui@@YAXPEAUImGuiWindow@@0@Z 00000001800522a0 f   ImGui:imgui.obj
 0001:000513c0       ?BringWindowToFocusFront@ImGui@@YAXPEAUImGuiWindow@@@Z 00000001800523c0 f   ImGui:imgui.obj
 0001:00051520       ?BringWindowToDisplayFront@ImGui@@YAXPEAUImGuiWindow@@@Z 0000000180052520 f   ImGui:imgui.obj
 0001:000516a0       ?BringWindowToDisplayBack@ImGui@@YAXPEAUImGuiWindow@@@Z 00000001800526a0 f   ImGui:imgui.obj
 0001:000517e0       ?BringWindowToDisplayBehind@ImGui@@YAXPEAUImGuiWindow@@0@Z 00000001800527e0 f   ImGui:imgui.obj
 0001:00051950       ?FindWindowDisplayIndex@ImGui@@YAHPEAUImGuiWindow@@@Z 0000000180052950 f   ImGui:imgui.obj
 0001:000519b0       ?FindBottomMostVisibleWindowWithinBeginStack@ImGui@@YAPEAUImGuiWindow@@PEAU2@@Z 00000001800529b0 f   ImGui:imgui.obj
 0001:00051aa0       ?SetCurrentFont@ImGui@@YAXPEAUImFont@@@Z 0000000180052aa0 f   ImGui:imgui.obj
 0001:00051be0       ?GetBackgroundDrawList@ImGui@@YAPEAUImDrawList@@PEAUImGuiViewport@@@Z 0000000180052be0 f   ImGui:imgui.obj
 0001:00051c10       ?GetForegroundDrawList@ImGui@@YAPEAUImDrawList@@PEAUImGuiViewport@@@Z 0000000180052c10 f   ImGui:imgui.obj
 0001:00051c40       ?Initialize@ImGui@@YAXXZ   0000000180052c40 f   ImGui:imgui.obj
 0001:00051db0       ?Shutdown@ImGui@@YAXXZ     0000000180052db0 f   ImGui:imgui.obj
 0001:00052100       ?UpdateInputEvents@ImGui@@YAX_N@Z 0000000180053100 f   ImGui:imgui.obj
 0001:00052a80       ?UpdateHoveredWindowAndCaptureFlags@ImGui@@YAXXZ 0000000180053a80 f   ImGui:imgui.obj
 0001:00052fa0       ?StartMouseMovingWindow@ImGui@@YAXPEAUImGuiWindow@@@Z 0000000180053fa0 f   ImGui:imgui.obj
 0001:00053090       ?UpdateMouseMovingWindowNewFrame@ImGui@@YAXXZ 0000000180054090 f   ImGui:imgui.obj
 0001:000531e0       ?UpdateMouseMovingWindowEndFrame@ImGui@@YAXXZ 00000001800541e0 f   ImGui:imgui.obj
 0001:00053480       ?AddContextHook@ImGui@@YAIPEAUImGuiContext@@PEBUImGuiContextHook@@@Z 0000000180054480 f   ImGui:imgui.obj
 0001:00053510       ?RemoveContextHook@ImGui@@YAXPEAUImGuiContext@@I@Z 0000000180054510 f   ImGui:imgui.obj
 0001:000535b0       ?CallContextHooks@ImGui@@YAXPEAUImGuiContext@@W4ImGuiContextHookType@@@Z 00000001800545b0 f   ImGui:imgui.obj
 0001:00053680       ?SetWindowViewport@ImGui@@YAXPEAUImGuiWindow@@PEAUImGuiViewportP@@@Z 0000000180054680 f   ImGui:imgui.obj
 0001:000536a0       ?MarkIniSettingsDirty@ImGui@@YAXXZ 00000001800546a0 f   ImGui:imgui.obj
 0001:000536f0       ?MarkIniSettingsDirty@ImGui@@YAXPEAUImGuiWindow@@@Z 00000001800546f0 f   ImGui:imgui.obj
 0001:00053750       ?ClearIniSettings@ImGui@@YAXXZ 0000000180054750 f   ImGui:imgui.obj
 0001:00053830       ?CreateNewWindowSettings@ImGui@@YAPEAUImGuiWindowSettings@@PEBD@Z 0000000180054830 f   ImGui:imgui.obj
 0001:00053970       ?FindWindowSettings@ImGui@@YAPEAUImGuiWindowSettings@@I@Z 0000000180054970 f   ImGui:imgui.obj
 0001:000539f0       ?FindOrCreateWindowSettings@ImGui@@YAPEAUImGuiWindowSettings@@PEBD@Z 00000001800549f0 f   ImGui:imgui.obj
 0001:00053a40       ?AddSettingsHandler@ImGui@@YAXPEBUImGuiSettingsHandler@@@Z 0000000180054a40 f   ImGui:imgui.obj
 0001:00053a80       ?RemoveSettingsHandler@ImGui@@YAXPEBD@Z 0000000180054a80 f   ImGui:imgui.obj
 0001:00053ae0       ?FindSettingsHandler@ImGui@@YAPEAUImGuiSettingsHandler@@PEBD@Z 0000000180054ae0 f   ImGui:imgui.obj
 0001:00053b90       ?SetNextWindowScroll@ImGui@@YAXAEBUImVec2@@@Z 0000000180054b90 f   ImGui:imgui.obj
 0001:00053be0       ?SetScrollX@ImGui@@YAXPEAUImGuiWindow@@M@Z 0000000180054be0 f   ImGui:imgui.obj
 0001:00053c30       ?SetScrollY@ImGui@@YAXPEAUImGuiWindow@@M@Z 0000000180054c30 f   ImGui:imgui.obj
 0001:00053c80       ?SetScrollFromPosX@ImGui@@YAXPEAUImGuiWindow@@MM@Z 0000000180054c80 f   ImGui:imgui.obj
 0001:00053ce0       ?SetScrollFromPosY@ImGui@@YAXPEAUImGuiWindow@@MM@Z 0000000180054ce0 f   ImGui:imgui.obj
 0001:00053d90       ?ScrollToItem@ImGui@@YAXH@Z 0000000180054d90 f   ImGui:imgui.obj
 0001:00053df0       ?ScrollToRect@ImGui@@YAXPEAUImGuiWindow@@AEBUImRect@@H@Z 0000000180054df0 f   ImGui:imgui.obj
 0001:00053e30       ?ScrollToRectEx@ImGui@@YA?AUImVec2@@PEAUImGuiWindow@@AEBUImRect@@H@Z 0000000180054e30 f   ImGui:imgui.obj
 0001:00054560       ?SetActiveID@ImGui@@YAXIPEAUImGuiWindow@@@Z 0000000180055560 f   ImGui:imgui.obj
 0001:00054810       ?SetFocusID@ImGui@@YAXIPEAUImGuiWindow@@@Z 0000000180055810 f   ImGui:imgui.obj
 0001:00054930       ?ClearActiveID@ImGui@@YAXXZ 0000000180055930 f   ImGui:imgui.obj
 0001:00054950       ?GetHoveredID@ImGui@@YAIXZ 0000000180055950 f   ImGui:imgui.obj
 0001:000549a0       ?SetHoveredID@ImGui@@YAXI@Z 00000001800559a0 f   ImGui:imgui.obj
 0001:00054a20       ?KeepAliveID@ImGui@@YAXI@Z 0000000180055a20 f   ImGui:imgui.obj
 0001:00054a80       ?MarkItemEdited@ImGui@@YAXI@Z 0000000180055a80 f   ImGui:imgui.obj
 0001:00054ad0       ?PushOverrideID@ImGui@@YAXI@Z 0000000180055ad0 f   ImGui:imgui.obj
 0001:00054b50       ?GetIDWithSeed@ImGui@@YAIPEBD0I@Z 0000000180055b50 f   ImGui:imgui.obj
 0001:00054bf0       ?ItemSize@ImGui@@YAXAEBUImVec2@@M@Z 0000000180055bf0 f   ImGui:imgui.obj
 0001:00054ea0       ?ItemAdd@ImGui@@YA_NAEBUImRect@@IPEBU2@H@Z 0000000180055ea0 f   ImGui:imgui.obj
 0001:000550b0       ?ItemHoverable@ImGui@@YA_NAEBUImRect@@I@Z 00000001800560b0 f   ImGui:imgui.obj
 0001:000552e0       ?IsClippedEx@ImGui@@YA_NAEBUImRect@@I@Z 00000001800562e0 f   ImGui:imgui.obj
 0001:00055380       ?SetLastItemData@ImGui@@YAXIHHAEBUImRect@@@Z 0000000180056380 f   ImGui:imgui.obj
 0001:00055400       ?CalcItemSize@ImGui@@YA?AUImVec2@@U2@MM@Z 0000000180056400 f   ImGui:imgui.obj
 0001:00055550       ?CalcWrapWidthForPos@ImGui@@YAMAEBUImVec2@@M@Z 0000000180056550 f   ImGui:imgui.obj
 0001:00055620       ?PushMultiItemsWidths@ImGui@@YAXHM@Z 0000000180056620 f   ImGui:imgui.obj
 0001:000557d0       ?IsItemToggledSelection@ImGui@@YA_NXZ 00000001800567d0 f   ImGui:imgui.obj
 0001:00055810       ?GetContentRegionMaxAbs@ImGui@@YA?AUImVec2@@XZ 0000000180056810 f   ImGui:imgui.obj
 0001:00055890       ?PushItemFlag@ImGui@@YAXH_N@Z 0000000180056890 f   ImGui:imgui.obj
 0001:00055920       ?PopItemFlag@ImGui@@YAXXZ  0000000180056920 f   ImGui:imgui.obj
 0001:00055970       ?LogBegin@ImGui@@YAXW4ImGuiLogType@@H@Z 0000000180056970 f   ImGui:imgui.obj
 0001:00055a50       ?LogToBuffer@ImGui@@YAXH@Z 0000000180056a50 f   ImGui:imgui.obj
 0001:00055a90       ?LogRenderedText@ImGui@@YAXPEBUImVec2@@PEBD1@Z 0000000180056a90 f   ImGui:imgui.obj
 0001:00055db0       ?LogSetNextTextDecoration@ImGui@@YAXPEBD0@Z 0000000180056db0 f   ImGui:imgui.obj
 0001:00055e00       ?BeginChildEx@ImGui@@YA_NPEBDIAEBUImVec2@@_NH@Z 0000000180056e00 f   ImGui:imgui.obj
 0001:000560f0       ?OpenPopupEx@ImGui@@YAXIH@Z 00000001800570f0 f   ImGui:imgui.obj
 0001:00056340       ?ClosePopupToLevel@ImGui@@YAXH_N@Z 0000000180057340 f   ImGui:imgui.obj
 0001:00056470       ?ClosePopupsOverWindow@ImGui@@YAXPEAUImGuiWindow@@_N@Z 0000000180057470 f   ImGui:imgui.obj
 0001:00056620       ?ClosePopupsExceptModals@ImGui@@YAXXZ 0000000180057620 f   ImGui:imgui.obj
 0001:000566d0       ?IsPopupOpen@ImGui@@YA_NIH@Z 00000001800576d0 f   ImGui:imgui.obj
 0001:00056840       ?BeginPopupEx@ImGui@@YA_NIH@Z 0000000180057840 f   ImGui:imgui.obj
 0001:00056930       ?BeginTooltipEx@ImGui@@YAXHH@Z 0000000180057930 f   ImGui:imgui.obj
 0001:00056b20       ?GetPopupAllowedExtentRect@ImGui@@YA?AUImRect@@PEAUImGuiWindow@@@Z 0000000180057b20 f   ImGui:imgui.obj
 0001:00056c20       ?GetTopMostPopupModal@ImGui@@YAPEAUImGuiWindow@@XZ 0000000180057c20 f   ImGui:imgui.obj
 0001:00056ca0       ?GetTopMostAndVisiblePopupModal@ImGui@@YAPEAUImGuiWindow@@XZ 0000000180057ca0 f   ImGui:imgui.obj
 0001:00056d40       ?FindBestWindowPosForPopup@ImGui@@YA?AUImVec2@@PEAUImGuiWindow@@@Z 0000000180057d40 f   ImGui:imgui.obj
 0001:000571c0       ?FindBestWindowPosForPopupEx@ImGui@@YA?AUImVec2@@AEBU2@0PEAHAEBUImRect@@2W4ImGuiPopupPositionPolicy@@@Z 00000001800581c0 f   ImGui:imgui.obj
 0001:00057950       ?NavInitWindow@ImGui@@YAXPEAUImGuiWindow@@_N@Z 0000000180058950 f   ImGui:imgui.obj
 0001:00057b10       ?NavInitRequestApplyResult@ImGui@@YAXXZ 0000000180058b10 f   ImGui:imgui.obj
 0001:00057be0       ?NavMoveRequestButNoResultYet@ImGui@@YA_NXZ 0000000180058be0 f   ImGui:imgui.obj
 0001:00057c40       ?NavMoveRequestSubmit@ImGui@@YAXHHHH@Z 0000000180058c40 f   ImGui:imgui.obj
 0001:00057d70       ?NavMoveRequestForward@ImGui@@YAXHHHH@Z 0000000180058d70 f   ImGui:imgui.obj
 0001:00057df0       ?NavMoveRequestResolveWithLastItem@ImGui@@YAXPEAUImGuiNavItemData@@@Z 0000000180058df0 f   ImGui:imgui.obj
 0001:00057e30       ?NavMoveRequestCancel@ImGui@@YAXXZ 0000000180058e30 f   ImGui:imgui.obj
 0001:00057e70       ?NavMoveRequestApplyResult@ImGui@@YAXXZ 0000000180058e70 f   ImGui:imgui.obj
 0001:00058320       ?NavMoveRequestTryWrapping@ImGui@@YAXPEAUImGuiWindow@@H@Z 0000000180059320 f   ImGui:imgui.obj
 0001:00058390       ?ActivateItem@ImGui@@YAXI@Z 0000000180059390 f   ImGui:imgui.obj
 0001:000583d0       ?SetNavWindow@ImGui@@YAXPEAUImGuiWindow@@@Z 00000001800593d0 f   ImGui:imgui.obj
 0001:00058490       ?SetNavID@ImGui@@YAXIW4ImGuiNavLayer@@IAEBUImRect@@@Z 0000000180059490 f   ImGui:imgui.obj
 0001:00058530       ?PushFocusScope@ImGui@@YAXI@Z 0000000180059530 f   ImGui:imgui.obj
 0001:000585a0       ?PopFocusScope@ImGui@@YAXXZ 00000001800595a0 f   ImGui:imgui.obj
 0001:00058600       ?GetKeyData@ImGui@@YAPEAUImGuiKeyData@@H@Z 0000000180059600 f   ImGui:imgui.obj
 0001:00058690       ?GetKeyChordName@ImGui@@YAXHHPEADH@Z 0000000180059690 f   ImGui:imgui.obj
 0001:000587f0       ?SetItemUsingMouseWheel@ImGui@@YAXXZ 00000001800597f0 f   ImGui:imgui.obj
 0001:00058890       ?SetActiveIdUsingAllKeyboardKeys@ImGui@@YAXXZ 0000000180059890 f   ImGui:imgui.obj
 0001:00058960       ?IsMouseDragPastThreshold@ImGui@@YA_NHM@Z 0000000180059960 f   ImGui:imgui.obj
 0001:000589e0       ?GetMergedModFlags@ImGui@@YAHXZ 00000001800599e0 f   ImGui:imgui.obj
 0001:00058a70       ?GetKeyVector2d@ImGui@@YA?AUImVec2@@HHHH@Z 0000000180059a70 f   ImGui:imgui.obj
 0001:00058b10       ?GetNavTweakPressedAmount@ImGui@@YAMW4ImGuiAxis@@@Z 0000000180059b10 f   ImGui:imgui.obj
 0001:00058c60       ?CalcTypematicRepeatAmount@ImGui@@YAHMMMM@Z 0000000180059c60 f   ImGui:imgui.obj
 0001:00058d90       ?GetTypematicRepeatRate@ImGui@@YAXHPEAM0@Z 0000000180059d90 f   ImGui:imgui.obj
 0001:00058e80       ?IsKeyPressedEx@ImGui@@YA_NHH@Z 0000000180059e80 f   ImGui:imgui.obj
 0001:00058f70       ?IsDragDropActive@ImGui@@YA_NXZ 0000000180059f70 f   ImGui:imgui.obj
 0001:00058fa0       ?BeginDragDropTargetCustom@ImGui@@YA_NAEBUImRect@@I@Z 0000000180059fa0 f   ImGui:imgui.obj
 0001:000590b0       ?ClearDragDrop@ImGui@@YAXXZ 000000018005a0b0 f   ImGui:imgui.obj
 0001:00059170       ?IsDragDropPayloadBeingAccepted@ImGui@@YA_NXZ 000000018005a170 f   ImGui:imgui.obj
 0001:000591c0       ?RenderText@ImGui@@YAXUImVec2@@PEBD1_N@Z 000000018005a1c0 f   ImGui:imgui.obj
 0001:00059340       ?RenderTextWrapped@ImGui@@YAXUImVec2@@PEBD1M@Z 000000018005a340 f   ImGui:imgui.obj
 0001:000594a0       ?RenderTextClipped@ImGui@@YAXAEBUImVec2@@0PEBD1PEBU2@0PEBUImRect@@@Z 000000018005a4a0 f   ImGui:imgui.obj
 0001:000595a0       ?RenderTextClippedEx@ImGui@@YAXPEAUImDrawList@@AEBUImVec2@@1PEBD2PEBU3@1PEBUImRect@@@Z 000000018005a5a0 f   ImGui:imgui.obj
 0001:00059920       ?RenderTextEllipsis@ImGui@@YAXPEAUImDrawList@@AEBUImVec2@@1MMPEBD2PEBU3@@Z 000000018005a920 f   ImGui:imgui.obj
 0001:00059f80       ?RenderFrame@ImGui@@YAXUImVec2@@0I_NM@Z 000000018005af80 f   ImGui:imgui.obj
 0001:0005a190       ?RenderFrameBorder@ImGui@@YAXUImVec2@@0M@Z 000000018005b190 f   ImGui:imgui.obj
 0001:0005a340       ?RenderNavHighlight@ImGui@@YAXAEBUImRect@@IH@Z 000000018005b340 f   ImGui:imgui.obj
 0001:0005a670       ?FindRenderedTextEnd@ImGui@@YAPEBDPEBD0@Z 000000018005b670 f   ImGui:imgui.obj
 0001:0005a700       ?RenderMouseCursor@ImGui@@YAXUImVec2@@MHIII@Z 000000018005b700 f   ImGui:imgui.obj
 0001:0005abf0       ?GetWindowResizeCornerID@ImGui@@YAIPEAUImGuiWindow@@H@Z 000000018005bbf0 f   ImGui:imgui.obj
 0001:0005ac50       ?GetWindowResizeBorderID@ImGui@@YAIPEAUImGuiWindow@@H@Z 000000018005bc50 f   ImGui:imgui.obj
 0001:0005acc0       ?GcCompactTransientMiscBuffers@ImGui@@YAXXZ 000000018005bcc0 f   ImGui:imgui.obj
 0001:0005ad10       ?GcCompactTransientWindowBuffers@ImGui@@YAXPEAUImGuiWindow@@@Z 000000018005bd10 f   ImGui:imgui.obj
 0001:0005add0       ?GcAwakeTransientWindowBuffers@ImGui@@YAXPEAUImGuiWindow@@@Z 000000018005bdd0 f   ImGui:imgui.obj
 0001:0005ae70       ?DebugLog@ImGui@@YAXPEBDZZ 000000018005be70 f   ImGui:imgui.obj
 0001:0005aec0       ?DebugLogV@ImGui@@YAXPEBDPEAD@Z 000000018005bec0 f   ImGui:imgui.obj
 0001:0005af90       ?ErrorCheckEndFrameRecover@ImGui@@YAXP6AXPEAXPEBDZZ0@Z 000000018005bf90 f   ImGui:imgui.obj
 0001:0005b070       ?ErrorCheckEndWindowRecover@ImGui@@YAXP6AXPEAXPEBDZZ0@Z 000000018005c070 f   ImGui:imgui.obj
 0001:0005b480       ?ShowFontAtlas@ImGui@@YAXPEAUImFontAtlas@@@Z 000000018005c480 f   ImGui:imgui.obj
 0001:0005b650       ?DebugHookIdInfo@ImGui@@YAXIHPEBX0@Z 000000018005c650 f   ImGui:imgui.obj
 0001:0005b980       ?DebugNodeColumns@ImGui@@YAXPEAUImGuiOldColumns@@@Z 000000018005c980 f   ImGui:imgui.obj
 0001:0005baf0       ?DebugNodeDrawList@ImGui@@YAXPEAUImGuiWindow@@PEBUImDrawList@@PEBD@Z 000000018005caf0 f   ImGui:imgui.obj
 0001:0005c500       ?DebugNodeDrawCmdShowMeshAndBoundingBox@ImGui@@YAXPEAUImDrawList@@PEBU2@PEBUImDrawCmd@@_N3@Z 000000018005d500 f   ImGui:imgui.obj
 0001:0005c860       ?DebugNodeFont@ImGui@@YAXPEAUImFont@@@Z 000000018005d860 f   ImGui:imgui.obj
 0001:0005d020       ?DebugNodeFontGlyph@ImGui@@YAXPEAUImFont@@PEBUImFontGlyph@@@Z 000000018005e020 f   ImGui:imgui.obj
 0001:0005d150       ?DebugNodeStorage@ImGui@@YAXPEAUImGuiStorage@@PEBD@Z 000000018005e150 f   ImGui:imgui.obj
 0001:0005d220       ?DebugNodeTabBar@ImGui@@YAXPEAUImGuiTabBar@@PEBD@Z 000000018005e220 f   ImGui:imgui.obj
 0001:0005d8a0       ?DebugNodeWindow@ImGui@@YAXPEAUImGuiWindow@@PEBD@Z 000000018005e8a0 f   ImGui:imgui.obj
 0001:0005e330       ?DebugNodeWindowSettings@ImGui@@YAXPEAUImGuiWindowSettings@@@Z 000000018005f330 f   ImGui:imgui.obj
 0001:0005e3e0       ?DebugNodeWindowsList@ImGui@@YAXPEAU?$ImVector@PEAUImGuiWindow@@@@PEBD@Z 000000018005f3e0 f   ImGui:imgui.obj
 0001:0005e480       ?DebugNodeWindowsListByBeginStackParent@ImGui@@YAXPEAPEAUImGuiWindow@@HPEAU2@@Z 000000018005f480 f   ImGui:imgui.obj
 0001:0005e580       ?DebugNodeViewport@ImGui@@YAXPEAUImGuiViewportP@@@Z 000000018005f580 f   ImGui:imgui.obj
 0001:0005e7e0       ?DebugRenderViewportThumbnail@ImGui@@YAXPEAUImDrawList@@PEAUImGuiViewportP@@AEBUImRect@@@Z 000000018005f7e0 f   ImGui:imgui.obj
 0001:0006db40       ??$IM_DELETE@D@@YAXPEAD@Z  000000018006eb40 f i ImGui:imgui.obj
 0001:0006db40       ??$IM_DELETE@UImGui_ImplDX9_Data@@@@YAXPEAUImGui_ImplDX9_Data@@@Z 000000018006eb40 f i ImGui:imgui_impl_dx9.obj
 0001:0006db40       ??$IM_DELETE@UImGui_ImplWin32_Data@@@@YAXPEAUImGui_ImplWin32_Data@@@Z 000000018006eb40 f i ImGui:imgui_impl_win32.obj
 0001:0006db60       ??$IM_DELETE@UImDrawList@@@@YAXPEAUImDrawList@@@Z 000000018006eb60 f i ImGui:imgui.obj
 0001:0006db90       ??$IM_DELETE@UImFontAtlas@@@@YAXPEAUImFontAtlas@@@Z 000000018006eb90 f i ImGui:imgui.obj
 0001:0006dbc0       ??$IM_DELETE@UImGuiContext@@@@YAXPEAUImGuiContext@@@Z 000000018006ebc0 f i ImGui:imgui.obj
 0001:0006dbf0       ??$IM_DELETE@UImGuiViewportP@@@@YAXPEAUImGuiViewportP@@@Z 000000018006ebf0 f i ImGui:imgui.obj
 0001:0006dc20       ??$IM_DELETE@UImGuiWindow@@@@YAXPEAUImGuiWindow@@@Z 000000018006ec20 f i ImGui:imgui.obj
 0001:0006dc50       ??0?$ImBitArray@$0CIM@$0A@@@QEAA@XZ 000000018006ec50 f i ImGui:imgui.obj
 0001:0006dc70       ??0?$ImBitArray@$0IE@$0A@@@QEAA@XZ 000000018006ec70 f i ImGui:imgui_tables.obj
 0001:0006dc70       ??0?$ImBitArray@$0IM@$0?CAA@@@QEAA@XZ 000000018006ec70 f i ImGui:imgui.obj
 0001:0006dc90       ??0?$ImChunkStream@UImGuiTableSettings@@@@QEAA@XZ 000000018006ec90 f i ImGui:imgui.obj
 0001:0006dc90       ??0?$ImChunkStream@UImGuiWindowSettings@@@@QEAA@XZ 000000018006ec90 f i ImGui:imgui.obj
 0001:0006dc90       ??0ImGuiStorage@@QEAA@XZ   000000018006ec90 f i ImGui:imgui.obj
 0001:0006dc90       ??0ImGuiTextBuffer@@QEAA@XZ 000000018006ec90 f i ImGui:imgui.obj
 0001:0006dcb0       ??0?$ImPool@UImGuiTabBar@@@@QEAA@XZ 000000018006ecb0 f i ImGui:imgui.obj
 0001:0006dcb0       ??0?$ImPool@UImGuiTable@@@@QEAA@XZ 000000018006ecb0 f i ImGui:imgui.obj
 0001:0006dd00       ??0?$ImVector@D@@QEAA@XZ   000000018006ed00 f i ImGui:imgui.obj
 0001:0006dd00       ??0?$ImVector@E@@QEAA@XZ   000000018006ed00 f i ImGui:imgui.obj
 0001:0006dd00       ??0?$ImVector@G@@QEAA@XZ   000000018006ed00 f i ImGui:imgui.obj
 0001:0006dd00       ??0?$ImVector@H@@QEAA@XZ   000000018006ed00 f i ImGui:imgui.obj
 0001:0006dd00       ??0?$ImVector@I@@QEAA@XZ   000000018006ed00 f i ImGui:imgui.obj
 0001:0006dd00       ??0?$ImVector@M@@QEAA@XZ   000000018006ed00 f i ImGui:imgui.obj
 0001:0006dd00       ??0?$ImVector@PEAUImDrawList@@@@QEAA@XZ 000000018006ed00 f i ImGui:imgui.obj
 0001:0006dd00       ??0?$ImVector@PEAUImFont@@@@QEAA@XZ 000000018006ed00 f i ImGui:imgui.obj
 0001:0006dd00       ??0?$ImVector@PEAUImGuiViewportP@@@@QEAA@XZ 000000018006ed00 f i ImGui:imgui.obj
 0001:0006dd00       ??0?$ImVector@PEAUImGuiWindow@@@@QEAA@XZ 000000018006ed00 f i ImGui:imgui.obj
 0001:0006dd00       ??0?$ImVector@PEAX@@QEAA@XZ 000000018006ed00 f i ImGui:imgui.obj
 0001:0006dd00       ??0?$ImVector@UImDrawChannel@@@@QEAA@XZ 000000018006ed00 f i ImGui:imgui.obj
 0001:0006dd00       ??0?$ImVector@UImDrawCmd@@@@QEAA@XZ 000000018006ed00 f i ImGui:imgui.obj
 0001:0006dd00       ??0?$ImVector@UImDrawVert@@@@QEAA@XZ 000000018006ed00 f i ImGui:imgui.obj
 0001:0006dd00       ??0?$ImVector@UImFontAtlasCustomRect@@@@QEAA@XZ 000000018006ed00 f i ImGui:imgui_draw.obj
 0001:0006dd00       ??0?$ImVector@UImFontBuildDstData@@@@QEAA@XZ 000000018006ed00 f i ImGui:imgui_draw.obj
 0001:0006dd00       ??0?$ImVector@UImFontBuildSrcData@@@@QEAA@XZ 000000018006ed00 f i ImGui:imgui_draw.obj
 0001:0006dd00       ??0?$ImVector@UImFontConfig@@@@QEAA@XZ 000000018006ed00 f i ImGui:imgui_draw.obj
 0001:0006dd00       ??0?$ImVector@UImFontGlyph@@@@QEAA@XZ 000000018006ed00 f i ImGui:imgui_draw.obj
 0001:0006dd00       ??0?$ImVector@UImGuiColorMod@@@@QEAA@XZ 000000018006ed00 f i ImGui:imgui.obj
 0001:0006dd00       ??0?$ImVector@UImGuiContextHook@@@@QEAA@XZ 000000018006ed00 f i ImGui:imgui.obj
 0001:0006dd00       ??0?$ImVector@UImGuiGroupData@@@@QEAA@XZ 000000018006ed00 f i ImGui:imgui.obj
 0001:0006dd00       ??0?$ImVector@UImGuiInputEvent@@@@QEAA@XZ 000000018006ed00 f i ImGui:imgui.obj
 0001:0006dd00       ??0?$ImVector@UImGuiListClipperData@@@@QEAA@XZ 000000018006ed00 f i ImGui:imgui.obj
 0001:0006dd00       ??0?$ImVector@UImGuiListClipperRange@@@@QEAA@XZ 000000018006ed00 f i ImGui:imgui.obj
 0001:0006dd00       ??0?$ImVector@UImGuiOldColumnData@@@@QEAA@XZ 000000018006ed00 f i ImGui:imgui_tables.obj
 0001:0006dd00       ??0?$ImVector@UImGuiOldColumns@@@@QEAA@XZ 000000018006ed00 f i ImGui:imgui.obj
 0001:0006dd00       ??0?$ImVector@UImGuiPopupData@@@@QEAA@XZ 000000018006ed00 f i ImGui:imgui.obj
 0001:0006dd00       ??0?$ImVector@UImGuiPtrOrIndex@@@@QEAA@XZ 000000018006ed00 f i ImGui:imgui.obj
 0001:0006dd00       ??0?$ImVector@UImGuiSettingsHandler@@@@QEAA@XZ 000000018006ed00 f i ImGui:imgui.obj
 0001:0006dd00       ??0?$ImVector@UImGuiShrinkWidthItem@@@@QEAA@XZ 000000018006ed00 f i ImGui:imgui.obj
 0001:0006dd00       ??0?$ImVector@UImGuiStackLevelInfo@@@@QEAA@XZ 000000018006ed00 f i ImGui:imgui.obj
 0001:0006dd00       ??0?$ImVector@UImGuiStoragePair@ImGuiStorage@@@@QEAA@XZ 000000018006ed00 f i ImGui:imgui.obj
 0001:0006dd00       ??0?$ImVector@UImGuiStyleMod@@@@QEAA@XZ 000000018006ed00 f i ImGui:imgui.obj
 0001:0006dd00       ??0?$ImVector@UImGuiTabBar@@@@QEAA@XZ 000000018006ed00 f i ImGui:imgui.obj
 0001:0006dd00       ??0?$ImVector@UImGuiTabItem@@@@QEAA@XZ 000000018006ed00 f i ImGui:imgui_widgets.obj
 0001:0006dd00       ??0?$ImVector@UImGuiTable@@@@QEAA@XZ 000000018006ed00 f i ImGui:imgui.obj
 0001:0006dd00       ??0?$ImVector@UImGuiTableColumnSortSpecs@@@@QEAA@XZ 000000018006ed00 f i ImGui:imgui_tables.obj
 0001:0006dd00       ??0?$ImVector@UImGuiTableInstanceData@@@@QEAA@XZ 000000018006ed00 f i ImGui:imgui_tables.obj
 0001:0006dd00       ??0?$ImVector@UImGuiTableTempData@@@@QEAA@XZ 000000018006ed00 f i ImGui:imgui.obj
 0001:0006dd00       ??0?$ImVector@UImGuiTextRange@ImGuiTextFilter@@@@QEAA@XZ 000000018006ed00 f i ImGui:imgui.obj
 0001:0006dd00       ??0?$ImVector@UImGuiWindowStackData@@@@QEAA@XZ 000000018006ed00 f i ImGui:imgui.obj
 0001:0006dd00       ??0?$ImVector@UImVec2@@@@QEAA@XZ 000000018006ed00 f i ImGui:imgui.obj
 0001:0006dd00       ??0?$ImVector@UImVec4@@@@QEAA@XZ 000000018006ed00 f i ImGui:imgui.obj
 0001:0006dd00       ??0?$ImVector@Ustbrp_rect@@@@QEAA@XZ 000000018006ed00 f i ImGui:imgui_draw.obj
 0001:0006dd00       ??0?$ImVector@Ustbtt_packedchar@@@@QEAA@XZ 000000018006ed00 f i ImGui:imgui_draw.obj
 0001:0006dd30       ??0ImDrawCmdHeader@@QEAA@XZ 000000018006ed30 f i ImGui:imgui.obj
 0001:0006dd50       ??0ImDrawData@@QEAA@XZ     000000018006ed50 f i ImGui:imgui.obj
 0001:0006dda0       ??0ImDrawDataBuilder@@QEAA@XZ 000000018006eda0 f i ImGui:imgui.obj
 0001:0006dde0       ??0ImDrawList@@QEAA@PEBUImDrawListSharedData@@@Z 000000018006ede0 f i ImGui:imgui.obj
 0001:0006deb0       ??0ImDrawListSplitter@@QEAA@XZ 000000018006eeb0 f i ImGui:imgui.obj
 0001:0006def0       ??0ImGuiColorMod@@QEAA@XZ  000000018006eef0 f i ImGui:imgui.obj
 0001:0006df20       ??0ImGuiComboPreviewData@@QEAA@XZ 000000018006ef20 f i ImGui:imgui.obj
 0001:0006df90       ??0ImGuiContext@@QEAA@PEAUImFontAtlas@@@Z 000000018006ef90 f i ImGui:imgui.obj
 0001:0006f1b0       ??0ImGuiInputEvent@@QEAA@XZ 00000001800701b0 f i ImGui:imgui.obj
 0001:0006f1e0       ??0ImGuiInputTextState@@QEAA@XZ 00000001800701e0 f i ImGui:imgui.obj
 0001:0006f240       ??0ImGuiLastItemData@@QEAA@XZ 0000000180070240 f i ImGui:imgui.obj
 0001:0006f2a0       ??0ImGuiListClipperData@@QEAA@XZ 00000001800702a0 f i ImGui:imgui.obj
 0001:0006f2e0       ??0ImGuiMenuColumns@@QEAA@XZ 00000001800702e0 f i ImGui:imgui.obj
 0001:0006f310       ??0ImGuiMetricsConfig@@QEAA@XZ 0000000180070310 f i ImGui:imgui.obj
 0001:0006f380       ??0ImGuiNavItemData@@QEAA@XZ 0000000180070380 f i ImGui:imgui.obj
 0001:0006f3b0       ??0ImGuiNextItemData@@QEAA@XZ 00000001800703b0 f i ImGui:imgui.obj
 0001:0006f3e0       ??0ImGuiNextWindowData@@QEAA@XZ 00000001800703e0 f i ImGui:imgui.obj
 0001:0006f480       ??0ImGuiPayload@@QEAA@XZ   0000000180070480 f i ImGui:imgui.obj
 0001:0006f4a0       ??0ImGuiPlatformImeData@@QEAA@XZ 00000001800704a0 f i ImGui:imgui.obj
 0001:0006f4e0       ??0ImGuiPopupData@@QEAA@XZ 00000001800704e0 f i ImGui:imgui.obj
 0001:0006f540       ??0ImGuiSettingsHandler@@QEAA@XZ 0000000180070540 f i ImGui:imgui.obj
 0001:0006f540       ??0ImGuiStackLevelInfo@@QEAA@XZ 0000000180070540 f i ImGui:imgui.obj
 0001:0006f540       ??0ImGui_ImplWin32_Data@@QEAA@XZ 0000000180070540 f i ImGui:imgui_impl_win32.obj
 0001:0006f570       ??0ImGuiSizeCallbackData@@QEAA@XZ 0000000180070570 f i ImGui:imgui.obj
 0001:0006f5c0       ??0ImGuiStackSizes@@QEAA@XZ 00000001800705c0 f i ImGui:imgui.obj
 0001:0006f5f0       ??0ImGuiStackTool@@QEAA@XZ 00000001800705f0 f i ImGui:imgui.obj
 0001:0006f640       ??0ImGuiStoragePair@ImGuiStorage@@QEAA@IH@Z 0000000180070640 f i ImGui:imgui.obj
 0001:0006f670       ??0ImGuiStoragePair@ImGuiStorage@@QEAA@IM@Z 0000000180070670 f i ImGui:imgui.obj
 0001:0006f6a0       ??0ImGuiStoragePair@ImGuiStorage@@QEAA@IPEAX@Z 00000001800706a0 f i ImGui:imgui.obj
 0001:0006f6d0       ??0ImGuiStyleMod@@QEAA@HM@Z 00000001800706d0 f i ImGui:imgui.obj
 0001:0006f710       ??0ImGuiStyleMod@@QEAA@HUImVec2@@@Z 0000000180070710 f i ImGui:imgui.obj
 0001:0006f770       ??0?$initializer_list@U?$pair@$$CBKV?$basic_string@DU?$char_traits@D@std@@V?$allocator@D@2@@std@@@std@@@std@@QEAA@PEBU?$pair@$$CBKV?$basic_string@DU?$char_traits@D@std@@V?$allocator@D@2@@std@@@1@0@Z 0000000180070770 f i g3log:stacktrace_windows.obj
 0001:0006f770       ??0ImGuiTextRange@ImGuiTextFilter@@QEAA@PEBD0@Z 0000000180070770 f i ImGui:imgui.obj
 0001:0006f7a0       ??0ImGuiViewport@@QEAA@XZ  00000001800707a0 f i ImGui:imgui.obj
 0001:0006f810       ??0ImGuiViewportP@@QEAA@XZ 0000000180070810 f i ImGui:imgui.obj
 0001:0006f900       ??0ImGuiWindowSettings@@QEAA@XZ 0000000180070900 f i ImGui:imgui.obj
 0001:0006f950       ??0ImGuiWindowStackData@@QEAA@XZ 0000000180070950 f i ImGui:imgui.obj
 0001:0006f990       ??0ImGuiWindowTempData@@QEAA@XZ 0000000180070990 f i ImGui:imgui.obj
 0001:0006fac0       ??0ImRect@@QEAA@AEBUImVec2@@0@Z 0000000180070ac0 f i ImGui:imgui.obj
 0001:0006fb00       ??0ImRect@@QEAA@AEBUImVec4@@@Z 0000000180070b00 f i ImGui:imgui.obj
 0001:0006fb70       ??0ImRect@@QEAA@MMMM@Z     0000000180070b70 f i ImGui:imgui.obj
 0001:0006fbe0       ??0ImRect@@QEAA@XZ         0000000180070be0 f i ImGui:imgui.obj
 0001:0006fc30       ??0ImVec1@@QEAA@XZ         0000000180070c30 f i ImGui:imgui.obj
 0001:0006fc50       ??0ImVec2@@QEAA@XZ         0000000180070c50 f i ImGui:imgui.obj
 0001:0006fc80       ??0ImVec2ih@@QEAA@AEBUImVec2@@@Z 0000000180070c80 f i ImGui:imgui.obj
 0001:0006fcc0       ??0ImVec2ih@@QEAA@FF@Z     0000000180070cc0 f i ImGui:imgui.obj
 0001:0006fd00       ??0ImVec2ih@@QEAA@XZ       0000000180070d00 f i ImGui:imgui.obj
 0001:0006fd20       ??0ImVec4@@QEAA@XZ         0000000180070d20 f i ImGui:imgui.obj
 0001:0006fd70       ??1?$ImChunkStream@UImGuiTableSettings@@@@QEAA@XZ 0000000180070d70 f i ImGui:imgui.obj
 0001:0006fd70       ??1?$ImChunkStream@UImGuiWindowSettings@@@@QEAA@XZ 0000000180070d70 f i ImGui:imgui.obj
 0001:0006fd70       ??1ImBitVector@@QEAA@XZ    0000000180070d70 f i ImGui:imgui_draw.obj
 0001:0006fd70       ??1ImGuiStorage@@QEAA@XZ   0000000180070d70 f i ImGui:imgui.obj
 0001:0006fd70       ??1ImGuiTextBuffer@@QEAA@XZ 0000000180070d70 f i ImGui:imgui.obj
 0001:0006fd90       ??1?$ImPool@UImGuiTabBar@@@@QEAA@XZ 0000000180070d90 f i ImGui:imgui.obj
 0001:0006fdd0       ??1?$ImPool@UImGuiTable@@@@QEAA@XZ 0000000180070dd0 f i ImGui:imgui.obj
 0001:0006fe10       ??1?$ImVector@D@@QEAA@XZ   0000000180070e10 f i ImGui:imgui.obj
 0001:0006fe10       ??1?$ImVector@E@@QEAA@XZ   0000000180070e10 f i ImGui:imgui.obj
 0001:0006fe10       ??1?$ImVector@G@@QEAA@XZ   0000000180070e10 f i ImGui:imgui.obj
 0001:0006fe10       ??1?$ImVector@H@@QEAA@XZ   0000000180070e10 f i ImGui:imgui.obj
 0001:0006fe10       ??1?$ImVector@I@@QEAA@XZ   0000000180070e10 f i ImGui:imgui.obj
 0001:0006fe10       ??1?$ImVector@M@@QEAA@XZ   0000000180070e10 f i ImGui:imgui.obj
 0001:0006fe10       ??1?$ImVector@PEAUImDrawList@@@@QEAA@XZ 0000000180070e10 f i ImGui:imgui.obj
 0001:0006fe10       ??1?$ImVector@PEAUImFont@@@@QEAA@XZ 0000000180070e10 f i ImGui:imgui.obj
 0001:0006fe10       ??1?$ImVector@PEAUImGuiViewportP@@@@QEAA@XZ 0000000180070e10 f i ImGui:imgui.obj
 0001:0006fe10       ??1?$ImVector@PEAUImGuiWindow@@@@QEAA@XZ 0000000180070e10 f i ImGui:imgui.obj
 0001:0006fe10       ??1?$ImVector@PEAX@@QEAA@XZ 0000000180070e10 f i ImGui:imgui.obj
 0001:0006fe10       ??1?$ImVector@UImDrawChannel@@@@QEAA@XZ 0000000180070e10 f i ImGui:imgui.obj
 0001:0006fe10       ??1?$ImVector@UImDrawCmd@@@@QEAA@XZ 0000000180070e10 f i ImGui:imgui.obj
 0001:0006fe10       ??1?$ImVector@UImDrawVert@@@@QEAA@XZ 0000000180070e10 f i ImGui:imgui.obj
 0001:0006fe10       ??1?$ImVector@UImFontAtlasCustomRect@@@@QEAA@XZ 0000000180070e10 f i ImGui:imgui_draw.obj
 0001:0006fe10       ??1?$ImVector@UImFontBuildDstData@@@@QEAA@XZ 0000000180070e10 f i ImGui:imgui_draw.obj
 0001:0006fe10       ??1?$ImVector@UImFontBuildSrcData@@@@QEAA@XZ 0000000180070e10 f i ImGui:imgui_draw.obj
 0001:0006fe10       ??1?$ImVector@UImFontConfig@@@@QEAA@XZ 0000000180070e10 f i ImGui:imgui_draw.obj
 0001:0006fe10       ??1?$ImVector@UImFontGlyph@@@@QEAA@XZ 0000000180070e10 f i ImGui:imgui_draw.obj
 0001:0006fe10       ??1?$ImVector@UImGuiColorMod@@@@QEAA@XZ 0000000180070e10 f i ImGui:imgui.obj
 0001:0006fe10       ??1?$ImVector@UImGuiContextHook@@@@QEAA@XZ 0000000180070e10 f i ImGui:imgui.obj
 0001:0006fe10       ??1?$ImVector@UImGuiGroupData@@@@QEAA@XZ 0000000180070e10 f i ImGui:imgui.obj
 0001:0006fe10       ??1?$ImVector@UImGuiInputEvent@@@@QEAA@XZ 0000000180070e10 f i ImGui:imgui.obj
 0001:0006fe10       ??1?$ImVector@UImGuiListClipperData@@@@QEAA@XZ 0000000180070e10 f i ImGui:imgui.obj
 0001:0006fe10       ??1?$ImVector@UImGuiListClipperRange@@@@QEAA@XZ 0000000180070e10 f i ImGui:imgui.obj
 0001:0006fe10       ??1?$ImVector@UImGuiOldColumnData@@@@QEAA@XZ 0000000180070e10 f i ImGui:imgui.obj
 0001:0006fe10       ??1?$ImVector@UImGuiOldColumns@@@@QEAA@XZ 0000000180070e10 f i ImGui:imgui.obj
 0001:0006fe10       ??1?$ImVector@UImGuiPopupData@@@@QEAA@XZ 0000000180070e10 f i ImGui:imgui.obj
 0001:0006fe10       ??1?$ImVector@UImGuiPtrOrIndex@@@@QEAA@XZ 0000000180070e10 f i ImGui:imgui.obj
 0001:0006fe10       ??1?$ImVector@UImGuiSettingsHandler@@@@QEAA@XZ 0000000180070e10 f i ImGui:imgui.obj
 0001:0006fe10       ??1?$ImVector@UImGuiShrinkWidthItem@@@@QEAA@XZ 0000000180070e10 f i ImGui:imgui.obj
 0001:0006fe10       ??1?$ImVector@UImGuiStackLevelInfo@@@@QEAA@XZ 0000000180070e10 f i ImGui:imgui.obj
 0001:0006fe10       ??1?$ImVector@UImGuiStoragePair@ImGuiStorage@@@@QEAA@XZ 0000000180070e10 f i ImGui:imgui.obj
 0001:0006fe10       ??1?$ImVector@UImGuiStyleMod@@@@QEAA@XZ 0000000180070e10 f i ImGui:imgui.obj
 0001:0006fe10       ??1?$ImVector@UImGuiTabBar@@@@QEAA@XZ 0000000180070e10 f i ImGui:imgui.obj
 0001:0006fe10       ??1?$ImVector@UImGuiTabItem@@@@QEAA@XZ 0000000180070e10 f i ImGui:imgui.obj
 0001:0006fe10       ??1?$ImVector@UImGuiTable@@@@QEAA@XZ 0000000180070e10 f i ImGui:imgui.obj
 0001:0006fe10       ??1?$ImVector@UImGuiTableColumnSortSpecs@@@@QEAA@XZ 0000000180070e10 f i ImGui:imgui.obj
 0001:0006fe10       ??1?$ImVector@UImGuiTableInstanceData@@@@QEAA@XZ 0000000180070e10 f i ImGui:imgui.obj
 0001:0006fe10       ??1?$ImVector@UImGuiTableTempData@@@@QEAA@XZ 0000000180070e10 f i ImGui:imgui.obj
 0001:0006fe10       ??1?$ImVector@UImGuiTextRange@ImGuiTextFilter@@@@QEAA@XZ 0000000180070e10 f i ImGui:imgui.obj
 0001:0006fe10       ??1?$ImVector@UImGuiWindowStackData@@@@QEAA@XZ 0000000180070e10 f i ImGui:imgui.obj
 0001:0006fe10       ??1?$ImVector@UImVec2@@@@QEAA@XZ 0000000180070e10 f i ImGui:imgui.obj
 0001:0006fe10       ??1?$ImVector@UImVec4@@@@QEAA@XZ 0000000180070e10 f i ImGui:imgui.obj
 0001:0006fe10       ??1?$ImVector@Ustbrp_rect@@@@QEAA@XZ 0000000180070e10 f i ImGui:imgui_draw.obj
 0001:0006fe10       ??1?$ImVector@Ustbtt_packedchar@@@@QEAA@XZ 0000000180070e10 f i ImGui:imgui_draw.obj
 0001:0006fe40       ??1ImDrawDataBuilder@@QEAA@XZ 0000000180070e40 f i ImGui:imgui.obj
 0001:0006fe70       ??1ImDrawList@@QEAA@XZ     0000000180070e70 f i ImGui:imgui.obj
 0001:0006ff00       ??1ImDrawListSplitter@@QEAA@XZ 0000000180070f00 f i ImGui:imgui.obj
 0001:0006ff30       ??1ImGuiContext@@QEAA@XZ   0000000180070f30 f i ImGui:imgui.obj
 0001:00070230       ??1ImGuiIO@@QEAA@XZ        0000000180071230 f i ImGui:imgui.obj
 0001:00070260       ??1ImGuiInputTextState@@QEAA@XZ 0000000180071260 f i ImGui:imgui.obj
 0001:000702b0       ??1ImGuiListClipperData@@QEAA@XZ 00000001800712b0 f i ImGui:imgui.obj
 0001:000702d0       ??1ImGuiOldColumns@@QEAA@XZ 00000001800712d0 f i ImGui:imgui.obj
 0001:00070300       ??1ImGuiStackTool@@QEAA@XZ 0000000180071300 f i ImGui:imgui.obj
 0001:00070320       ??1ImGuiTabBar@@QEAA@XZ    0000000180071320 f i ImGui:imgui.obj
 0001:00070350       ??1ImGuiTable@@QEAA@XZ     0000000180071350 f i ImGui:imgui.obj
 0001:000703b0       ??1ImGuiTableTempData@@QEAA@XZ 00000001800713b0 f i ImGui:imgui.obj
 0001:000703d0       ??1ImGuiViewportP@@QEAA@XZ 00000001800713d0 f i ImGui:imgui.obj
 0001:00070450       ??1ImGuiWindowTempData@@QEAA@XZ 0000000180071450 f i ImGui:imgui.obj
 0001:000704a0       ??2@YAPEAX_KUImNewWrapper@@PEAX@Z 00000001800714a0 f i ImGui:imgui.obj
 0001:000704c0       ??3@YAXPEAXUImNewWrapper@@0@Z 00000001800714c0 f i ImGui:imgui.obj
 0001:000704d0       ??A?$ImBitArray@$0IM@$0?CAA@@@QEBA_NH@Z 00000001800714d0 f i ImGui:imgui.obj
 0001:000704d0       ?TestBit@?$ImBitArray@$0IM@$0?CAA@@@QEBA_NH@Z 00000001800714d0 f i ImGui:imgui.obj
 0001:00070500       ??A?$ImSpan@UImGuiTableColumn@@@@QEAAAEAUImGuiTableColumn@@H@Z 0000000180071500 f i ImGui:imgui.obj
 0001:00070500       ??A?$ImSpan@UImGuiTableColumn@@@@QEBAAEBUImGuiTableColumn@@H@Z 0000000180071500 f i ImGui:imgui_tables.obj
 0001:00070530       ??A?$ImVector@D@@QEAAAEADH@Z 0000000180071530 f i ImGui:imgui.obj
 0001:00070530       ??A?$ImVector@D@@QEBAAEBDH@Z 0000000180071530 f i ImGui:imgui_tables.obj
 0001:00070550       ??A?$ImVector@G@@QEAAAEAGH@Z 0000000180071550 f i ImGui:imgui.obj
 0001:00070550       ??A?$ImVector@G@@QEBAAEBGH@Z 0000000180071550 f i ImGui:imgui_widgets.obj
 0001:00070570       ??A?$ImVector@H@@QEAAAEAHH@Z 0000000180071570 f i ImGui:imgui_draw.obj
 0001:00070570       ??A?$ImVector@I@@QEAAAEAIH@Z 0000000180071570 f i ImGui:imgui.obj
 0001:00070570       ??A?$ImVector@I@@QEBAAEBIH@Z 0000000180071570 f i ImGui:imgui_draw.obj
 0001:00070570       ??A?$ImVector@M@@QEAAAEAMH@Z 0000000180071570 f i ImGui:imgui.obj
 0001:00070570       ??A?$ImVector@M@@QEBAAEBMH@Z 0000000180071570 f i ImGui:imgui_widgets.obj
 0001:00070590       ??A?$ImVector@PEAUImDrawList@@@@QEAAAEAPEAUImDrawList@@H@Z 0000000180071590 f i ImGui:imgui.obj
 0001:00070590       ??A?$ImVector@PEAUImFont@@@@QEAAAEAPEAUImFont@@H@Z 0000000180071590 f i ImGui:imgui.obj
 0001:00070590       ??A?$ImVector@PEAUImGuiViewportP@@@@QEAAAEAPEAUImGuiViewportP@@H@Z 0000000180071590 f i ImGui:imgui.obj
 0001:00070590       ??A?$ImVector@PEAUImGuiWindow@@@@QEAAAEAPEAUImGuiWindow@@H@Z 0000000180071590 f i ImGui:imgui.obj
 0001:00070590       ??A?$ImVector@UImGuiTableInstanceData@@@@QEAAAEAUImGuiTableInstanceData@@H@Z 0000000180071590 f i ImGui:imgui.obj
 0001:000705b0       ??A?$ImVector@UImDrawCmd@@@@QEAAAEAUImDrawCmd@@H@Z 00000001800715b0 f i ImGui:imgui.obj
 0001:000705b0       ??A?$ImVector@UImDrawCmd@@@@QEBAAEBUImDrawCmd@@H@Z 00000001800715b0 f i ImGui:imgui_impl_dx9.obj
 0001:000705b0       ??A?$ImVector@UImGuiPopupData@@@@QEAAAEAUImGuiPopupData@@H@Z 00000001800715b0 f i ImGui:imgui.obj
 0001:000705d0       ??A?$ImVector@UImDrawChannel@@@@QEAAAEAUImDrawChannel@@H@Z 00000001800715d0 f i ImGui:imgui_draw.obj
 0001:000705d0       ??A?$ImVector@UImFontAtlasCustomRect@@@@QEAAAEAUImFontAtlasCustomRect@@H@Z 00000001800715d0 f i ImGui:imgui_draw.obj
 0001:000705d0       ??A?$ImVector@UImFontBuildDstData@@@@QEAAAEAUImFontBuildDstData@@H@Z 00000001800715d0 f i ImGui:imgui_draw.obj
 0001:000705d0       ??A?$ImVector@UImGuiContextHook@@@@QEAAAEAUImGuiContextHook@@H@Z 00000001800715d0 f i ImGui:imgui.obj
 0001:000705f0       ??A?$ImVector@UImGuiInputEvent@@@@QEAAAEAUImGuiInputEvent@@H@Z 00000001800715f0 f i ImGui:imgui.obj
 0001:000705f0       ??A?$ImVector@Ustbrp_rect@@@@QEAAAEAUstbrp_rect@@H@Z 00000001800715f0 f i ImGui:imgui_draw.obj
 0001:00070610       ??A?$ImVector@UImFontGlyph@@@@QEAAAEAUImFontGlyph@@H@Z 0000000180071610 f i ImGui:imgui_draw.obj
 0001:00070610       ??A?$ImVector@UImGuiListClipperData@@@@QEAAAEAUImGuiListClipperData@@H@Z 0000000180071610 f i ImGui:imgui.obj
 0001:00070630       ??A?$ImVector@UImGuiListClipperRange@@@@QEAAAEAUImGuiListClipperRange@@H@Z 0000000180071630 f i ImGui:imgui.obj
 0001:00070630       ??A?$ImVector@UImGuiShrinkWidthItem@@@@QEAAAEAUImGuiShrinkWidthItem@@H@Z 0000000180071630 f i ImGui:imgui_widgets.obj
 0001:00070650       ??A?$ImVector@UImGuiOldColumnData@@@@QEAAAEAUImGuiOldColumnData@@H@Z 0000000180071650 f i ImGui:imgui.obj
 0001:00070650       ??A?$ImVector@Ustbtt_packedchar@@@@QEAAAEAUstbtt_packedchar@@H@Z 0000000180071650 f i ImGui:imgui_draw.obj
 0001:00070670       ??A?$ImVector@UImFontConfig@@@@QEAAAEAUImFontConfig@@H@Z 0000000180071670 f i ImGui:imgui_draw.obj
 0001:00070670       ??A?$ImVector@UImGuiOldColumns@@@@QEAAAEAUImGuiOldColumns@@H@Z 0000000180071670 f i ImGui:imgui.obj
 0001:00070690       ??A?$ImVector@UImGuiSettingsHandler@@@@QEAAAEAUImGuiSettingsHandler@@H@Z 0000000180071690 f i ImGui:imgui.obj
 0001:00070690       ??A?$ImVector@UImGuiStackLevelInfo@@@@QEAAAEAUImGuiStackLevelInfo@@H@Z 0000000180071690 f i ImGui:imgui.obj
 0001:000706b0       ??A?$ImVector@UImGuiStoragePair@ImGuiStorage@@@@QEAAAEAUImGuiStoragePair@ImGuiStorage@@H@Z 00000001800716b0 f i ImGui:imgui.obj
 0001:000706b0       ??A?$ImVector@UImGuiTextRange@ImGuiTextFilter@@@@QEAAAEAUImGuiTextRange@ImGuiTextFilter@@H@Z 00000001800716b0 f i ImGui:imgui.obj
 0001:000706b0       ??A?$ImVector@UImGuiTextRange@ImGuiTextFilter@@@@QEBAAEBUImGuiTextRange@ImGuiTextFilter@@H@Z 00000001800716b0 f i ImGui:imgui.obj
 0001:000706d0       ??A?$ImVector@UImGuiTabBar@@@@QEAAAEAUImGuiTabBar@@H@Z 00000001800716d0 f i ImGui:imgui.obj
 0001:000706f0       ??A?$ImVector@UImGuiTabItem@@@@QEAAAEAUImGuiTabItem@@H@Z 00000001800716f0 f i ImGui:imgui.obj
 0001:00070710       ??A?$ImVector@UImGuiTable@@@@QEAAAEAUImGuiTable@@H@Z 0000000180071710 f i ImGui:imgui.obj
 0001:00070730       ??A?$ImVector@UImGuiTableTempData@@@@QEAAAEAUImGuiTableTempData@@H@Z 0000000180071730 f i ImGui:imgui.obj
 0001:00070750       ??A?$ImVector@UImGuiWindowStackData@@@@QEAAAEAUImGuiWindowStackData@@H@Z 0000000180071750 f i ImGui:imgui.obj
 0001:00070770       ??AImVec2@@QEAAAEAM_K@Z    0000000180071770 f i ImGui:imgui.obj
 0001:00070790       ??_GImDrawList@@QEAAPEAXI@Z 0000000180071790 f i ImGui:imgui.obj
 0001:000707d0       ??_GImFontAtlas@@QEAAPEAXI@Z 00000001800717d0 f i ImGui:imgui.obj
 0001:00070810       ??_GImGuiContext@@QEAAPEAXI@Z 0000000180071810 f i ImGui:imgui.obj
 0001:00070850       ??_GImGuiListClipperData@@QEAAPEAXI@Z 0000000180071850 f i ImGui:imgui.obj
 0001:00070890       ??_GImGuiOldColumns@@QEAAPEAXI@Z 0000000180071890 f i ImGui:imgui.obj
 0001:000708d0       ??_GImGuiTabBar@@QEAAPEAXI@Z 00000001800718d0 f i ImGui:imgui.obj
 0001:00070910       ??_GImGuiTable@@QEAAPEAXI@Z 0000000180071910 f i ImGui:imgui.obj
 0001:00070950       ??_GImGuiTableTempData@@QEAAPEAXI@Z 0000000180071950 f i ImGui:imgui.obj
 0001:00070990       ??_GImGuiViewportP@@QEAAPEAXI@Z 0000000180071990 f i ImGui:imgui.obj
 0001:000709d0       ??_GImGuiWindow@@QEAAPEAXI@Z 00000001800719d0 f i ImGui:imgui.obj
 0001:00070a10       ?Add@ImRect@@QEAAXAEBU1@@Z 0000000180071a10 f i ImGui:imgui.obj
 0001:00070ac0       ?Add@ImRect@@QEAAXAEBUImVec2@@@Z 0000000180071ac0 f i ImGui:imgui.obj
 0001:00070b70       ?CalcFontSize@ImGuiWindow@@QEBAMXZ 0000000180071b70 f i ImGui:imgui.obj
 0001:00070be0       ?CalcWorkRectPos@ImGuiViewportP@@QEBA?AUImVec2@@AEBU2@@Z 0000000180071be0 f i ImGui:imgui.obj
 0001:00070c40       ?CalcWorkRectSize@ImGuiViewportP@@QEBA?AUImVec2@@AEBU2@0@Z 0000000180071c40 f i ImGui:imgui.obj
 0001:00070ce0       ?Clear@?$ImPool@UImGuiTabBar@@@@QEAAXXZ 0000000180071ce0 f i ImGui:imgui.obj
 0001:00070da0       ?Clear@?$ImPool@UImGuiTable@@@@QEAAXXZ 0000000180071da0 f i ImGui:imgui.obj
 0001:00070e60       ?Clear@ImDrawData@@QEAAXXZ 0000000180071e60 f i ImGui:imgui.obj
 0001:00070e80       ?Clear@ImDrawDataBuilder@@QEAAXXZ 0000000180071e80 f i ImGui:imgui.obj
 0001:00070ed0       ?Clear@ImGuiNavItemData@@QEAAXXZ 0000000180071ed0 f i ImGui:imgui.obj
 0001:00070f40       ?Clear@ImGuiPayload@@QEAAXXZ 0000000180071f40 f i ImGui:imgui.obj
 0001:00070fc0       ?Clear@ImBitVector@@QEAAXXZ 0000000180071fc0 f i ImGui:imgui_draw.obj
 0001:00070fc0       ?Clear@ImGuiStorage@@QEAAXXZ 0000000180071fc0 f i ImGui:imgui.obj
 0001:00070fc0       ?clear@?$ImChunkStream@UImGuiTableSettings@@@@QEAAXXZ 0000000180071fc0 f i ImGui:imgui_tables.obj
 0001:00070fc0       ?clear@?$ImChunkStream@UImGuiWindowSettings@@@@QEAAXXZ 0000000180071fc0 f i ImGui:imgui.obj
 0001:00070fc0       ?clear@ImGuiTextBuffer@@QEAAXXZ 0000000180071fc0 f i ImGui:imgui.obj
 0001:00070fe0       ?ClearAllBits@?$ImBitArray@$0CIM@$0A@@@QEAAXXZ 0000000180071fe0 f i ImGui:imgui.obj
 0001:00071010       ?ClearAllBits@?$ImBitArray@$0IE@$0A@@@QEAAXXZ 0000000180072010 f i ImGui:imgui_tables.obj
 0001:00071010       ?ClearAllBits@?$ImBitArray@$0IM@$0?CAA@@@QEAAXXZ 0000000180072010 f i ImGui:imgui.obj
 0001:00071040       ?ClearFlags@ImGuiNextItemData@@QEAAXXZ 0000000180072040 f i ImGui:imgui_widgets.obj
 0001:00071040       ?ClearFlags@ImGuiNextWindowData@@QEAAXXZ 0000000180072040 f i ImGui:imgui.obj
 0001:00071060       ?ClearFreeMemory@ImGuiInputTextState@@QEAAXXZ 0000000180072060 f i ImGui:imgui.obj
 0001:000710b0       ?ClipWith@ImRect@@QEAAXAEBU1@@Z 00000001800720b0 f i ImGui:imgui.obj
 0001:00071120       ?ClipWithFull@ImRect@@QEAAXAEBU1@@Z 0000000180072120 f i ImGui:imgui.obj
 0001:000711a0       ?Contains@ImRect@@QEBA_NAEBU1@@Z 00000001800721a0 f i ImGui:imgui.obj
 0001:00071220       ?Contains@ImRect@@QEBA_NAEBUImVec2@@@Z 0000000180072220 f i ImGui:imgui.obj
 0001:000712a0       ?DebugStartItemPicker@ImGui@@YAXXZ 00000001800722a0 f i ImGui:imgui.obj
 0001:000712c0       ?Expand@ImRect@@QEAAXAEBUImVec2@@@Z 00000001800722c0 f i ImGui:imgui.obj
 0001:00071340       ?Expand@ImRect@@QEAAXM@Z   0000000180072340 f i ImGui:imgui.obj
 0001:000713c0       ?FromIndices@ImGuiListClipperRange@@SA?AU1@HH@Z 00000001800723c0 f i ImGui:imgui.obj
 0001:00071410       ?FromPositions@ImGuiListClipperRange@@SA?AU1@MMHH@Z 0000000180072410 f i ImGui:imgui.obj
 0001:00071470       ?GetAliveCount@?$ImPool@UImGuiTabBar@@@@QEBAHXZ 0000000180072470 f i ImGui:imgui.obj
 0001:00071470       ?GetAliveCount@?$ImPool@UImGuiTable@@@@QEBAHXZ 0000000180072470 f i ImGui:imgui.obj
 0001:00071480       ?GetBL@ImRect@@QEBA?AUImVec2@@XZ 0000000180072480 f i ImGui:imgui.obj
 0001:000714c0       ?GetBR@ImRect@@QEBA?AUImVec2@@XZ 00000001800724c0 f i ImGui:imgui.obj
 0001:000714f0       ?GetByIndex@?$ImPool@UImGuiTabBar@@@@QEAAPEAUImGuiTabBar@@H@Z 00000001800724f0 f i ImGui:imgui.obj
 0001:00071520       ?GetByIndex@?$ImPool@UImGuiTable@@@@QEAAPEAUImGuiTable@@H@Z 0000000180072520 f i ImGui:imgui.obj
 0001:00071550       ?GetCenter@ImGuiViewport@@QEBA?AUImVec2@@XZ 0000000180072550 f i ImGui:imgui.obj
 0001:000715c0       ?GetCurrentWindow@ImGui@@YAPEAUImGuiWindow@@XZ 00000001800725c0 f i ImGui:imgui.obj
 0001:00071600       ?GetCurrentWindowRead@ImGui@@YAPEAUImGuiWindow@@XZ 0000000180072600 f i ImGui:imgui.obj
 0001:00071620       ?GetDefaultFont@ImGui@@YAPEAUImFont@@XZ 0000000180072620 f i ImGui:imgui.obj
 0001:00071680       ?GetDrawListCount@ImDrawDataBuilder@@QEBAHXZ 0000000180072680 f i ImGui:imgui.obj
 0001:000716d0       ?GetForegroundDrawList@ImGui@@YAPEAUImDrawList@@PEAUImGuiWindow@@@Z 00000001800726d0 f i ImGui:imgui.obj
 0001:000716f0       ?GetHeight@ImRect@@QEBAMXZ 00000001800726f0 f i ImGui:imgui.obj
 0001:00071710       ?GetMainRect@ImGuiViewportP@@QEBA?AUImRect@@XZ 0000000180072710 f i ImGui:imgui.obj
 0001:00071780       ?GetMapSize@?$ImPool@UImGuiTabBar@@@@QEBAHXZ 0000000180072780 f i ImGui:imgui.obj
 0001:00071780       ?GetMapSize@?$ImPool@UImGuiTable@@@@QEBAHXZ 0000000180072780 f i ImGui:imgui.obj
 0001:00071790       ?GetColumnSettings@ImGuiTableSettings@@QEAAPEAUImGuiTableColumnSettings@@XZ 0000000180072790 f i ImGui:imgui_tables.obj
 0001:00071790       ?GetName@ImGuiWindowSettings@@QEAAPEADXZ 0000000180072790 f i ImGui:imgui.obj
 0001:000717a0       ?GetSize@ImRect@@QEBA?AUImVec2@@XZ 00000001800727a0 f i ImGui:imgui.obj
 0001:000717f0       ?GetTabName@ImGuiTabBar@@QEBAPEBDPEBUImGuiTabItem@@@Z 00000001800727f0 f i ImGui:imgui.obj
 0001:00071810       ?GetVarPtr@ImGuiStyleVarInfo@@QEBAPEAXPEAUImGuiStyle@@@Z 0000000180072810 f i ImGui:imgui.obj
 0001:00071830       ?GetWidth@ImRect@@QEBAMXZ  0000000180072830 f i ImGui:imgui.obj
 0001:00071850       ?GetWorkRect@ImGuiViewportP@@QEBA?AUImRect@@XZ 0000000180072850 f i ImGui:imgui.obj
 0001:000718c0       ?ImBitArraySetBit@@YAXPEAIH@Z 00000001800728c0 f i ImGui:imgui.obj
 0001:00071910       ?ImBitArraySetBitRange@@YAXPEAIHH@Z 0000000180072910 f i ImGui:imgui.obj
 0001:000719e0       ?ImBitArrayTestBit@@YA_NPEBIH@Z 00000001800729e0 f i ImGui:imgui.obj
 0001:00071a40       ?ImTriangleArea@@YAMAEBUImVec2@@00@Z 0000000180072a40 f i ImGui:imgui.obj
 0001:00071ad0       ?IsActiveIdUsingKey@ImGui@@YA_NH@Z 0000000180072ad0 f i ImGui:imgui.obj
 0001:00071b10       ?IsActiveIdUsingNavDir@ImGui@@YA_NH@Z 0000000180072b10 f i ImGui:imgui.obj
 0001:00071b60       ?IsDataType@ImGuiPayload@@QEBA_NPEBD@Z 0000000180072b60 f i ImGui:imgui.obj
 0001:00071bb0       ?IsGamepadKey@ImGui@@YA_NH@Z 0000000180072bb0 f i ImGui:imgui.obj
 0001:00071bf0       ?IsInverted@ImRect@@QEBA_NXZ 0000000180072bf0 f i ImGui:imgui.obj
 0001:00071c40       ?IsLegacyKey@ImGui@@YA_NH@Z 0000000180072c40 f i ImGui:imgui.obj
 0001:00071c80       ?IsNamedKey@ImGui@@YA_NH@Z 0000000180072c80 f i ImGui:imgui.obj
 0001:00071cc0       ?MenuBarHeight@ImGuiWindow@@QEBAMXZ 0000000180072cc0 f i ImGui:imgui.obj
 0001:00071d40       ?MenuBarRect@ImGuiWindow@@QEBA?AUImRect@@XZ 0000000180072d40 f i ImGui:imgui.obj
 0001:00071df0       ?MouseButtonToKey@ImGui@@YAHH@Z 0000000180072df0 f i ImGui:imgui.obj
 0001:00071e00       ?Overlaps@ImRect@@QEBA_NAEBU1@@Z 0000000180072e00 f i ImGui:imgui.obj
 0001:00071e80       ?PathFillConvex@ImDrawList@@QEAAXI@Z 0000000180072e80 f i ImGui:imgui.obj
 0001:00071ed0       ?PathLineTo@ImDrawList@@QEAAXAEBUImVec2@@@Z 0000000180072ed0 f i ImGui:imgui.obj
 0001:00071f00       ?PathStroke@ImDrawList@@QEAAXIHM@Z 0000000180072f00 f i ImGui:imgui.obj
 0001:00071f70       ?Rect@ImGuiWindow@@QEBA?AUImRect@@XZ 0000000180072f70 f i ImGui:imgui.obj
 0001:00071fe0       ?Reset@ImGuiListClipperData@@QEAAXPEAUImGuiListClipper@@@Z 0000000180072fe0 f i ImGui:imgui.obj
 0001:00072040       ?SetActiveIdUsingKey@ImGui@@YAXH@Z 0000000180073040 f i ImGui:imgui.obj
 0001:00072080       ?SetBit@?$ImBitArray@$0CIM@$0A@@@QEAAXH@Z 0000000180073080 f i ImGui:imgui.obj
 0001:00072080       ?SetBit@?$ImBitArray@$0IE@$0A@@@QEAAXH@Z 0000000180073080 f i ImGui:imgui_tables.obj
 0001:000720b0       ?SetBit@?$ImBitArray@$0IM@$0?CAA@@@QEAAXH@Z 00000001800730b0 f i ImGui:imgui.obj
 0001:000720e0       ?SetBitRange@?$ImBitArray@$0IM@$0?CAA@@@QEAAXHH@Z 00000001800730e0 f i ImGui:imgui.obj
 0001:00072130       ?TableGetInstanceData@ImGui@@YAPEAUImGuiTableInstanceData@@PEAUImGuiTable@@H@Z 0000000180073130 f i ImGui:imgui.obj
 0001:00072180       ?TestBit@?$ImBitArray@$0CIM@$0A@@@QEBA_NH@Z 0000000180073180 f i ImGui:imgui.obj
 0001:00072180       ?TestBit@?$ImBitArray@$0IE@$0A@@@QEBA_NH@Z 0000000180073180 f i ImGui:imgui_tables.obj
 0001:000721b0       ?TitleBarHeight@ImGuiWindow@@QEBAMXZ 00000001800731b0 f i ImGui:imgui.obj
 0001:00072220       ?TitleBarRect@ImGuiWindow@@QEBA?AUImRect@@XZ 0000000180073220 f i ImGui:imgui.obj
 0001:000722a0       ?ToVec4@ImRect@@QEBA?AUImVec4@@XZ 00000001800732a0 f i ImGui:imgui.obj
 0001:000722f0       ?Translate@ImRect@@QEAAXAEBUImVec2@@@Z 00000001800732f0 f i ImGui:imgui.obj
 0001:00072370       ?TranslateX@ImRect@@QEAAXM@Z 0000000180073370 f i ImGui:imgui.obj
 0001:000723b0       ?TranslateY@ImRect@@QEAAXM@Z 00000001800733b0 f i ImGui:imgui.obj
 0001:000723f0       ?TryGetMapData@?$ImPool@UImGuiTabBar@@@@QEAAPEAUImGuiTabBar@@H@Z 00000001800733f0 f i ImGui:imgui.obj
 0001:00072440       ?TryGetMapData@?$ImPool@UImGuiTable@@@@QEAAPEAUImGuiTable@@H@Z 0000000180073440 f i ImGui:imgui.obj
 0001:00072490       ?UpdateWorkRect@ImGuiViewportP@@QEAAXXZ 0000000180073490 f i ImGui:imgui.obj
 0001:00072500       ?WindowRectAbsToRel@ImGui@@YA?AUImRect@@PEAUImGuiWindow@@AEBU2@@Z 0000000180073500 f i ImGui:imgui.obj
 0001:000725a0       ?WindowRectRelToAbs@ImGui@@YA?AUImRect@@PEAUImGuiWindow@@AEBU2@@Z 00000001800735a0 f i ImGui:imgui.obj
 0001:00072640       ?_grow_capacity@?$ImVector@D@@QEBAHH@Z 0000000180073640 f i ImGui:imgui.obj
 0001:00072640       ?_grow_capacity@?$ImVector@E@@QEBAHH@Z 0000000180073640 f i ImGui:imgui.obj
 0001:00072640       ?_grow_capacity@?$ImVector@G@@QEBAHH@Z 0000000180073640 f i ImGui:imgui.obj
 0001:00072640       ?_grow_capacity@?$ImVector@H@@QEBAHH@Z 0000000180073640 f i ImGui:imgui.obj
 0001:00072640       ?_grow_capacity@?$ImVector@I@@QEBAHH@Z 0000000180073640 f i ImGui:imgui.obj
 0001:00072640       ?_grow_capacity@?$ImVector@M@@QEBAHH@Z 0000000180073640 f i ImGui:imgui.obj
 0001:00072640       ?_grow_capacity@?$ImVector@PEAUImDrawList@@@@QEBAHH@Z 0000000180073640 f i ImGui:imgui.obj
 0001:00072640       ?_grow_capacity@?$ImVector@PEAUImFont@@@@QEBAHH@Z 0000000180073640 f i ImGui:imgui.obj
 0001:00072640       ?_grow_capacity@?$ImVector@PEAUImGuiViewportP@@@@QEBAHH@Z 0000000180073640 f i ImGui:imgui.obj
 0001:00072640       ?_grow_capacity@?$ImVector@PEAUImGuiWindow@@@@QEBAHH@Z 0000000180073640 f i ImGui:imgui.obj
 0001:00072640       ?_grow_capacity@?$ImVector@PEAX@@QEBAHH@Z 0000000180073640 f i ImGui:imgui_draw.obj
 0001:00072640       ?_grow_capacity@?$ImVector@UImDrawChannel@@@@QEBAHH@Z 0000000180073640 f i ImGui:imgui_draw.obj
 0001:00072640       ?_grow_capacity@?$ImVector@UImDrawCmd@@@@QEBAHH@Z 0000000180073640 f i ImGui:imgui.obj
 0001:00072640       ?_grow_capacity@?$ImVector@UImDrawVert@@@@QEBAHH@Z 0000000180073640 f i ImGui:imgui_draw.obj
 0001:00072640       ?_grow_capacity@?$ImVector@UImFontAtlasCustomRect@@@@QEBAHH@Z 0000000180073640 f i ImGui:imgui_draw.obj
 0001:00072640       ?_grow_capacity@?$ImVector@UImFontBuildDstData@@@@QEBAHH@Z 0000000180073640 f i ImGui:imgui_draw.obj
 0001:00072640       ?_grow_capacity@?$ImVector@UImFontBuildSrcData@@@@QEBAHH@Z 0000000180073640 f i ImGui:imgui_draw.obj
 0001:00072640       ?_grow_capacity@?$ImVector@UImFontConfig@@@@QEBAHH@Z 0000000180073640 f i ImGui:imgui_draw.obj
 0001:00072640       ?_grow_capacity@?$ImVector@UImFontGlyph@@@@QEBAHH@Z 0000000180073640 f i ImGui:imgui_draw.obj
 0001:00072640       ?_grow_capacity@?$ImVector@UImGuiColorMod@@@@QEBAHH@Z 0000000180073640 f i ImGui:imgui.obj
 0001:00072640       ?_grow_capacity@?$ImVector@UImGuiContextHook@@@@QEBAHH@Z 0000000180073640 f i ImGui:imgui.obj
 0001:00072640       ?_grow_capacity@?$ImVector@UImGuiGroupData@@@@QEBAHH@Z 0000000180073640 f i ImGui:imgui.obj
 0001:00072640       ?_grow_capacity@?$ImVector@UImGuiInputEvent@@@@QEBAHH@Z 0000000180073640 f i ImGui:imgui.obj
 0001:00072640       ?_grow_capacity@?$ImVector@UImGuiListClipperData@@@@QEBAHH@Z 0000000180073640 f i ImGui:imgui.obj
 0001:00072640       ?_grow_capacity@?$ImVector@UImGuiListClipperRange@@@@QEBAHH@Z 0000000180073640 f i ImGui:imgui.obj
 0001:00072640       ?_grow_capacity@?$ImVector@UImGuiOldColumnData@@@@QEBAHH@Z 0000000180073640 f i ImGui:imgui_tables.obj
 0001:00072640       ?_grow_capacity@?$ImVector@UImGuiOldColumns@@@@QEBAHH@Z 0000000180073640 f i ImGui:imgui_tables.obj
 0001:00072640       ?_grow_capacity@?$ImVector@UImGuiPopupData@@@@QEBAHH@Z 0000000180073640 f i ImGui:imgui.obj
 0001:00072640       ?_grow_capacity@?$ImVector@UImGuiPtrOrIndex@@@@QEBAHH@Z 0000000180073640 f i ImGui:imgui_widgets.obj
 0001:00072640       ?_grow_capacity@?$ImVector@UImGuiSettingsHandler@@@@QEBAHH@Z 0000000180073640 f i ImGui:imgui.obj
 0001:00072640       ?_grow_capacity@?$ImVector@UImGuiShrinkWidthItem@@@@QEBAHH@Z 0000000180073640 f i ImGui:imgui_widgets.obj
 0001:00072640       ?_grow_capacity@?$ImVector@UImGuiStackLevelInfo@@@@QEBAHH@Z 0000000180073640 f i ImGui:imgui.obj
 0001:00072640       ?_grow_capacity@?$ImVector@UImGuiStoragePair@ImGuiStorage@@@@QEBAHH@Z 0000000180073640 f i ImGui:imgui.obj
 0001:00072640       ?_grow_capacity@?$ImVector@UImGuiStyleMod@@@@QEBAHH@Z 0000000180073640 f i ImGui:imgui.obj
 0001:00072640       ?_grow_capacity@?$ImVector@UImGuiTabBar@@@@QEBAHH@Z 0000000180073640 f i ImGui:imgui_widgets.obj
 0001:00072640       ?_grow_capacity@?$ImVector@UImGuiTabItem@@@@QEBAHH@Z 0000000180073640 f i ImGui:imgui_widgets.obj
 0001:00072640       ?_grow_capacity@?$ImVector@UImGuiTable@@@@QEBAHH@Z 0000000180073640 f i ImGui:imgui_tables.obj
 0001:00072640       ?_grow_capacity@?$ImVector@UImGuiTableColumnSortSpecs@@@@QEBAHH@Z 0000000180073640 f i ImGui:imgui_tables.obj
 0001:00072640       ?_grow_capacity@?$ImVector@UImGuiTableInstanceData@@@@QEBAHH@Z 0000000180073640 f i ImGui:imgui_tables.obj
 0001:00072640       ?_grow_capacity@?$ImVector@UImGuiTableTempData@@@@QEBAHH@Z 0000000180073640 f i ImGui:imgui_tables.obj
 0001:00072640       ?_grow_capacity@?$ImVector@UImGuiTextRange@ImGuiTextFilter@@@@QEBAHH@Z 0000000180073640 f i ImGui:imgui.obj
 0001:00072640       ?_grow_capacity@?$ImVector@UImGuiWindowStackData@@@@QEBAHH@Z 0000000180073640 f i ImGui:imgui.obj
 0001:00072640       ?_grow_capacity@?$ImVector@UImVec2@@@@QEBAHH@Z 0000000180073640 f i ImGui:imgui.obj
 0001:00072640       ?_grow_capacity@?$ImVector@UImVec4@@@@QEBAHH@Z 0000000180073640 f i ImGui:imgui_draw.obj
 0001:00072640       ?_grow_capacity@?$ImVector@Ustbrp_rect@@@@QEBAHH@Z 0000000180073640 f i ImGui:imgui_draw.obj
 0001:00072640       ?_grow_capacity@?$ImVector@Ustbtt_packedchar@@@@QEBAHH@Z 0000000180073640 f i ImGui:imgui_draw.obj
 0001:000726b0       ?alloc_chunk@?$ImChunkStream@UImGuiTableSettings@@@@QEAAPEAUImGuiTableSettings@@_K@Z 00000001800736b0 f i ImGui:imgui_tables.obj
 0001:000726b0       ?alloc_chunk@?$ImChunkStream@UImGuiWindowSettings@@@@QEAAPEAUImGuiWindowSettings@@_K@Z 00000001800736b0 f i ImGui:imgui.obj
 0001:00072750       ?back@?$ImVector@D@@QEBAAEBDXZ 0000000180073750 f i ImGui:imgui.obj
 0001:00072770       ?back@?$ImVector@H@@QEAAAEAHXZ 0000000180073770 f i ImGui:imgui.obj
 0001:00072770       ?back@?$ImVector@I@@QEAAAEAIXZ 0000000180073770 f i ImGui:imgui.obj
 0001:00072770       ?back@?$ImVector@M@@QEAAAEAMXZ 0000000180073770 f i ImGui:imgui.obj
 0001:00072790       ?back@?$ImVector@PEAUImFont@@@@QEAAAEAPEAUImFont@@XZ 0000000180073790 f i ImGui:imgui.obj
 0001:00072790       ?back@?$ImVector@PEAUImGuiWindow@@@@QEAAAEAPEAUImGuiWindow@@XZ 0000000180073790 f i ImGui:imgui.obj
 0001:00072790       ?back@?$ImVector@UImVec2@@@@QEAAAEAUImVec2@@XZ 0000000180073790 f i ImGui:imgui_draw.obj
 0001:000727b0       ?back@?$ImVector@UImDrawCmd@@@@QEAAAEAUImDrawCmd@@XZ 00000001800737b0 f i ImGui:imgui.obj
 0001:000727b0       ?back@?$ImVector@UImDrawCmd@@@@QEBAAEBUImDrawCmd@@XZ 00000001800737b0 f i ImGui:imgui.obj
 0001:000727b0       ?back@?$ImVector@UImGuiPopupData@@@@QEAAAEAUImGuiPopupData@@XZ 00000001800737b0 f i ImGui:imgui.obj
 0001:000727d0       ?back@?$ImVector@UImGuiColorMod@@@@QEAAAEAUImGuiColorMod@@XZ 00000001800737d0 f i ImGui:imgui.obj
 0001:000727f0       ?back@?$ImVector@UImGuiContextHook@@@@QEAAAEAUImGuiContextHook@@XZ 00000001800737f0 f i ImGui:imgui.obj
 0001:00072810       ?back@?$ImVector@UImGuiGroupData@@@@QEAAAEAUImGuiGroupData@@XZ 0000000180073810 f i ImGui:imgui.obj
 0001:00072830       ?back@?$ImVector@UImGuiStyleMod@@@@QEAAAEAUImGuiStyleMod@@XZ 0000000180073830 f i ImGui:imgui.obj
 0001:00072850       ?back@?$ImVector@UImGuiWindowStackData@@@@QEAAAEAUImGuiWindowStackData@@XZ 0000000180073850 f i ImGui:imgui.obj
 0001:00072870       ?back@?$ImVector@UImGuiPtrOrIndex@@@@QEAAAEAUImGuiPtrOrIndex@@XZ 0000000180073870 f i ImGui:imgui_widgets.obj
 0001:00072870       ?back@?$ImVector@UImVec4@@@@QEAAAEAUImVec4@@XZ 0000000180073870 f i ImGui:imgui.obj
 0001:00072890       ?begin@?$ImChunkStream@UImGuiTableSettings@@@@QEAAPEAUImGuiTableSettings@@XZ 0000000180073890 f i ImGui:imgui.obj
 0001:00072890       ?begin@?$ImChunkStream@UImGuiWindowSettings@@@@QEAAPEAUImGuiWindowSettings@@XZ 0000000180073890 f i ImGui:imgui.obj
 0001:000728d0       ?_Unchecked_end@?$vector@V?$shared_ptr@USinkWrapper@internal@g3@@@std@@V?$allocator@V?$shared_ptr@USinkWrapper@internal@g3@@@std@@@2@@std@@QEAAPEAV?$shared_ptr@USinkWrapper@internal@g3@@@2@XZ 00000001800738d0 f i g3log:logworker.obj
 0001:000728d0       ?begin@?$ImVector@I@@QEBAPEBIXZ 00000001800738d0 f i ImGui:imgui_draw.obj
 0001:000728d0       ?begin@?$ImVector@UImDrawCmd@@@@QEBAPEBUImDrawCmd@@XZ 00000001800738d0 f i ImGui:imgui.obj
 0001:000728d0       ?end@?$initializer_list@U?$pair@$$CBKV?$basic_string@DU?$char_traits@D@std@@V?$allocator@D@2@@std@@@std@@@std@@QEBAPEBU?$pair@$$CBKV?$basic_string@DU?$char_traits@D@std@@V?$allocator@D@2@@std@@@2@XZ 00000001800738d0 f i g3log:stacktrace_windows.obj
 0001:000728e0       ?begin@ImGuiTextBuffer@@QEBAPEBDXZ 00000001800738e0 f i ImGui:imgui.obj
 0001:00072920       ?c_str@ImGuiTextBuffer@@QEBAPEBDXZ 0000000180073920 f i ImGui:imgui.obj
 0001:00072960       ?chunk_size@?$ImChunkStream@UImGuiTableSettings@@@@QEAAHPEBUImGuiTableSettings@@@Z 0000000180073960 f i ImGui:imgui.obj
 0001:00072960       ?chunk_size@?$ImChunkStream@UImGuiWindowSettings@@@@QEAAHPEBUImGuiWindowSettings@@@Z 0000000180073960 f i ImGui:imgui.obj
 0001:00072980       ?clear@?$ImVector@D@@QEAAXXZ 0000000180073980 f i ImGui:imgui.obj
 0001:00072980       ?clear@?$ImVector@E@@QEAAXXZ 0000000180073980 f i ImGui:imgui.obj
 0001:00072980       ?clear@?$ImVector@G@@QEAAXXZ 0000000180073980 f i ImGui:imgui.obj
 0001:00072980       ?clear@?$ImVector@H@@QEAAXXZ 0000000180073980 f i ImGui:imgui.obj
 0001:00072980       ?clear@?$ImVector@I@@QEAAXXZ 0000000180073980 f i ImGui:imgui.obj
 0001:00072980       ?clear@?$ImVector@M@@QEAAXXZ 0000000180073980 f i ImGui:imgui.obj
 0001:00072980       ?clear@?$ImVector@PEAUImFont@@@@QEAAXXZ 0000000180073980 f i ImGui:imgui.obj
 0001:00072980       ?clear@?$ImVector@PEAUImGuiViewportP@@@@QEAAXXZ 0000000180073980 f i ImGui:imgui.obj
 0001:00072980       ?clear@?$ImVector@PEAUImGuiWindow@@@@QEAAXXZ 0000000180073980 f i ImGui:imgui.obj
 0001:00072980       ?clear@?$ImVector@PEAX@@QEAAXXZ 0000000180073980 f i ImGui:imgui_draw.obj
 0001:00072980       ?clear@?$ImVector@UImDrawChannel@@@@QEAAXXZ 0000000180073980 f i ImGui:imgui.obj
 0001:00072980       ?clear@?$ImVector@UImDrawCmd@@@@QEAAXXZ 0000000180073980 f i ImGui:imgui_draw.obj
 0001:00072980       ?clear@?$ImVector@UImDrawVert@@@@QEAAXXZ 0000000180073980 f i ImGui:imgui_draw.obj
 0001:00072980       ?clear@?$ImVector@UImFontAtlasCustomRect@@@@QEAAXXZ 0000000180073980 f i ImGui:imgui_draw.obj
 0001:00072980       ?clear@?$ImVector@UImFontBuildDstData@@@@QEAAXXZ 0000000180073980 f i ImGui:imgui_draw.obj
 0001:00072980       ?clear@?$ImVector@UImFontBuildSrcData@@@@QEAAXXZ 0000000180073980 f i ImGui:imgui_draw.obj
 0001:00072980       ?clear@?$ImVector@UImFontConfig@@@@QEAAXXZ 0000000180073980 f i ImGui:imgui_draw.obj
 0001:00072980       ?clear@?$ImVector@UImFontGlyph@@@@QEAAXXZ 0000000180073980 f i ImGui:imgui_draw.obj
 0001:00072980       ?clear@?$ImVector@UImGuiColorMod@@@@QEAAXXZ 0000000180073980 f i ImGui:imgui.obj
 0001:00072980       ?clear@?$ImVector@UImGuiGroupData@@@@QEAAXXZ 0000000180073980 f i ImGui:imgui.obj
 0001:00072980       ?clear@?$ImVector@UImGuiListClipperData@@@@QEAAXXZ 0000000180073980 f i ImGui:imgui.obj
 0001:00072980       ?clear@?$ImVector@UImGuiOldColumns@@@@QEAAXXZ 0000000180073980 f i ImGui:imgui.obj
 0001:00072980       ?clear@?$ImVector@UImGuiPopupData@@@@QEAAXXZ 0000000180073980 f i ImGui:imgui.obj
 0001:00072980       ?clear@?$ImVector@UImGuiPtrOrIndex@@@@QEAAXXZ 0000000180073980 f i ImGui:imgui.obj
 0001:00072980       ?clear@?$ImVector@UImGuiSettingsHandler@@@@QEAAXXZ 0000000180073980 f i ImGui:imgui.obj
 0001:00072980       ?clear@?$ImVector@UImGuiShrinkWidthItem@@@@QEAAXXZ 0000000180073980 f i ImGui:imgui.obj
 0001:00072980       ?clear@?$ImVector@UImGuiStoragePair@ImGuiStorage@@@@QEAAXXZ 0000000180073980 f i ImGui:imgui.obj
 0001:00072980       ?clear@?$ImVector@UImGuiStyleMod@@@@QEAAXXZ 0000000180073980 f i ImGui:imgui.obj
 0001:00072980       ?clear@?$ImVector@UImGuiTabBar@@@@QEAAXXZ 0000000180073980 f i ImGui:imgui.obj
 0001:00072980       ?clear@?$ImVector@UImGuiTable@@@@QEAAXXZ 0000000180073980 f i ImGui:imgui.obj
 0001:00072980       ?clear@?$ImVector@UImGuiTableColumnSortSpecs@@@@QEAAXXZ 0000000180073980 f i ImGui:imgui_tables.obj
 0001:00072980       ?clear@?$ImVector@UImGuiTableTempData@@@@QEAAXXZ 0000000180073980 f i ImGui:imgui.obj
 0001:00072980       ?clear@?$ImVector@UImGuiWindowStackData@@@@QEAAXXZ 0000000180073980 f i ImGui:imgui.obj
 0001:00072980       ?clear@?$ImVector@UImVec2@@@@QEAAXXZ 0000000180073980 f i ImGui:imgui_draw.obj
 0001:00072980       ?clear@?$ImVector@UImVec4@@@@QEAAXXZ 0000000180073980 f i ImGui:imgui_draw.obj
 0001:00072980       ?clear@?$ImVector@Ustbrp_rect@@@@QEAAXXZ 0000000180073980 f i ImGui:imgui_draw.obj
 0001:000729d0       ?clear_delete@?$ImVector@PEAUImGuiViewportP@@@@QEAAXXZ 00000001800739d0 f i ImGui:imgui.obj
 0001:00072a30       ?clear_delete@?$ImVector@PEAUImGuiWindow@@@@QEAAXXZ 0000000180073a30 f i ImGui:imgui.obj
 0001:00072a90       ?clear_destruct@?$ImVector@UImGuiListClipperData@@@@QEAAXXZ 0000000180073a90 f i ImGui:imgui.obj
 0001:00072af0       ?clear_destruct@?$ImVector@UImGuiOldColumns@@@@QEAAXXZ 0000000180073af0 f i ImGui:imgui.obj
 0001:00072b60       ?clear_destruct@?$ImVector@UImGuiTableTempData@@@@QEAAXXZ 0000000180073b60 f i ImGui:imgui.obj
 0001:00072bc0       ?empty@?$ImVector@G@@QEBA_NXZ 0000000180073bc0 f i ImGui:imgui_draw.obj
 0001:00072bc0       ?empty@?$ImVector@I@@QEBA_NXZ 0000000180073bc0 f i ImGui:imgui_draw.obj
 0001:00072bc0       ?empty@?$ImVector@PEAUImDrawList@@@@QEBA_NXZ 0000000180073bc0 f i ImGui:imgui.obj
 0001:00072bc0       ?empty@?$ImVector@PEAUImFont@@@@QEBA_NXZ 0000000180073bc0 f i ImGui:imgui.obj
 0001:00072bc0       ?empty@?$ImVector@UImGuiPtrOrIndex@@@@QEBA_NXZ 0000000180073bc0 f i ImGui:imgui_widgets.obj
 0001:00072bc0       ?empty@?$ImVector@UImGuiTextRange@ImGuiTextFilter@@@@QEBA_NXZ 0000000180073bc0 f i ImGui:imgui.obj
 0001:00072bc0       ?empty@?$ImVector@UImGuiWindowStackData@@@@QEBA_NXZ 0000000180073bc0 f i ImGui:imgui.obj
 0001:00072bf0       ?empty@ImGuiTextBuffer@@QEBA_NXZ 0000000180073bf0 f i ImGui:imgui.obj
 0001:00072c20       ?empty@ImGuiTextRange@ImGuiTextFilter@@QEBA_NXZ 0000000180073c20 f i ImGui:imgui.obj
 0001:00072c60       ?end@?$ImChunkStream@UImGuiTableSettings@@@@QEAAPEAUImGuiTableSettings@@XZ 0000000180073c60 f i ImGui:imgui.obj
 0001:00072c60       ?end@?$ImChunkStream@UImGuiWindowSettings@@@@QEAAPEAUImGuiWindowSettings@@XZ 0000000180073c60 f i ImGui:imgui.obj
 0001:00072c80       ?end@?$ImVector@UImGuiStoragePair@ImGuiStorage@@@@QEAAPEAUImGuiStoragePair@ImGuiStorage@@XZ 0000000180073c80 f i ImGui:imgui.obj
 0001:00072c80       ?end@?$ImVector@UImGuiStoragePair@ImGuiStorage@@@@QEBAPEBUImGuiStoragePair@ImGuiStorage@@XZ 0000000180073c80 f i ImGui:imgui.obj
 0001:00072ca0       ?end@ImGuiTextBuffer@@QEBAPEBDXZ 0000000180073ca0 f i ImGui:imgui.obj
 0001:00072ce0       ?erase@?$ImVector@PEAUImGuiWindow@@@@QEAAPEAPEAUImGuiWindow@@PEBQEAU2@@Z 0000000180073ce0 f i ImGui:imgui.obj
 0001:00072d90       ?erase@?$ImVector@UImGuiContextHook@@@@QEAAPEAUImGuiContextHook@@PEBU2@@Z 0000000180073d90 f i ImGui:imgui.obj
 0001:00072e30       ?erase@?$ImVector@UImGuiInputEvent@@@@QEAAPEAUImGuiInputEvent@@PEBU2@0@Z 0000000180073e30 f i ImGui:imgui.obj
 0001:00072f10       ?erase@?$ImVector@UImGuiListClipperRange@@@@QEAAPEAUImGuiListClipperRange@@PEBU2@@Z 0000000180073f10 f i ImGui:imgui.obj
 0001:00072fc0       ?erase@?$ImVector@UImGuiSettingsHandler@@@@QEAAPEAUImGuiSettingsHandler@@PEBU2@@Z 0000000180073fc0 f i ImGui:imgui.obj
 0001:00073070       ?find@?$ImVector@PEAUImGuiWindow@@@@QEAAPEAPEAUImGuiWindow@@AEBQEAU2@@Z 0000000180074070 f i ImGui:imgui.obj
 0001:000730e0       ?front@?$ImVector@D@@QEBAAEBDXZ 00000001800740e0 f i ImGui:imgui.obj
 0001:00073100       ?index_from_ptr@?$ImVector@PEAUImGuiWindow@@@@QEBAHPEBQEAUImGuiWindow@@@Z 0000000180074100 f i ImGui:imgui.obj
 0001:00073140       ?insert@?$ImVector@PEAUImGuiWindow@@@@QEAAPEAPEAUImGuiWindow@@PEBQEAU2@AEBQEAU2@@Z 0000000180074140 f i ImGui:imgui.obj
 0001:00073250       ?insert@?$ImVector@UImDrawCmd@@@@QEAAPEAUImDrawCmd@@PEBU2@AEBU2@@Z 0000000180074250 f i ImGui:imgui.obj
 0001:00073360       ?insert@?$ImVector@UImGuiListClipperRange@@@@QEAAPEAUImGuiListClipperRange@@PEBU2@AEBU2@@Z 0000000180074360 f i ImGui:imgui.obj
 0001:00073470       ?insert@?$ImVector@UImGuiStoragePair@ImGuiStorage@@@@QEAAPEAUImGuiStoragePair@ImGuiStorage@@PEBU23@AEBU23@@Z 0000000180074470 f i ImGui:imgui.obj
 0001:00073580       ?next_chunk@?$ImChunkStream@UImGuiTableSettings@@@@QEAAPEAUImGuiTableSettings@@PEAU2@@Z 0000000180074580 f i ImGui:imgui.obj
 0001:00073580       ?next_chunk@?$ImChunkStream@UImGuiWindowSettings@@@@QEAAPEAUImGuiWindowSettings@@PEAU2@@Z 0000000180074580 f i ImGui:imgui.obj
 0001:000735e0       ?offset_from_ptr@?$ImChunkStream@UImGuiTableSettings@@@@QEAAHPEBUImGuiTableSettings@@@Z 00000001800745e0 f i ImGui:imgui_tables.obj
 0001:000735e0       ?offset_from_ptr@?$ImChunkStream@UImGuiWindowSettings@@@@QEAAHPEBUImGuiWindowSettings@@@Z 00000001800745e0 f i ImGui:imgui.obj
 0001:00073610       ?pop_back@?$ImVector@H@@QEAAXXZ 0000000180074610 f i ImGui:imgui.obj
 0001:00073610       ?pop_back@?$ImVector@I@@QEAAXXZ 0000000180074610 f i ImGui:imgui.obj
 0001:00073610       ?pop_back@?$ImVector@M@@QEAAXXZ 0000000180074610 f i ImGui:imgui.obj
 0001:00073610       ?pop_back@?$ImVector@PEAUImFont@@@@QEAAXXZ 0000000180074610 f i ImGui:imgui.obj
 0001:00073610       ?pop_back@?$ImVector@PEAX@@QEAAXXZ 0000000180074610 f i ImGui:imgui_draw.obj
 0001:00073610       ?pop_back@?$ImVector@UImDrawCmd@@@@QEAAXXZ 0000000180074610 f i ImGui:imgui.obj
 0001:00073610       ?pop_back@?$ImVector@UImGuiColorMod@@@@QEAAXXZ 0000000180074610 f i ImGui:imgui.obj
 0001:00073610       ?pop_back@?$ImVector@UImGuiGroupData@@@@QEAAXXZ 0000000180074610 f i ImGui:imgui.obj
 0001:00073610       ?pop_back@?$ImVector@UImGuiPopupData@@@@QEAAXXZ 0000000180074610 f i ImGui:imgui.obj
 0001:00073610       ?pop_back@?$ImVector@UImGuiPtrOrIndex@@@@QEAAXXZ 0000000180074610 f i ImGui:imgui_widgets.obj
 0001:00073610       ?pop_back@?$ImVector@UImGuiStyleMod@@@@QEAAXXZ 0000000180074610 f i ImGui:imgui.obj
 0001:00073610       ?pop_back@?$ImVector@UImGuiWindowStackData@@@@QEAAXXZ 0000000180074610 f i ImGui:imgui.obj
 0001:00073610       ?pop_back@?$ImVector@UImVec4@@@@QEAAXXZ 0000000180074610 f i ImGui:imgui_draw.obj
 0001:00073630       ?ptr_from_offset@?$ImChunkStream@UImGuiTableSettings@@@@QEAAPEAUImGuiTableSettings@@H@Z 0000000180074630 f i ImGui:imgui_tables.obj
 0001:00073630       ?ptr_from_offset@?$ImChunkStream@UImGuiWindowSettings@@@@QEAAPEAUImGuiWindowSettings@@H@Z 0000000180074630 f i ImGui:imgui.obj
 0001:00073650       ?push_back@?$ImVector@D@@QEAAXAEBD@Z 0000000180074650 f i ImGui:imgui.obj
 0001:000736d0       ?push_back@?$ImVector@G@@QEAAXAEBG@Z 00000001800746d0 f i ImGui:imgui.obj
 0001:00073750       ?push_back@?$ImVector@H@@QEAAXAEBH@Z 0000000180074750 f i ImGui:imgui.obj
 0001:00073750       ?push_back@?$ImVector@I@@QEAAXAEBI@Z 0000000180074750 f i ImGui:imgui.obj
 0001:00073750       ?push_back@?$ImVector@M@@QEAAXAEBM@Z 0000000180074750 f i ImGui:imgui.obj
 0001:000737d0       ?push_back@?$ImVector@PEAUImDrawList@@@@QEAAXAEBQEAUImDrawList@@@Z 00000001800747d0 f i ImGui:imgui.obj
 0001:000737d0       ?push_back@?$ImVector@PEAUImFont@@@@QEAAXAEBQEAUImFont@@@Z 00000001800747d0 f i ImGui:imgui.obj
 0001:000737d0       ?push_back@?$ImVector@PEAUImGuiViewportP@@@@QEAAXAEBQEAUImGuiViewportP@@@Z 00000001800747d0 f i ImGui:imgui.obj
 0001:000737d0       ?push_back@?$ImVector@PEAUImGuiWindow@@@@QEAAXAEBQEAUImGuiWindow@@@Z 00000001800747d0 f i ImGui:imgui.obj
 0001:000737d0       ?push_back@?$ImVector@PEAX@@QEAAXAEBQEAX@Z 00000001800747d0 f i ImGui:imgui_draw.obj
 0001:000737d0       ?push_back@?$ImVector@UImGuiTableInstanceData@@@@QEAAXAEBUImGuiTableInstanceData@@@Z 00000001800747d0 f i ImGui:imgui_tables.obj
 0001:000737d0       ?push_back@?$ImVector@UImVec2@@@@QEAAXAEBUImVec2@@@Z 00000001800747d0 f i ImGui:imgui.obj
 0001:00073850       ?push_back@?$ImVector@UImDrawCmd@@@@QEAAXAEBUImDrawCmd@@@Z 0000000180074850 f i ImGui:imgui.obj
 0001:00073850       ?push_back@?$ImVector@UImGuiPopupData@@@@QEAAXAEBUImGuiPopupData@@@Z 0000000180074850 f i ImGui:imgui.obj
 0001:000738d0       ?push_back@?$ImVector@UImGuiColorMod@@@@QEAAXAEBUImGuiColorMod@@@Z 00000001800748d0 f i ImGui:imgui.obj
 0001:00073950       ?push_back@?$ImVector@UImFontAtlasCustomRect@@@@QEAAXAEBUImFontAtlasCustomRect@@@Z 0000000180074950 f i ImGui:imgui_draw.obj
 0001:00073950       ?push_back@?$ImVector@UImGuiContextHook@@@@QEAAXAEBUImGuiContextHook@@@Z 0000000180074950 f i ImGui:imgui.obj
 0001:000739d0       ?push_back@?$ImVector@UImGuiInputEvent@@@@QEAAXAEBUImGuiInputEvent@@@Z 00000001800749d0 f i ImGui:imgui.obj
 0001:00073a50       ?push_back@?$ImVector@UImGuiListClipperRange@@@@QEAAXAEBUImGuiListClipperRange@@@Z 0000000180074a50 f i ImGui:imgui.obj
 0001:00073a50       ?push_back@?$ImVector@UImGuiStyleMod@@@@QEAAXAEBUImGuiStyleMod@@@Z 0000000180074a50 f i ImGui:imgui.obj
 0001:00073ad0       ?push_back@?$ImVector@UImGuiSettingsHandler@@@@QEAAXAEBUImGuiSettingsHandler@@@Z 0000000180074ad0 f i ImGui:imgui.obj
 0001:00073b50       ?push_back@?$ImVector@UImGuiPtrOrIndex@@@@QEAAXAEBUImGuiPtrOrIndex@@@Z 0000000180074b50 f i ImGui:imgui_widgets.obj
 0001:00073b50       ?push_back@?$ImVector@UImGuiTextRange@ImGuiTextFilter@@@@QEAAXAEBUImGuiTextRange@ImGuiTextFilter@@@Z 0000000180074b50 f i ImGui:imgui.obj
 0001:00073b50       ?push_back@?$ImVector@UImVec4@@@@QEAAXAEBUImVec4@@@Z 0000000180074b50 f i ImGui:imgui_draw.obj
 0001:00073bd0       ?push_back@?$ImVector@UImGuiWindowStackData@@@@QEAAXAEBUImGuiWindowStackData@@@Z 0000000180074bd0 f i ImGui:imgui.obj
 0001:00073c50       ?push_front@?$ImVector@PEAUImGuiWindow@@@@QEAAXAEBQEAUImGuiWindow@@@Z 0000000180074c50 f i ImGui:imgui.obj
 0001:00073ca0       ?push_front@?$ImVector@UImDrawCmd@@@@QEAAXAEBUImDrawCmd@@@Z 0000000180074ca0 f i ImGui:imgui.obj
 0001:00073cf0       ?push_front@?$ImVector@UImGuiListClipperRange@@@@QEAAXAEBUImGuiListClipperRange@@@Z 0000000180074cf0 f i ImGui:imgui.obj
 0001:00073d40       ?reserve@?$ImVector@D@@QEAAXH@Z 0000000180074d40 f i ImGui:imgui.obj
 0001:00073d40       ?reserve@?$ImVector@E@@QEAAXH@Z 0000000180074d40 f i ImGui:imgui.obj
 0001:00073dd0       ?reserve@?$ImVector@G@@QEAAXH@Z 0000000180074dd0 f i ImGui:imgui.obj
 0001:00073e60       ?reserve@?$ImVector@H@@QEAAXH@Z 0000000180074e60 f i ImGui:imgui.obj
 0001:00073e60       ?reserve@?$ImVector@I@@QEAAXH@Z 0000000180074e60 f i ImGui:imgui.obj
 0001:00073e60       ?reserve@?$ImVector@M@@QEAAXH@Z 0000000180074e60 f i ImGui:imgui.obj
 0001:00073ef0       ?reserve@?$ImVector@PEAUImDrawList@@@@QEAAXH@Z 0000000180074ef0 f i ImGui:imgui.obj
 0001:00073ef0       ?reserve@?$ImVector@PEAUImFont@@@@QEAAXH@Z 0000000180074ef0 f i ImGui:imgui.obj
 0001:00073ef0       ?reserve@?$ImVector@PEAUImGuiViewportP@@@@QEAAXH@Z 0000000180074ef0 f i ImGui:imgui.obj
 0001:00073ef0       ?reserve@?$ImVector@PEAUImGuiWindow@@@@QEAAXH@Z 0000000180074ef0 f i ImGui:imgui.obj
 0001:00073ef0       ?reserve@?$ImVector@PEAX@@QEAAXH@Z 0000000180074ef0 f i ImGui:imgui_draw.obj
 0001:00073ef0       ?reserve@?$ImVector@UImGuiTableInstanceData@@@@QEAAXH@Z 0000000180074ef0 f i ImGui:imgui_tables.obj
 0001:00073ef0       ?reserve@?$ImVector@UImVec2@@@@QEAAXH@Z 0000000180074ef0 f i ImGui:imgui.obj
 0001:00073f80       ?reserve@?$ImVector@UImDrawCmd@@@@QEAAXH@Z 0000000180074f80 f i ImGui:imgui.obj
 0001:00073f80       ?reserve@?$ImVector@UImGuiPopupData@@@@QEAAXH@Z 0000000180074f80 f i ImGui:imgui.obj
 0001:00074010       ?reserve@?$ImVector@UImDrawVert@@@@QEAAXH@Z 0000000180075010 f i ImGui:imgui.obj
 0001:00074010       ?reserve@?$ImVector@UImGuiColorMod@@@@QEAAXH@Z 0000000180075010 f i ImGui:imgui.obj
 0001:000740a0       ?reserve@?$ImVector@UImDrawChannel@@@@QEAAXH@Z 00000001800750a0 f i ImGui:imgui_draw.obj
 0001:000740a0       ?reserve@?$ImVector@UImFontAtlasCustomRect@@@@QEAAXH@Z 00000001800750a0 f i ImGui:imgui_draw.obj
 0001:000740a0       ?reserve@?$ImVector@UImFontBuildDstData@@@@QEAAXH@Z 00000001800750a0 f i ImGui:imgui_draw.obj
 0001:000740a0       ?reserve@?$ImVector@UImGuiContextHook@@@@QEAAXH@Z 00000001800750a0 f i ImGui:imgui.obj
 0001:00074130       ?reserve@?$ImVector@UImGuiGroupData@@@@QEAAXH@Z 0000000180075130 f i ImGui:imgui.obj
 0001:000741c0       ?reserve@?$ImVector@UImGuiInputEvent@@@@QEAAXH@Z 00000001800751c0 f i ImGui:imgui.obj
 0001:000741c0       ?reserve@?$ImVector@Ustbrp_rect@@@@QEAAXH@Z 00000001800751c0 f i ImGui:imgui_draw.obj
 0001:00074250       ?reserve@?$ImVector@UImFontGlyph@@@@QEAAXH@Z 0000000180075250 f i ImGui:imgui_draw.obj
 0001:00074250       ?reserve@?$ImVector@UImGuiListClipperData@@@@QEAAXH@Z 0000000180075250 f i ImGui:imgui.obj
 0001:000742e0       ?reserve@?$ImVector@UImGuiListClipperRange@@@@QEAAXH@Z 00000001800752e0 f i ImGui:imgui.obj
 0001:000742e0       ?reserve@?$ImVector@UImGuiShrinkWidthItem@@@@QEAAXH@Z 00000001800752e0 f i ImGui:imgui_widgets.obj
 0001:000742e0       ?reserve@?$ImVector@UImGuiStyleMod@@@@QEAAXH@Z 00000001800752e0 f i ImGui:imgui.obj
 0001:000742e0       ?reserve@?$ImVector@UImGuiTableColumnSortSpecs@@@@QEAAXH@Z 00000001800752e0 f i ImGui:imgui_tables.obj
 0001:00074370       ?reserve@?$ImVector@UImGuiSettingsHandler@@@@QEAAXH@Z 0000000180075370 f i ImGui:imgui.obj
 0001:00074370       ?reserve@?$ImVector@UImGuiStackLevelInfo@@@@QEAAXH@Z 0000000180075370 f i ImGui:imgui.obj
 0001:00074400       ?reserve@?$ImVector@UImGuiPtrOrIndex@@@@QEAAXH@Z 0000000180075400 f i ImGui:imgui_widgets.obj
 0001:00074400       ?reserve@?$ImVector@UImGuiStoragePair@ImGuiStorage@@@@QEAAXH@Z 0000000180075400 f i ImGui:imgui.obj
 0001:00074400       ?reserve@?$ImVector@UImGuiTextRange@ImGuiTextFilter@@@@QEAAXH@Z 0000000180075400 f i ImGui:imgui.obj
 0001:00074400       ?reserve@?$ImVector@UImVec4@@@@QEAAXH@Z 0000000180075400 f i ImGui:imgui_draw.obj
 0001:00074490       ?reserve@?$ImVector@UImGuiWindowStackData@@@@QEAAXH@Z 0000000180075490 f i ImGui:imgui.obj
 0001:00074520       ?reserve@ImGuiTextBuffer@@QEAAXH@Z 0000000180075520 f i ImGui:imgui.obj
 0001:00074550       ?resize@?$ImVector@D@@QEAAXH@Z 0000000180075550 f i ImGui:imgui.obj
 0001:00074550       ?resize@?$ImVector@E@@QEAAXH@Z 0000000180075550 f i ImGui:imgui.obj
 0001:000745a0       ?resize@?$ImVector@D@@QEAAXHAEBD@Z 00000001800755a0 f i ImGui:imgui.obj
 0001:00074650       ?resize@?$ImVector@G@@QEAAXH@Z 0000000180075650 f i ImGui:imgui.obj
 0001:000746a0       ?resize@?$ImVector@H@@QEAAXH@Z 00000001800756a0 f i ImGui:imgui.obj
 0001:000746a0       ?resize@?$ImVector@I@@QEAAXH@Z 00000001800756a0 f i ImGui:imgui.obj
 0001:000746a0       ?resize@?$ImVector@M@@QEAAXH@Z 00000001800756a0 f i ImGui:imgui.obj
 0001:000746f0       ?resize@?$ImVector@PEAUImDrawList@@@@QEAAXH@Z 00000001800756f0 f i ImGui:imgui.obj
 0001:000746f0       ?resize@?$ImVector@PEAUImGuiWindow@@@@QEAAXH@Z 00000001800756f0 f i ImGui:imgui.obj
 0001:000746f0       ?resize@?$ImVector@PEAX@@QEAAXH@Z 00000001800756f0 f i ImGui:imgui_draw.obj
 0001:000746f0       ?resize@?$ImVector@UImVec2@@@@QEAAXH@Z 00000001800756f0 f i ImGui:imgui_draw.obj
 0001:00074740       ?resize@?$ImVector@UImGuiGroupData@@@@QEAAXH@Z 0000000180075740 f i ImGui:imgui.obj
 0001:00074790       ?resize@?$ImVector@UImGuiInputEvent@@@@QEAAXH@Z 0000000180075790 f i ImGui:imgui.obj
 0001:00074790       ?resize@?$ImVector@Ustbrp_rect@@@@QEAAXH@Z 0000000180075790 f i ImGui:imgui_draw.obj
 0001:000747e0       ?resize@?$ImVector@UImGuiListClipperData@@@@QEAAXHAEBUImGuiListClipperData@@@Z 00000001800757e0 f i ImGui:imgui.obj
 0001:00074880       ?resize@?$ImVector@UImGuiListClipperRange@@@@QEAAXH@Z 0000000180075880 f i ImGui:imgui.obj
 0001:00074880       ?resize@?$ImVector@UImGuiShrinkWidthItem@@@@QEAAXH@Z 0000000180075880 f i ImGui:imgui_widgets.obj
 0001:00074880       ?resize@?$ImVector@UImGuiTableColumnSortSpecs@@@@QEAAXH@Z 0000000180075880 f i ImGui:imgui_tables.obj
 0001:000748d0       ?resize@?$ImVector@UImDrawCmd@@@@QEAAXH@Z 00000001800758d0 f i ImGui:imgui_draw.obj
 0001:000748d0       ?resize@?$ImVector@UImGuiPopupData@@@@QEAAXH@Z 00000001800758d0 f i ImGui:imgui.obj
 0001:00074920       ?resize@?$ImVector@UImGuiStackLevelInfo@@@@QEAAXH@Z 0000000180075920 f i ImGui:imgui.obj
 0001:00074970       ?resize@?$ImVector@UImGuiStackLevelInfo@@@@QEAAXHAEBUImGuiStackLevelInfo@@@Z 0000000180075970 f i ImGui:imgui.obj
 0001:00074a10       ?resize@?$ImVector@UImGuiTextRange@ImGuiTextFilter@@@@QEAAXH@Z 0000000180075a10 f i ImGui:imgui.obj
 0001:00074a10       ?resize@?$ImVector@UImVec4@@@@QEAAXH@Z 0000000180075a10 f i ImGui:imgui_draw.obj
 0001:00074a60       ?resize@?$ImVector@UImGuiWindowStackData@@@@QEAAXH@Z 0000000180075a60 f i ImGui:imgui.obj
 0001:00074ab0       ?size@?$ImChunkStream@UImGuiTableSettings@@@@QEBAHXZ 0000000180075ab0 f i ImGui:imgui.obj
 0001:00074ab0       ?size@?$ImChunkStream@UImGuiWindowSettings@@@@QEBAHXZ 0000000180075ab0 f i ImGui:imgui.obj
 0001:00074ac0       ?size@ImGuiTextBuffer@@QEBAHXZ 0000000180075ac0 f i ImGui:imgui.obj
 0001:00074af0       ?size_in_bytes@?$ImVector@UImGuiStoragePair@ImGuiStorage@@@@QEBAHXZ 0000000180075af0 f i ImGui:imgui.obj
 0001:00074b00       ?swap@?$ImVector@D@@QEAAXAEAU1@@Z 0000000180075b00 f i ImGui:imgui_tables.obj
 0001:00074b00       ?swap@?$ImVector@PEAUImGuiWindow@@@@QEAAXAEAU1@@Z 0000000180075b00 f i ImGui:imgui.obj
 0001:00074b00       ?swap@?$ImVector@UImDrawVert@@@@QEAAXAEAU1@@Z 0000000180075b00 f i ImGui:imgui_draw.obj
 0001:00074b90       __local_stdio_scanf_options 0000000180075b90 f i ImGui:imgui.obj
 0001:00074ba0       _vfprintf_l                0000000180075ba0 f i ImGui:imgui.obj
 0001:00074bf0       _vsnprintf                 0000000180075bf0 f i ImGui:imgui.obj
 0001:00074c30       _vsnprintf_l               0000000180075c30 f i ImGui:imgui.obj
 0001:00074cb0       _vsscanf_l                 0000000180075cb0 f i ImGui:imgui.obj
 0001:00074d00       fabsf                      0000000180075d00 f i ImGui:imgui.obj
 0001:00074d20       printf                     0000000180075d20 f i ImGui:imgui.obj
 0001:00074d90       sscanf                     0000000180075d90 f i ImGui:imgui.obj
 0001:00074de0       ?Separator@ImGui@@YAXXZ    0000000180075de0 f   ImGui:imgui_widgets.obj
 0001:00074e60       ?NewLine@ImGui@@YAXXZ      0000000180075e60 f   ImGui:imgui_widgets.obj
 0001:00074f40       ?Spacing@ImGui@@YAXXZ      0000000180075f40 f   ImGui:imgui_widgets.obj
 0001:00074f90       ?Dummy@ImGui@@YAXAEBUImVec2@@@Z 0000000180075f90 f   ImGui:imgui_widgets.obj
 0001:00075020       ?AlignTextToFramePadding@ImGui@@YAXXZ 0000000180076020 f   ImGui:imgui_widgets.obj
 0001:000750d0       ?TextUnformatted@ImGui@@YAXPEBD0@Z 00000001800760d0 f   ImGui:imgui_widgets.obj
 0001:00075100       ?Text@ImGui@@YAXPEBDZZ     0000000180076100 f   ImGui:imgui_widgets.obj
 0001:00075150       ?TextV@ImGui@@YAXPEBDPEAD@Z 0000000180076150 f   ImGui:imgui_widgets.obj
 0001:000751c0       ?TextColored@ImGui@@YAXAEBUImVec4@@PEBDZZ 00000001800761c0 f   ImGui:imgui_widgets.obj
 0001:00075210       ?TextColoredV@ImGui@@YAXAEBUImVec4@@PEBDPEAD@Z 0000000180076210 f   ImGui:imgui_widgets.obj
 0001:00075300       ?TextDisabled@ImGui@@YAXPEBDZZ 0000000180076300 f   ImGui:imgui_widgets.obj
 0001:00075350       ?TextDisabledV@ImGui@@YAXPEBDPEAD@Z 0000000180076350 f   ImGui:imgui_widgets.obj
 0001:00075450       ?TextWrapped@ImGui@@YAXPEBDZZ 0000000180076450 f   ImGui:imgui_widgets.obj
 0001:000754a0       ?TextWrappedV@ImGui@@YAXPEBDPEAD@Z 00000001800764a0 f   ImGui:imgui_widgets.obj
 0001:000755d0       ?LabelText@ImGui@@YAXPEBD0ZZ 00000001800765d0 f   ImGui:imgui_widgets.obj
 0001:00075620       ?LabelTextV@ImGui@@YAXPEBD0PEAD@Z 0000000180076620 f   ImGui:imgui_widgets.obj
 0001:00075960       ?BulletText@ImGui@@YAXPEBDZZ 0000000180076960 f   ImGui:imgui_widgets.obj
 0001:000759b0       ?BulletTextV@ImGui@@YAXPEBDPEAD@Z 00000001800769b0 f   ImGui:imgui_widgets.obj
 0001:00075ca0       ?Button@ImGui@@YA_NPEBDAEBUImVec2@@@Z 0000000180076ca0 f   ImGui:imgui_widgets.obj
 0001:00075cd0       ?SmallButton@ImGui@@YA_NPEBD@Z 0000000180076cd0 f   ImGui:imgui_widgets.obj
 0001:00075d60       ?InvisibleButton@ImGui@@YA_NPEBDAEBUImVec2@@H@Z 0000000180076d60 f   ImGui:imgui_widgets.obj
 0001:00075e80       ?ArrowButton@ImGui@@YA_NPEBDH@Z 0000000180076e80 f   ImGui:imgui_widgets.obj
 0001:00075ed0       ?Checkbox@ImGui@@YA_NPEBDPEA_N@Z 0000000180076ed0 f   ImGui:imgui_widgets.obj
 0001:00076500       ?CheckboxFlags@ImGui@@YA_NPEBDPEAHH@Z 0000000180077500 f   ImGui:imgui_widgets.obj
 0001:00076540       ?CheckboxFlags@ImGui@@YA_NPEBDPEAII@Z 0000000180077540 f   ImGui:imgui_widgets.obj
 0001:00076580       ?RadioButton@ImGui@@YA_NPEBD_N@Z 0000000180077580 f   ImGui:imgui_widgets.obj
 0001:00076b40       ?RadioButton@ImGui@@YA_NPEBDPEAHH@Z 0000000180077b40 f   ImGui:imgui_widgets.obj
 0001:00076bb0       ?ProgressBar@ImGui@@YAXMAEBUImVec2@@PEBD@Z 0000000180077bb0 f   ImGui:imgui_widgets.obj
 0001:00076fe0       ?Bullet@ImGui@@YAXXZ       0000000180077fe0 f   ImGui:imgui_widgets.obj
 0001:00077200       ?Image@ImGui@@YAXPEAXAEBUImVec2@@11AEBUImVec4@@2@Z 0000000180078200 f   ImGui:imgui_widgets.obj
 0001:000774b0       ?ImageButton@ImGui@@YA_NPEBDPEAXAEBUImVec2@@22AEBUImVec4@@3@Z 00000001800784b0 f   ImGui:imgui_widgets.obj
 0001:00077560       ?BeginCombo@ImGui@@YA_NPEBD0H@Z 0000000180078560 f   ImGui:imgui_widgets.obj
 0001:00077d20       ?EndCombo@ImGui@@YAXXZ     0000000180078d20 f   ImGui:imgui_widgets.obj
 0001:00077d40       ?Combo@ImGui@@YA_NPEBDPEAHQEBQEBDHH@Z 0000000180078d40 f   ImGui:imgui_widgets.obj
 0001:00077da0       ?Combo@ImGui@@YA_NPEBDPEAH0H@Z 0000000180078da0 f   ImGui:imgui_widgets.obj
 0001:00077e40       ?Combo@ImGui@@YA_NPEBDPEAHP6A_NPEAXHPEAPEBD@Z2HH@Z 0000000180078e40 f   ImGui:imgui_widgets.obj
 0001:00078080       ?DragFloat@ImGui@@YA_NPEBDPEAMMMM0H@Z 0000000180079080 f   ImGui:imgui_widgets.obj
 0001:000780f0       ?DragFloat2@ImGui@@YA_NPEBDQEAMMMM0H@Z 00000001800790f0 f   ImGui:imgui_widgets.obj
 0001:00078170       ?DragFloat3@ImGui@@YA_NPEBDQEAMMMM0H@Z 0000000180079170 f   ImGui:imgui_widgets.obj
 0001:000781f0       ?DragFloat4@ImGui@@YA_NPEBDQEAMMMM0H@Z 00000001800791f0 f   ImGui:imgui_widgets.obj
 0001:00078270       ?DragFloatRange2@ImGui@@YA_NPEBDPEAM1MMM00H@Z 0000000180079270 f   ImGui:imgui_widgets.obj
 0001:000785e0       ?DragInt@ImGui@@YA_NPEBDPEAHMHH0H@Z 00000001800795e0 f   ImGui:imgui_widgets.obj
 0001:00078650       ?DragInt2@ImGui@@YA_NPEBDQEAHMHH0H@Z 0000000180079650 f   ImGui:imgui_widgets.obj
 0001:000786d0       ?DragInt3@ImGui@@YA_NPEBDQEAHMHH0H@Z 00000001800796d0 f   ImGui:imgui_widgets.obj
 0001:00078750       ?DragInt4@ImGui@@YA_NPEBDQEAHMHH0H@Z 0000000180079750 f   ImGui:imgui_widgets.obj
 0001:000787d0       ?DragIntRange2@ImGui@@YA_NPEBDPEAH1MHH00H@Z 00000001800797d0 f   ImGui:imgui_widgets.obj
 0001:00078ad0       ?DragScalar@ImGui@@YA_NPEBDHPEAXMPEBX20H@Z 0000000180079ad0 f   ImGui:imgui_widgets.obj
 0001:00079360       ?DragScalarN@ImGui@@YA_NPEBDHPEAXHMPEBX20H@Z 000000018007a360 f   ImGui:imgui_widgets.obj
 0001:00079540       ?SliderFloat@ImGui@@YA_NPEBDPEAMMM0H@Z 000000018007a540 f   ImGui:imgui_widgets.obj
 0001:000795a0       ?SliderFloat2@ImGui@@YA_NPEBDQEAMMM0H@Z 000000018007a5a0 f   ImGui:imgui_widgets.obj
 0001:00079610       ?SliderFloat3@ImGui@@YA_NPEBDQEAMMM0H@Z 000000018007a610 f   ImGui:imgui_widgets.obj
 0001:00079680       ?SliderFloat4@ImGui@@YA_NPEBDQEAMMM0H@Z 000000018007a680 f   ImGui:imgui_widgets.obj
 0001:000796f0       ?SliderAngle@ImGui@@YA_NPEBDPEAMMM0H@Z 000000018007a6f0 f   ImGui:imgui_widgets.obj
 0001:000797a0       ?SliderInt@ImGui@@YA_NPEBDPEAHHH0H@Z 000000018007a7a0 f   ImGui:imgui_widgets.obj
 0001:00079800       ?SliderInt2@ImGui@@YA_NPEBDQEAHHH0H@Z 000000018007a800 f   ImGui:imgui_widgets.obj
 0001:00079870       ?SliderInt3@ImGui@@YA_NPEBDQEAHHH0H@Z 000000018007a870 f   ImGui:imgui_widgets.obj
 0001:000798e0       ?SliderInt4@ImGui@@YA_NPEBDQEAHHH0H@Z 000000018007a8e0 f   ImGui:imgui_widgets.obj
 0001:00079950       ?SliderScalar@ImGui@@YA_NPEBDHPEAXPEBX20H@Z 000000018007a950 f   ImGui:imgui_widgets.obj
 0001:0007a1b0       ?SliderScalarN@ImGui@@YA_NPEBDHPEAXHPEBX20H@Z 000000018007b1b0 f   ImGui:imgui_widgets.obj
 0001:0007a380       ?VSliderFloat@ImGui@@YA_NPEBDAEBUImVec2@@PEAMMM0H@Z 000000018007b380 f   ImGui:imgui_widgets.obj
 0001:0007a3f0       ?VSliderInt@ImGui@@YA_NPEBDAEBUImVec2@@PEAHHH0H@Z 000000018007b3f0 f   ImGui:imgui_widgets.obj
 0001:0007a460       ?VSliderScalar@ImGui@@YA_NPEBDAEBUImVec2@@HPEAXPEBX30H@Z 000000018007b460 f   ImGui:imgui_widgets.obj
 0001:0007aa40       ?InputText@ImGui@@YA_NPEBDPEAD_KHP6AHPEAUImGuiInputTextCallbackData@@@ZPEAX@Z 000000018007ba40 f   ImGui:imgui_widgets.obj
 0001:0007aac0       ?InputTextMultiline@ImGui@@YA_NPEBDPEAD_KAEBUImVec2@@HP6AHPEAUImGuiInputTextCallbackData@@@ZPEAX@Z 000000018007bac0 f   ImGui:imgui_widgets.obj
 0001:0007ab30       ?InputTextWithHint@ImGui@@YA_NPEBD0PEAD_KHP6AHPEAUImGuiInputTextCallbackData@@@ZPEAX@Z 000000018007bb30 f   ImGui:imgui_widgets.obj
 0001:0007abb0       ?InputFloat@ImGui@@YA_NPEBDPEAMMM0H@Z 000000018007bbb0 f   ImGui:imgui_widgets.obj
 0001:0007ac90       ?InputFloat2@ImGui@@YA_NPEBDQEAM0H@Z 000000018007bc90 f   ImGui:imgui_widgets.obj
 0001:0007ad00       ?InputFloat3@ImGui@@YA_NPEBDQEAM0H@Z 000000018007bd00 f   ImGui:imgui_widgets.obj
 0001:0007ad70       ?InputFloat4@ImGui@@YA_NPEBDQEAM0H@Z 000000018007bd70 f   ImGui:imgui_widgets.obj
 0001:0007ade0       ?InputInt@ImGui@@YA_NPEBDPEAHHHH@Z 000000018007bde0 f   ImGui:imgui_widgets.obj
 0001:0007aed0       ?InputInt2@ImGui@@YA_NPEBDQEAHH@Z 000000018007bed0 f   ImGui:imgui_widgets.obj
 0001:0007af30       ?InputInt3@ImGui@@YA_NPEBDQEAHH@Z 000000018007bf30 f   ImGui:imgui_widgets.obj
 0001:0007af90       ?InputInt4@ImGui@@YA_NPEBDQEAHH@Z 000000018007bf90 f   ImGui:imgui_widgets.obj
 0001:0007aff0       ?InputDouble@ImGui@@YA_NPEBDPEANNN0H@Z 000000018007bff0 f   ImGui:imgui_widgets.obj
 0001:0007b0d0       ?InputScalar@ImGui@@YA_NPEBDHPEAXPEBX20H@Z 000000018007c0d0 f   ImGui:imgui_widgets.obj
 0001:0007b570       ?InputScalarN@ImGui@@YA_NPEBDHPEAXHPEBX20H@Z 000000018007c570 f   ImGui:imgui_widgets.obj
 0001:0007b740       ?ColorEdit3@ImGui@@YA_NPEBDQEAMH@Z 000000018007c740 f   ImGui:imgui_widgets.obj
 0001:0007b780       ?ColorEdit4@ImGui@@YA_NPEBDQEAMH@Z 000000018007c780 f   ImGui:imgui_widgets.obj
 0001:0007cf60       ?ColorPicker3@ImGui@@YA_NPEBDQEAMH@Z 000000018007df60 f   ImGui:imgui_widgets.obj
 0001:0007d090       ?ColorPicker4@ImGui@@YA_NPEBDQEAMHPEBM@Z 000000018007e090 f   ImGui:imgui_widgets.obj
 0001:0007faa0       ?ColorButton@ImGui@@YA_NPEBDAEBUImVec4@@HAEBUImVec2@@@Z 0000000180080aa0 f   ImGui:imgui_widgets.obj
 0001:00080350       ?SetColorEditOptions@ImGui@@YAXH@Z 0000000180081350 f   ImGui:imgui_widgets.obj
 0001:000803e0       ?TreeNode@ImGui@@YA_NPEBD@Z 00000001800813e0 f   ImGui:imgui_widgets.obj
 0001:00080440       ?TreeNode@ImGui@@YA_NPEBD0ZZ 0000000180081440 f   ImGui:imgui_widgets.obj
 0001:000804a0       ?TreeNode@ImGui@@YA_NPEBXPEBDZZ 00000001800814a0 f   ImGui:imgui_widgets.obj
 0001:00080500       ?TreeNodeV@ImGui@@YA_NPEBD0PEAD@Z 0000000180081500 f   ImGui:imgui_widgets.obj
 0001:00080540       ?TreeNodeV@ImGui@@YA_NPEBXPEBDPEAD@Z 0000000180081540 f   ImGui:imgui_widgets.obj
 0001:00080580       ?TreeNodeEx@ImGui@@YA_NPEBDH@Z 0000000180081580 f   ImGui:imgui_widgets.obj
 0001:000805e0       ?TreeNodeEx@ImGui@@YA_NPEBDH0ZZ 00000001800815e0 f   ImGui:imgui_widgets.obj
 0001:00080640       ?TreeNodeEx@ImGui@@YA_NPEBXHPEBDZZ 0000000180081640 f   ImGui:imgui_widgets.obj
 0001:000806a0       ?TreeNodeExV@ImGui@@YA_NPEBDH0PEAD@Z 00000001800816a0 f   ImGui:imgui_widgets.obj
 0001:00080740       ?TreeNodeExV@ImGui@@YA_NPEBXHPEBDPEAD@Z 0000000180081740 f   ImGui:imgui_widgets.obj
 0001:000807e0       ?TreePush@ImGui@@YAXPEBD@Z 00000001800817e0 f   ImGui:imgui_widgets.obj
 0001:00080830       ?TreePush@ImGui@@YAXPEBX@Z 0000000180081830 f   ImGui:imgui_widgets.obj
 0001:00080880       ?TreePop@ImGui@@YAXXZ      0000000180081880 f   ImGui:imgui_widgets.obj
 0001:000809c0       ?GetTreeNodeToLabelSpacing@ImGui@@YAMXZ 00000001800819c0 f   ImGui:imgui_widgets.obj
 0001:00080a00       ?CollapsingHeader@ImGui@@YA_NPEBDH@Z 0000000180081a00 f   ImGui:imgui_widgets.obj
 0001:00080a70       ?CollapsingHeader@ImGui@@YA_NPEBDPEA_NH@Z 0000000180081a70 f   ImGui:imgui_widgets.obj
 0001:00080c50       ?SetNextItemOpen@ImGui@@YAX_NH@Z 0000000180081c50 f   ImGui:imgui_widgets.obj
 0001:00080ce0       ?Selectable@ImGui@@YA_NPEBD_NHAEBUImVec2@@@Z 0000000180081ce0 f   ImGui:imgui_widgets.obj
 0001:00081680       ?Selectable@ImGui@@YA_NPEBDPEA_NHAEBUImVec2@@@Z 0000000180082680 f   ImGui:imgui_widgets.obj
 0001:00081700       ?BeginListBox@ImGui@@YA_NPEBDAEBUImVec2@@@Z 0000000180082700 f   ImGui:imgui_widgets.obj
 0001:00081a50       ?EndListBox@ImGui@@YAXXZ   0000000180082a50 f   ImGui:imgui_widgets.obj
 0001:00081a90       ?ListBox@ImGui@@YA_NPEBDPEAHQEBQEBDHH@Z 0000000180082a90 f   ImGui:imgui_widgets.obj
 0001:00081af0       ?ListBox@ImGui@@YA_NPEBDPEAHP6A_NPEAXHPEAPEBD@Z2HH@Z 0000000180082af0 f   ImGui:imgui_widgets.obj
 0001:00081d30       ?PlotLines@ImGui@@YAXPEBDPEBMHH0MMUImVec2@@H@Z 0000000180082d30 f   ImGui:imgui_widgets.obj
 0001:00081dd0       ?PlotLines@ImGui@@YAXPEBDP6AMPEAXH@Z1HH0MMUImVec2@@@Z 0000000180082dd0 f   ImGui:imgui_widgets.obj
 0001:00081e60       ?PlotHistogram@ImGui@@YAXPEBDPEBMHH0MMUImVec2@@H@Z 0000000180082e60 f   ImGui:imgui_widgets.obj
 0001:00081f10       ?PlotHistogram@ImGui@@YAXPEBDP6AMPEAXH@Z1HH0MMUImVec2@@@Z 0000000180082f10 f   ImGui:imgui_widgets.obj
 0001:00081fa0       ?Value@ImGui@@YAXPEBD_N@Z  0000000180082fa0 f   ImGui:imgui_widgets.obj
 0001:00082000       ?Value@ImGui@@YAXPEBDH@Z   0000000180083000 f   ImGui:imgui_widgets.obj
 0001:00082030       ?Value@ImGui@@YAXPEBDI@Z   0000000180083030 f   ImGui:imgui_widgets.obj
 0001:00082060       ?Value@ImGui@@YAXPEBDM0@Z  0000000180083060 f   ImGui:imgui_widgets.obj
 0001:00082110       ?BeginMenuBar@ImGui@@YA_NXZ 0000000180083110 f   ImGui:imgui_widgets.obj
 0001:00082310       ?EndMenuBar@ImGui@@YAXXZ   0000000180083310 f   ImGui:imgui_widgets.obj
 0001:00082550       ?BeginMainMenuBar@ImGui@@YA_NXZ 0000000180083550 f   ImGui:imgui_widgets.obj
 0001:00082650       ?EndMainMenuBar@ImGui@@YAXXZ 0000000180083650 f   ImGui:imgui_widgets.obj
 0001:000826c0       ?BeginMenu@ImGui@@YA_NPEBD_N@Z 00000001800836c0 f   ImGui:imgui_widgets.obj
 0001:000826f0       ?EndMenu@ImGui@@YAXXZ      00000001800836f0 f   ImGui:imgui_widgets.obj
 0001:000827c0       ?MenuItem@ImGui@@YA_NPEBD0_N1@Z 00000001800837c0 f   ImGui:imgui_widgets.obj
 0001:00082810       ?MenuItem@ImGui@@YA_NPEBD0PEA_N_N@Z 0000000180083810 f   ImGui:imgui_widgets.obj
 0001:000828c0       ?BeginTabBar@ImGui@@YA_NPEBDH@Z 00000001800838c0 f   ImGui:imgui_widgets.obj
 0001:000829e0       ?EndTabBar@ImGui@@YAXXZ    00000001800839e0 f   ImGui:imgui_widgets.obj
 0001:00082bc0       ?BeginTabItem@ImGui@@YA_NPEBDPEA_NH@Z 0000000180083bc0 f   ImGui:imgui_widgets.obj
 0001:00082ca0       ?EndTabItem@ImGui@@YAXXZ   0000000180083ca0 f   ImGui:imgui_widgets.obj
 0001:00082d40       ?TabItemButton@ImGui@@YA_NPEBDH@Z 0000000180083d40 f   ImGui:imgui_widgets.obj
 0001:00082dd0       ?SetTabItemClosed@ImGui@@YAXPEBD@Z 0000000180083dd0 f   ImGui:imgui_widgets.obj
 0001:00082e90       ??0ImGuiInputTextCallbackData@@QEAA@XZ 0000000180083e90 f   ImGui:imgui_widgets.obj
 0001:00082ec0       ?DeleteChars@ImGuiInputTextCallbackData@@QEAAXHH@Z 0000000180083ec0 f   ImGui:imgui_widgets.obj
 0001:00082ff0       ?InsertChars@ImGuiInputTextCallbackData@@QEAAXHPEBD0@Z 0000000180083ff0 f   ImGui:imgui_widgets.obj
 0001:00083240       ?ImageButton@ImGui@@YA_NPEAXAEBUImVec2@@11HAEBUImVec4@@2@Z 0000000180084240 f   ImGui:imgui_widgets.obj
 0001:00083360       ?ListBoxHeader@ImGui@@YA_NPEBDHH@Z 0000000180084360 f   ImGui:imgui_widgets.obj
 0001:00083410       ?DragScalar@ImGui@@YA_NPEBDHPEAXMPEBX20M@Z 0000000180084410 f   ImGui:imgui_widgets.obj
 0001:000834b0       ?DragScalarN@ImGui@@YA_NPEBDHPEAXHMPEBX20M@Z 00000001800844b0 f   ImGui:imgui_widgets.obj
 0001:00083560       ?SliderScalar@ImGui@@YA_NPEBDHPEAXPEBX20M@Z 0000000180084560 f   ImGui:imgui_widgets.obj
 0001:000835f0       ?SliderScalarN@ImGui@@YA_NPEBDHPEAXHPEBX20M@Z 00000001800845f0 f   ImGui:imgui_widgets.obj
 0001:00083750       ?ImParseFormatFindStart@@YAPEBDPEBD@Z 0000000180084750 f   ImGui:imgui_widgets.obj
 0001:000837e0       ?ImParseFormatFindEnd@@YAPEBDPEBD@Z 00000001800847e0 f   ImGui:imgui_widgets.obj
 0001:000838c0       ?ImParseFormatTrimDecorations@@YAPEBDPEBDPEAD_K@Z 00000001800848c0 f   ImGui:imgui_widgets.obj
 0001:00083970       ?ImParseFormatSanitizeForPrinting@@YAXPEBDPEAD_K@Z 0000000180084970 f   ImGui:imgui_widgets.obj
 0001:00083a10       ?ImParseFormatSanitizeForScanning@@YAPEBDPEBDPEAD_K@Z 0000000180084a10 f   ImGui:imgui_widgets.obj
 0001:00083b40       ?ImParseFormatPrecision@@YAHPEBDH@Z 0000000180084b40 f   ImGui:imgui_widgets.obj
 0001:00084460       ?Update@ImGuiMenuColumns@@QEAAXM_N@Z 0000000180085460 f   ImGui:imgui_widgets.obj
 0001:000844f0       ?DeclColumns@ImGuiMenuColumns@@QEAAMMMMM@Z 00000001800854f0 f   ImGui:imgui_widgets.obj
 0001:00084610       ?CalcNextTotalWidth@ImGuiMenuColumns@@QEAAX_N@Z 0000000180085610 f   ImGui:imgui_widgets.obj
 0001:00084730       ?OnKeyPressed@ImGuiInputTextState@@QEAAXH@Z 0000000180085730 f   ImGui:imgui_widgets.obj
 0001:000847c0       ??0ImGuiTabBar@@QEAA@XZ    00000001800857c0 f   ImGui:imgui_widgets.obj
 0001:00084870       ?ShrinkWidths@ImGui@@YAXPEAUImGuiShrinkWidthItem@@HM@Z 0000000180085870 f   ImGui:imgui_widgets.obj
 0001:00084bf0       ?BeginViewportSideBar@ImGui@@YA_NPEBDPEAUImGuiViewport@@HMH@Z 0000000180085bf0 f   ImGui:imgui_widgets.obj
 0001:00084e90       ?BeginMenuEx@ImGui@@YA_NPEBD0_N@Z 0000000180085e90 f   ImGui:imgui_widgets.obj
 0001:00085c30       ?MenuItemEx@ImGui@@YA_NPEBD00_N1@Z 0000000180086c30 f   ImGui:imgui_widgets.obj
 0001:000862f0       ?BeginComboPopup@ImGui@@YA_NIAEBUImRect@@H@Z 00000001800872f0 f   ImGui:imgui_widgets.obj
 0001:00086630       ?BeginComboPreview@ImGui@@YA_NXZ 0000000180087630 f   ImGui:imgui_widgets.obj
 0001:000867d0       ?EndComboPreview@ImGui@@YAXXZ 00000001800877d0 f   ImGui:imgui_widgets.obj
 0001:000869b0       ?BeginTabBarEx@ImGui@@YA_NPEAUImGuiTabBar@@AEBUImRect@@H@Z 00000001800879b0 f   ImGui:imgui_widgets.obj
 0001:00086df0       ?TabBarFindTabByID@ImGui@@YAPEAUImGuiTabItem@@PEAUImGuiTabBar@@I@Z 0000000180087df0 f   ImGui:imgui_widgets.obj
 0001:00086e70       ?TabBarRemoveTab@ImGui@@YAXPEAUImGuiTabBar@@I@Z 0000000180087e70 f   ImGui:imgui_widgets.obj
 0001:00086f10       ?TabBarCloseTab@ImGui@@YAXPEAUImGuiTabBar@@PEAUImGuiTabItem@@@Z 0000000180087f10 f   ImGui:imgui_widgets.obj
 0001:00086fb0       ?TabBarQueueReorder@ImGui@@YAXPEAUImGuiTabBar@@PEBUImGuiTabItem@@H@Z 0000000180087fb0 f   ImGui:imgui_widgets.obj
 0001:00086ff0       ?TabBarQueueReorderFromMousePos@ImGui@@YAXPEAUImGuiTabBar@@PEBUImGuiTabItem@@UImVec2@@@Z 0000000180087ff0 f   ImGui:imgui_widgets.obj
 0001:00087250       ?TabBarProcessReorder@ImGui@@YA_NPEAUImGuiTabBar@@@Z 0000000180088250 f   ImGui:imgui_widgets.obj
 0001:00087450       ?TabItemEx@ImGui@@YA_NPEAUImGuiTabBar@@PEBDPEA_NH@Z 0000000180088450 f   ImGui:imgui_widgets.obj
 0001:000881f0       ?TabItemCalcSize@ImGui@@YA?AUImVec2@@PEBD_N@Z 00000001800891f0 f   ImGui:imgui_widgets.obj
 0001:00088320       ?TabItemBackground@ImGui@@YAXPEAUImDrawList@@AEBUImRect@@HI@Z 0000000180089320 f   ImGui:imgui_widgets.obj
 0001:000886c0       ?TabItemLabelAndCloseButton@ImGui@@YAXPEAUImDrawList@@AEBUImRect@@HUImVec2@@PEBDII_NPEA_N5@Z 00000001800896c0 f   ImGui:imgui_widgets.obj
 0001:00088cc0       ?TextEx@ImGui@@YAXPEBD0H@Z 0000000180089cc0 f   ImGui:imgui_widgets.obj
 0001:00089370       ?ButtonEx@ImGui@@YA_NPEBDAEBUImVec2@@H@Z 000000018008a370 f   ImGui:imgui_widgets.obj
 0001:000896e0       ?CloseButton@ImGui@@YA_NIAEBUImVec2@@@Z 000000018008a6e0 f   ImGui:imgui_widgets.obj
 0001:00089ba0       ?CollapseButton@ImGui@@YA_NIAEBUImVec2@@@Z 000000018008aba0 f   ImGui:imgui_widgets.obj
 0001:00089e70       ?ArrowButtonEx@ImGui@@YA_NPEBDHUImVec2@@H@Z 000000018008ae70 f   ImGui:imgui_widgets.obj
 0001:0008a170       ?Scrollbar@ImGui@@YAXW4ImGuiAxis@@@Z 000000018008b170 f   ImGui:imgui_widgets.obj
 0001:0008a3f0       ?ScrollbarEx@ImGui@@YA_NAEBUImRect@@IW4ImGuiAxis@@PEA_J_J3H@Z 000000018008b3f0 f   ImGui:imgui_widgets.obj
 0001:0008ac60       ?ImageButtonEx@ImGui@@YA_NIPEAXAEBUImVec2@@11AEBUImVec4@@2@Z 000000018008bc60 f   ImGui:imgui_widgets.obj
 0001:0008afe0       ?GetWindowScrollbarRect@ImGui@@YA?AUImRect@@PEAUImGuiWindow@@W4ImGuiAxis@@@Z 000000018008bfe0 f   ImGui:imgui_widgets.obj
 0001:0008b130       ?GetWindowScrollbarID@ImGui@@YAIPEAUImGuiWindow@@W4ImGuiAxis@@@Z 000000018008c130 f   ImGui:imgui_widgets.obj
 0001:0008b180       ?SeparatorEx@ImGui@@YAXH@Z 000000018008c180 f   ImGui:imgui_widgets.obj
 0001:0008b680       ?CheckboxFlags@ImGui@@YA_NPEBDPEA_J_J@Z 000000018008c680 f   ImGui:imgui_widgets.obj
 0001:0008b6c0       ?CheckboxFlags@ImGui@@YA_NPEBDPEA_K_K@Z 000000018008c6c0 f   ImGui:imgui_widgets.obj
 0001:0008b700       ?ButtonBehavior@ImGui@@YA_NAEBUImRect@@IPEA_N1H@Z 000000018008c700 f   ImGui:imgui_widgets.obj
 0001:0008c1a0       ?DragBehavior@ImGui@@YA_NIHPEAXMPEBX1PEBDH@Z 000000018008d1a0 f   ImGui:imgui_widgets.obj
 0001:0008caa0       ?SliderBehavior@ImGui@@YA_NAEBUImRect@@IHPEAXPEBX2PEBDHPEAU2@@Z 000000018008daa0 f   ImGui:imgui_widgets.obj
 0001:0008d040       ?SplitterBehavior@ImGui@@YA_NAEBUImRect@@IW4ImGuiAxis@@PEAM2MMMM@Z 000000018008e040 f   ImGui:imgui_widgets.obj
 0001:0008d4f0       ?TreeNodeBehavior@ImGui@@YA_NIHPEBD0@Z 000000018008e4f0 f   ImGui:imgui_widgets.obj
 0001:0008e450       ?TreePushOverrideID@ImGui@@YAXI@Z 000000018008f450 f   ImGui:imgui_widgets.obj
 0001:0008e4b0       ?TreeNodeSetOpen@ImGui@@YAXI_N@Z 000000018008f4b0 f   ImGui:imgui_widgets.obj
 0001:0008e520       ?TreeNodeUpdateNextOpen@ImGui@@YA_NIH@Z 000000018008f520 f   ImGui:imgui_widgets.obj
 0001:0008e6c0       ?DataTypeGetInfo@ImGui@@YAPEBUImGuiDataTypeInfo@@H@Z 000000018008f6c0 f   ImGui:imgui_widgets.obj
 0001:0008e6f0       ?DataTypeFormatString@ImGui@@YAHPEADHHPEBXPEBD@Z 000000018008f6f0 f   ImGui:imgui_widgets.obj
 0001:0008e890       ?DataTypeApplyOp@ImGui@@YAXHHPEAXPEBX1@Z 000000018008f890 f   ImGui:imgui_widgets.obj
 0001:0008ec90       ?DataTypeApplyFromText@ImGui@@YA_NPEBDHPEAX0@Z 000000018008fc90 f   ImGui:imgui_widgets.obj
 0001:0008eed0       ?DataTypeCompare@ImGui@@YAHHPEBX0@Z 000000018008fed0 f   ImGui:imgui_widgets.obj
 0001:0008f000       ?DataTypeClamp@ImGui@@YA_NHPEAXPEBX1@Z 0000000180090000 f   ImGui:imgui_widgets.obj
 0001:0008f170       ?InputTextEx@ImGui@@YA_NPEBD0PEADHAEBUImVec2@@HP6AHPEAUImGuiInputTextCallbackData@@@ZPEAX@Z 0000000180090170 f   ImGui:imgui_widgets.obj
 0001:000938b0       ?TempInputText@ImGui@@YA_NAEBUImRect@@IPEBDPEADHH@Z 00000001800948b0 f   ImGui:imgui_widgets.obj
 0001:000939c0       ?TempInputScalar@ImGui@@YA_NAEBUImRect@@IPEBDHPEAX1PEBX3@Z 00000001800949c0 f   ImGui:imgui_widgets.obj
 0001:00093bf0       ?ColorTooltip@ImGui@@YAXPEBDPEBMH@Z 0000000180094bf0 f   ImGui:imgui_widgets.obj
 0001:000941b0       ?ColorEditOptionsPopup@ImGui@@YAXPEBMH@Z 00000001800951b0 f   ImGui:imgui_widgets.obj
 0001:000947c0       ?ColorPickerOptionsPopup@ImGui@@YAXPEBMH@Z 00000001800957c0 f   ImGui:imgui_widgets.obj
 0001:00094a80       ?PlotEx@ImGui@@YAHW4ImGuiPlotType@@PEBDP6AMPEAXH@Z2HH1MMUImVec2@@@Z 0000000180095a80 f   ImGui:imgui_widgets.obj
 0001:00095700       ?DebugNodeInputTextState@ImGui@@YAXPEAUImGuiInputTextState@@@Z 0000000180096700 f   ImGui:imgui_widgets.obj
 0001:0009d870       ??$CheckboxFlagsT@H@ImGui@@YA_NPEBDPEAHH@Z 000000018009e870 f i ImGui:imgui_widgets.obj
 0001:0009d870       ??$CheckboxFlagsT@I@ImGui@@YA_NPEBDPEAII@Z 000000018009e870 f i ImGui:imgui_widgets.obj
 0001:0009d9b0       ??$CheckboxFlagsT@_J@ImGui@@YA_NPEBDPEA_J_J@Z 000000018009e9b0 f i ImGui:imgui_widgets.obj
 0001:0009d9b0       ??$CheckboxFlagsT@_K@ImGui@@YA_NPEBDPEA_K_K@Z 000000018009e9b0 f i ImGui:imgui_widgets.obj
 0001:0009db00       ??$DragBehaviorT@HHM@ImGui@@YA_NHPEAHMHHPEBDH@Z 000000018009eb00 f i ImGui:imgui_widgets.obj
 0001:0009e320       ??$DragBehaviorT@IHM@ImGui@@YA_NHPEAIMIIPEBDH@Z 000000018009f320 f i ImGui:imgui_widgets.obj
 0001:0009eb50       ??$DragBehaviorT@MMM@ImGui@@YA_NHPEAMMMMPEBDH@Z 000000018009fb50 f i ImGui:imgui_widgets.obj
 0001:0009f3b0       ??$DragBehaviorT@NNN@ImGui@@YA_NHPEANMNNPEBDH@Z 00000001800a03b0 f i ImGui:imgui_widgets.obj
 0001:0009fc40       ??$DragBehaviorT@_J_JN@ImGui@@YA_NHPEA_JM_J1PEBDH@Z 00000001800a0c40 f i ImGui:imgui_widgets.obj
 0001:000a04c0       ??$DragBehaviorT@_K_JN@ImGui@@YA_NHPEA_KM_K1PEBDH@Z 00000001800a14c0 f i ImGui:imgui_widgets.obj
 0001:000a0df0       ??$RoundScalarWithFormatT@H@ImGui@@YAHPEBDHH@Z 00000001800a1df0 f i ImGui:imgui_widgets.obj
 0001:000a0f00       ??$RoundScalarWithFormatT@I@ImGui@@YAIPEBDHI@Z 00000001800a1f00 f i ImGui:imgui_widgets.obj
 0001:000a1010       ??$RoundScalarWithFormatT@M@ImGui@@YAMPEBDHM@Z 00000001800a2010 f i ImGui:imgui_widgets.obj
 0001:000a1130       ??$RoundScalarWithFormatT@N@ImGui@@YANPEBDHN@Z 00000001800a2130 f i ImGui:imgui_widgets.obj
 0001:000a1250       ??$RoundScalarWithFormatT@_J@ImGui@@YA_JPEBDH_J@Z 00000001800a2250 f i ImGui:imgui_widgets.obj
 0001:000a1360       ??$RoundScalarWithFormatT@_K@ImGui@@YA_KPEBDH_K@Z 00000001800a2360 f i ImGui:imgui_widgets.obj
 0001:000a14a0       ??$ScaleRatioFromValueT@HHM@ImGui@@YAMHHHH_NMM@Z 00000001800a24a0 f i ImGui:imgui_widgets.obj
 0001:000a19f0       ??$ScaleRatioFromValueT@IHM@ImGui@@YAMHIII_NMM@Z 00000001800a29f0 f i ImGui:imgui_widgets.obj
 0001:000a1f90       ??$ScaleRatioFromValueT@MMM@ImGui@@YAMHMMM_NMM@Z 00000001800a2f90 f i ImGui:imgui_widgets.obj
 0001:000a24f0       ??$ScaleRatioFromValueT@NNN@ImGui@@YAMHNNN_NMM@Z 00000001800a34f0 f i ImGui:imgui_widgets.obj
 0001:000a2aa0       ??$ScaleRatioFromValueT@_J_JN@ImGui@@YAMH_J00_NMM@Z 00000001800a3aa0 f i ImGui:imgui_widgets.obj
 0001:000a3070       ??$ScaleRatioFromValueT@_K_JN@ImGui@@YAMH_K00_NMM@Z 00000001800a4070 f i ImGui:imgui_widgets.obj
 0001:000a39b0       ??$ScaleValueFromRatioT@HHM@ImGui@@YAHHMHH_NMM@Z 00000001800a49b0 f i ImGui:imgui_widgets.obj
 0001:000a3f20       ??$ScaleValueFromRatioT@IHM@ImGui@@YAIHMII_NMM@Z 00000001800a4f20 f i ImGui:imgui_widgets.obj
 0001:000a44c0       ??$ScaleValueFromRatioT@MMM@ImGui@@YAMHMMM_NMM@Z 00000001800a54c0 f i ImGui:imgui_widgets.obj
 0001:000a4a40       ??$ScaleValueFromRatioT@NNN@ImGui@@YANHMNN_NMM@Z 00000001800a5a40 f i ImGui:imgui_widgets.obj
 0001:000a5010       ??$ScaleValueFromRatioT@_J_JN@ImGui@@YA_JHM_J0_NMM@Z 00000001800a6010 f i ImGui:imgui_widgets.obj
 0001:000a5600       ??$ScaleValueFromRatioT@_K_JN@ImGui@@YA_KHM_K0_NMM@Z 00000001800a6600 f i ImGui:imgui_widgets.obj
 0001:000a5eb0       ??$SliderBehaviorT@HHM@ImGui@@YA_NAEBUImRect@@IHPEAHHHPEBDHPEAU1@@Z 00000001800a6eb0 f i ImGui:imgui_widgets.obj
 0001:000a6cb0       ??$SliderBehaviorT@IHM@ImGui@@YA_NAEBUImRect@@IHPEAIIIPEBDHPEAU1@@Z 00000001800a7cb0 f i ImGui:imgui_widgets.obj
 0001:000a7ab0       ??$SliderBehaviorT@MMM@ImGui@@YA_NAEBUImRect@@IHPEAMMMPEBDHPEAU1@@Z 00000001800a8ab0 f i ImGui:imgui_widgets.obj
 0001:000a88f0       ??$SliderBehaviorT@NNN@ImGui@@YA_NAEBUImRect@@IHPEANNNPEBDHPEAU1@@Z 00000001800a98f0 f i ImGui:imgui_widgets.obj
 0001:000a9730       ??$SliderBehaviorT@_J_JN@ImGui@@YA_NAEBUImRect@@IHPEA_J_J2PEBDHPEAU1@@Z 00000001800aa730 f i ImGui:imgui_widgets.obj
 0001:000aa550       ??$SliderBehaviorT@_K_JN@ImGui@@YA_NAEBUImRect@@IHPEA_K_K2PEBDHPEAU1@@Z 00000001800ab550 f i ImGui:imgui_widgets.obj
 0001:000ab370       ??0ImGuiPlotArrayGetterData@@QEAA@PEBMH@Z 00000001800ac370 f i ImGui:imgui_widgets.obj
 0001:000ab3a0       ??0ImGuiPtrOrIndex@@QEAA@H@Z 00000001800ac3a0 f i ImGui:imgui_widgets.obj
 0001:000ab3d0       ??0ImGuiPtrOrIndex@@QEAA@PEAX@Z 00000001800ac3d0 f i ImGui:imgui_widgets.obj
 0001:000ab400       ??0ImGuiTabBarSection@@QEAA@XZ 00000001800ac400 f i ImGui:imgui_widgets.obj
 0001:000ab400       ??0ImGuiTableColumnSortSpecs@@QEAA@XZ 00000001800ac400 f i ImGui:imgui_tables.obj
 0001:000ab430       ??0ImGuiTabItem@@QEAA@XZ   00000001800ac430 f i ImGui:imgui_widgets.obj
 0001:000ab4a0       ??AImVec2@@QEBAM_K@Z       00000001800ac4a0 f i ImGui:imgui_widgets.obj
 0001:000ab4c0       ?Add@?$ImPool@UImGuiTabBar@@@@QEAAPEAUImGuiTabBar@@XZ 00000001800ac4c0 f i ImGui:imgui_widgets.obj
 0001:000ab600       ?ClearSelection@ImGuiInputTextState@@QEAAXXZ 00000001800ac600 f i ImGui:imgui_widgets.obj
 0001:000ab630       ?Contains@?$ImPool@UImGuiTabBar@@@@QEBA_NPEBUImGuiTabBar@@@Z 00000001800ac630 f i ImGui:imgui_widgets.obj
 0001:000ab690       ?CursorAnimReset@ImGuiInputTextState@@QEAAXXZ 00000001800ac690 f i ImGui:imgui_widgets.obj
 0001:000ab6b0       ?CursorClamp@ImGuiInputTextState@@QEAAXXZ 00000001800ac6b0 f i ImGui:imgui_widgets.obj
 0001:000ab720       ?GetArea@ImRect@@QEBAMXZ   00000001800ac720 f i ImGui:imgui_widgets.obj
 0001:000ab760       ?GetBuildWorkRect@ImGuiViewportP@@QEBA?AUImRect@@XZ 00000001800ac760 f i ImGui:imgui_widgets.obj
 0001:000ab800       ?GetCenter@ImRect@@QEBA?AUImVec2@@XZ 00000001800ac800 f i ImGui:imgui_widgets.obj
 0001:000ab860       ?GetCharAdvance@ImFont@@QEBAMG@Z 00000001800ac860 f i ImGui:imgui_widgets.obj
 0001:000ab8c0       ?GetIndex@?$ImPool@UImGuiTabBar@@@@QEBAHPEBUImGuiTabBar@@@Z 00000001800ac8c0 f i ImGui:imgui_widgets.obj
 0001:000ab8f0       ?GetInputTextState@ImGui@@YAPEAUImGuiInputTextState@@I@Z 00000001800ac8f0 f i ImGui:imgui_widgets.obj
 0001:000ab940       ?GetOrAddByKey@?$ImPool@UImGuiTabBar@@@@QEAAPEAUImGuiTabBar@@I@Z 00000001800ac940 f i ImGui:imgui_widgets.obj
 0001:000ab9c0       ?GetTL@ImRect@@QEBA?AUImVec2@@XZ 00000001800ac9c0 f i ImGui:imgui_widgets.obj
 0001:000ab9c0       ?time_since_epoch@?$time_point@Usystem_clock@chrono@std@@V?$duration@_JU?$ratio@$00$0DLJKMKAA@@std@@@23@@chrono@std@@QEBA?AV?$duration@_JU?$ratio@$00$0DLJKMKAA@@std@@@23@XZ 00000001800ac9c0 f i g3log:logmessage.obj
 0001:000ab9e0       ?GetTR@ImRect@@QEBA?AUImVec2@@XZ 00000001800ac9e0 f i ImGui:imgui_widgets.obj
 0001:000aba20       ?GetTabOrder@ImGuiTabBar@@QEBAHPEBUImGuiTabItem@@@Z 00000001800aca20 f i ImGui:imgui_widgets.obj
 0001:000aba50       ?HasSelection@ImGuiInputTextState@@QEBA_NXZ 00000001800aca50 f i ImGui:imgui_widgets.obj
 0001:000aba90       ?ItemSize@ImGui@@YAXAEBUImRect@@M@Z 00000001800aca90 f i ImGui:imgui_widgets.obj
 0001:000abad0       ?PrimVtx@ImDrawList@@QEAAXAEBUImVec2@@0I@Z 00000001800acad0 f i ImGui:imgui_widgets.obj
 0001:000abb20       ?PrimWriteIdx@ImDrawList@@QEAAXG@Z 00000001800acb20 f i ImGui:imgui_widgets.obj
 0001:000abb60       ?PrimWriteVtx@ImDrawList@@QEAAXAEBUImVec2@@0I@Z 00000001800acb60 f i ImGui:imgui_widgets.obj
 0001:000abbe0       ?SelectAll@ImGuiInputTextState@@QEAAXXZ 00000001800acbe0 f i ImGui:imgui_widgets.obj
 0001:000abc20       ?TempInputIsActive@ImGui@@YA_NI@Z 00000001800acc20 f i ImGui:imgui_widgets.obj
 0001:000abc70       ?back@?$ImVector@UImGuiTabItem@@@@QEAAAEAUImGuiTabItem@@XZ 00000001800acc70 f i ImGui:imgui_widgets.obj
 0001:000abc90       ?contains@?$ImVector@I@@QEBA_NAEBI@Z 00000001800acc90 f i ImGui:imgui_widgets.obj
 0001:000abd10       ?erase@?$ImVector@UImGuiTabItem@@@@QEAAPEAUImGuiTabItem@@PEBU2@@Z 00000001800acd10 f i ImGui:imgui_widgets.obj
 0001:000abdc0       ?index_from_ptr@?$ImVector@UImGuiTabItem@@@@QEBAHPEBUImGuiTabItem@@@Z 00000001800acdc0 f i ImGui:imgui_widgets.obj
 0001:000abe00       ?push_back@?$ImVector@UImGuiTabItem@@@@QEAAXAEBUImGuiTabItem@@@Z 00000001800ace00 f i ImGui:imgui_widgets.obj
 0001:000abe80       ?reserve@?$ImVector@UImGuiTabBar@@@@QEAAXH@Z 00000001800ace80 f i ImGui:imgui_widgets.obj
 0001:000abf20       ?reserve@?$ImVector@UImGuiTabItem@@@@QEAAXH@Z 00000001800acf20 f i ImGui:imgui_widgets.obj
 0001:000abfb0       ?reserve_discard@?$ImVector@D@@QEAAXH@Z 00000001800acfb0 f i ImGui:imgui_widgets.obj
 0001:000ac010       ?resize@?$ImVector@UImGuiTabBar@@@@QEAAXH@Z 00000001800ad010 f i ImGui:imgui_widgets.obj
 0001:000ac060       ?resize@?$ImVector@UImGuiTabItem@@@@QEAAXH@Z 00000001800ad060 f i ImGui:imgui_widgets.obj
 0001:000ac0b0       ?ImGui_ImplWin32_Init@@YA_NPEAX@Z 00000001800ad0b0 f   ImGui:imgui_impl_win32.obj
 0001:000ac300       ?ImGui_ImplWin32_Shutdown@@YAXXZ 00000001800ad300 f   ImGui:imgui_impl_win32.obj
 0001:000ac370       ?ImGui_ImplWin32_NewFrame@@YAXXZ 00000001800ad370 f   ImGui:imgui_impl_win32.obj
 0001:000ac4d0       ?ImGui_ImplWin32_EnableDpiAwareness@@YAXXZ 00000001800ad4d0 f   ImGui:imgui_impl_win32.obj
 0001:000ac640       ?ImGui_ImplWin32_GetDpiScaleForHwnd@@YAMPEAX@Z 00000001800ad640 f   ImGui:imgui_impl_win32.obj
 0001:000ac680       ?ImGui_ImplWin32_GetDpiScaleForMonitor@@YAMPEAX@Z 00000001800ad680 f   ImGui:imgui_impl_win32.obj
 0001:000ac7e0       ?ImGui_ImplWin32_EnableAlphaCompositing@@YAXPEAX@Z 00000001800ad7e0 f   ImGui:imgui_impl_win32.obj
 0001:000adff0       ?ImGui_ImplWin32_WndProcHandler@@YA_JPEAUHWND__@@I_K_J@Z 00000001800aeff0 f   ImGui:imgui_impl_win32.obj
 0001:000aea20       ?ImGui_ImplDX9_Init@@YA_NPEAUIDirect3DDevice9@@@Z 00000001800afa20 f   ImGui:imgui_impl_dx9.obj
 0001:000aeb10       ?ImGui_ImplDX9_Shutdown@@YAXXZ 00000001800afb10 f   ImGui:imgui_impl_dx9.obj
 0001:000aeb90       ?ImGui_ImplDX9_NewFrame@@YAXXZ 00000001800afb90 f   ImGui:imgui_impl_dx9.obj
 0001:000aebc0       ?ImGui_ImplDX9_RenderDrawData@@YAXPEAUImDrawData@@@Z 00000001800afbc0 f   ImGui:imgui_impl_dx9.obj
 0001:000af750       ?ImGui_ImplDX9_CreateDeviceObjects@@YA_NXZ 00000001800b0750 f   ImGui:imgui_impl_dx9.obj
 0001:000af7a0       ?ImGui_ImplDX9_InvalidateDeviceObjects@@YAXXZ 00000001800b07a0 f   ImGui:imgui_impl_dx9.obj
 0001:000b08c0       ??0ImGui_ImplDX9_Data@@QEAA@XZ 00000001800b18c0 f i ImGui:imgui_impl_dx9.obj
 0001:000b0900       ?GetTexID@ImDrawCmd@@QEBAPEAXXZ 00000001800b1900 f i ImGui:imgui_impl_dx9.obj
 0001:000b0910       ?SetTexID@ImFontAtlas@@QEAAXPEAX@Z 00000001800b1910 f i ImGui:imgui_impl_dx9.obj
 0001:000b0930       ?StyleColorsDark@ImGui@@YAXPEAUImGuiStyle@@@Z 00000001800b1930 f   ImGui:imgui_draw.obj
 0001:000b19b0       ?StyleColorsLight@ImGui@@YAXPEAUImGuiStyle@@@Z 00000001800b29b0 f   ImGui:imgui_draw.obj
 0001:000b2a20       ?StyleColorsClassic@ImGui@@YAXPEAUImGuiStyle@@@Z 00000001800b3a20 f   ImGui:imgui_draw.obj
 0001:000b3a90       ?ClearFreeMemory@ImDrawListSplitter@@QEAAXXZ 00000001800b4a90 f   ImGui:imgui_draw.obj
 0001:000b3b80       ?Split@ImDrawListSplitter@@QEAAXPEAUImDrawList@@H@Z 00000001800b4b80 f   ImGui:imgui_draw.obj
 0001:000b3d80       ?Merge@ImDrawListSplitter@@QEAAXPEAUImDrawList@@@Z 00000001800b4d80 f   ImGui:imgui_draw.obj
 0001:000b42d0       ?SetCurrentChannel@ImDrawListSplitter@@QEAAXPEAUImDrawList@@H@Z 00000001800b52d0 f   ImGui:imgui_draw.obj
 0001:000b4490       ?PushClipRect@ImDrawList@@QEAAXAEBUImVec2@@0_N@Z 00000001800b5490 f   ImGui:imgui_draw.obj
 0001:000b4610       ?PushClipRectFullScreen@ImDrawList@@QEAAXXZ 00000001800b5610 f   ImGui:imgui_draw.obj
 0001:000b46a0       ?PopClipRect@ImDrawList@@QEAAXXZ 00000001800b56a0 f   ImGui:imgui_draw.obj
 0001:000b4740       ?PushTextureID@ImDrawList@@QEAAXPEAX@Z 00000001800b5740 f   ImGui:imgui_draw.obj
 0001:000b47a0       ?PopTextureID@ImDrawList@@QEAAXXZ 00000001800b57a0 f   ImGui:imgui_draw.obj
 0001:000b4820       ?AddLine@ImDrawList@@QEAAXAEBUImVec2@@0IM@Z 00000001800b5820 f   ImGui:imgui_draw.obj
 0001:000b48e0       ?AddRect@ImDrawList@@QEAAXAEBUImVec2@@0IMHM@Z 00000001800b58e0 f   ImGui:imgui_draw.obj
 0001:000b4a90       ?AddRectFilled@ImDrawList@@QEAAXAEBUImVec2@@0IMH@Z 00000001800b5a90 f   ImGui:imgui_draw.obj
 0001:000b4b50       ?AddRectFilledMultiColor@ImDrawList@@QEAAXAEBUImVec2@@0IIII@Z 00000001800b5b50 f   ImGui:imgui_draw.obj
 0001:000b4ce0       ?AddQuad@ImDrawList@@QEAAXAEBUImVec2@@000IM@Z 00000001800b5ce0 f   ImGui:imgui_draw.obj
 0001:000b4d70       ?AddQuadFilled@ImDrawList@@QEAAXAEBUImVec2@@000I@Z 00000001800b5d70 f   ImGui:imgui_draw.obj
 0001:000b4df0       ?AddTriangle@ImDrawList@@QEAAXAEBUImVec2@@00IM@Z 00000001800b5df0 f   ImGui:imgui_draw.obj
 0001:000b4e70       ?AddTriangleFilled@ImDrawList@@QEAAXAEBUImVec2@@00I@Z 00000001800b5e70 f   ImGui:imgui_draw.obj
 0001:000b4ee0       ?AddCircle@ImDrawList@@QEAAXAEBUImVec2@@MIHM@Z 00000001800b5ee0 f   ImGui:imgui_draw.obj
 0001:000b5010       ?AddCircleFilled@ImDrawList@@QEAAXAEBUImVec2@@MIH@Z 00000001800b6010 f   ImGui:imgui_draw.obj
 0001:000b5120       ?AddNgon@ImDrawList@@QEAAXAEBUImVec2@@MIHM@Z 00000001800b6120 f   ImGui:imgui_draw.obj
 0001:000b51e0       ?AddNgonFilled@ImDrawList@@QEAAXAEBUImVec2@@MIH@Z 00000001800b61e0 f   ImGui:imgui_draw.obj
 0001:000b5290       ?AddText@ImDrawList@@QEAAXAEBUImVec2@@IPEBD1@Z 00000001800b6290 f   ImGui:imgui_draw.obj
 0001:000b5300       ?AddText@ImDrawList@@QEAAXPEBUImFont@@MAEBUImVec2@@IPEBD2MPEBUImVec4@@@Z 00000001800b6300 f   ImGui:imgui_draw.obj
 0001:000b5500       ?AddPolyline@ImDrawList@@QEAAXPEBUImVec2@@HIHM@Z 00000001800b6500 f   ImGui:imgui_draw.obj
 0001:000b72f0       ?AddConvexPolyFilled@ImDrawList@@QEAAXPEBUImVec2@@HI@Z 00000001800b82f0 f   ImGui:imgui_draw.obj
 0001:000b7b10       ?AddBezierCubic@ImDrawList@@QEAAXAEBUImVec2@@000IMH@Z 00000001800b8b10 f   ImGui:imgui_draw.obj
 0001:000b7b90       ?AddBezierQuadratic@ImDrawList@@QEAAXAEBUImVec2@@00IMH@Z 00000001800b8b90 f   ImGui:imgui_draw.obj
 0001:000b7c10       ?AddImage@ImDrawList@@QEAAXPEAXAEBUImVec2@@111I@Z 00000001800b8c10 f   ImGui:imgui_draw.obj
 0001:000b7ce0       ?AddImageQuad@ImDrawList@@QEAAXPEAXAEBUImVec2@@1111111I@Z 00000001800b8ce0 f   ImGui:imgui_draw.obj
 0001:000b7df0       ?AddImageRounded@ImDrawList@@QEAAXPEAXAEBUImVec2@@111IMH@Z 00000001800b8df0 f   ImGui:imgui_draw.obj
 0001:000b7f90       ?PathArcTo@ImDrawList@@QEAAXAEBUImVec2@@MMMH@Z 00000001800b8f90 f   ImGui:imgui_draw.obj
 0001:000b8510       ?PathArcToFast@ImDrawList@@QEAAXAEBUImVec2@@MHH@Z 00000001800b9510 f   ImGui:imgui_draw.obj
 0001:000b85b0       ?PathBezierCubicCurveTo@ImDrawList@@QEAAXAEBUImVec2@@00H@Z 00000001800b95b0 f   ImGui:imgui_draw.obj
 0001:000b8750       ?PathBezierQuadraticCurveTo@ImDrawList@@QEAAXAEBUImVec2@@0H@Z 00000001800b9750 f   ImGui:imgui_draw.obj
 0001:000b88c0       ?PathRect@ImDrawList@@QEAAXAEBUImVec2@@0MH@Z 00000001800b98c0 f   ImGui:imgui_draw.obj
 0001:000b8d00       ?AddCallback@ImDrawList@@QEAAXP6AXPEBU1@PEBUImDrawCmd@@@ZPEAX@Z 00000001800b9d00 f   ImGui:imgui_draw.obj
 0001:000b8da0       ?AddDrawCmd@ImDrawList@@QEAAXXZ 00000001800b9da0 f   ImGui:imgui_draw.obj
 0001:000b8e40       ?CloneOutput@ImDrawList@@QEBAPEAU1@XZ 00000001800b9e40 f   ImGui:imgui_draw.obj
 0001:000b8f30       ?PrimReserve@ImDrawList@@QEAAXHH@Z 00000001800b9f30 f   ImGui:imgui_draw.obj
 0001:000b9060       ?PrimUnreserve@ImDrawList@@QEAAXHH@Z 00000001800ba060 f   ImGui:imgui_draw.obj
 0001:000b9100       ?PrimRect@ImDrawList@@QEAAXAEBUImVec2@@0I@Z 00000001800ba100 f   ImGui:imgui_draw.obj
 0001:000b93c0       ?PrimRectUV@ImDrawList@@QEAAXAEBUImVec2@@000I@Z 00000001800ba3c0 f   ImGui:imgui_draw.obj
 0001:000b96c0       ?PrimQuadUV@ImDrawList@@QEAAXAEBUImVec2@@0000000I@Z 00000001800ba6c0 f   ImGui:imgui_draw.obj
 0001:000b9940       ?_ResetForNewFrame@ImDrawList@@QEAAXXZ 00000001800ba940 f   ImGui:imgui_draw.obj
 0001:000b9ac0       ?_ClearFreeMemory@ImDrawList@@QEAAXXZ 00000001800baac0 f   ImGui:imgui_draw.obj
 0001:000b9b80       ?_PopUnusedDrawCmd@ImDrawList@@QEAAXXZ 00000001800bab80 f   ImGui:imgui_draw.obj
 0001:000b9bf0       ?_TryMergeDrawCmds@ImDrawList@@QEAAXXZ 00000001800babf0 f   ImGui:imgui_draw.obj
 0001:000b9ca0       ?_OnChangedClipRect@ImDrawList@@QEAAXXZ 00000001800baca0 f   ImGui:imgui_draw.obj
 0001:000b9db0       ?_OnChangedTextureID@ImDrawList@@QEAAXXZ 00000001800badb0 f   ImGui:imgui_draw.obj
 0001:000b9eb0       ?_OnChangedVtxOffset@ImDrawList@@QEAAXXZ 00000001800baeb0 f   ImGui:imgui_draw.obj
 0001:000b9f20       ?_CalcCircleAutoSegmentCount@ImDrawList@@QEBAHM@Z 00000001800baf20 f   ImGui:imgui_draw.obj
 0001:000b9fe0       ?_PathArcToFastEx@ImDrawList@@QEAAXAEBUImVec2@@MHHH@Z 00000001800bafe0 f   ImGui:imgui_draw.obj
 0001:000ba460       ?_PathArcToN@ImDrawList@@QEAAXAEBUImVec2@@MMMH@Z 00000001800bb460 f   ImGui:imgui_draw.obj
 0001:000ba5c0       ?DeIndexAllBuffers@ImDrawData@@QEAAXXZ 00000001800bb5c0 f   ImGui:imgui_draw.obj
 0001:000ba770       ?ScaleClipRects@ImDrawData@@QEAAXAEBUImVec2@@@Z 00000001800bb770 f   ImGui:imgui_draw.obj
 0001:000ba8b0       ??0ImFontConfig@@QEAA@XZ   00000001800bb8b0 f   ImGui:imgui_draw.obj
 0001:000ba950       ?AddText@ImFontGlyphRangesBuilder@@QEAAXPEBD0@Z 00000001800bb950 f   ImGui:imgui_draw.obj
 0001:000baa10       ?AddRanges@ImFontGlyphRangesBuilder@@QEAAXPEBG@Z 00000001800bba10 f   ImGui:imgui_draw.obj
 0001:000baab0       ?BuildRanges@ImFontGlyphRangesBuilder@@QEAAXPEAU?$ImVector@G@@@Z 00000001800bbab0 f   ImGui:imgui_draw.obj
 0001:000bab90       ??0ImFontAtlas@@QEAA@XZ    00000001800bbb90 f   ImGui:imgui_draw.obj
 0001:000bac60       ??1ImFontAtlas@@QEAA@XZ    00000001800bbc60 f   ImGui:imgui_draw.obj
 0001:000bacc0       ?AddFont@ImFontAtlas@@QEAAPEAUImFont@@PEBUImFontConfig@@@Z 00000001800bbcc0 f   ImGui:imgui_draw.obj
 0001:000baea0       ?AddFontDefault@ImFontAtlas@@QEAAPEAUImFont@@PEBUImFontConfig@@@Z 00000001800bbea0 f   ImGui:imgui_draw.obj
 0001:000bb070       ?AddFontFromFileTTF@ImFontAtlas@@QEAAPEAUImFont@@PEBDMPEBUImFontConfig@@PEBG@Z 00000001800bc070 f   ImGui:imgui_draw.obj
 0001:000bb250       ?AddFontFromMemoryTTF@ImFontAtlas@@QEAAPEAUImFont@@PEAXHMPEBUImFontConfig@@PEBG@Z 00000001800bc250 f   ImGui:imgui_draw.obj
 0001:000bb390       ?AddFontFromMemoryCompressedTTF@ImFontAtlas@@QEAAPEAUImFont@@PEBXHMPEBUImFontConfig@@PEBG@Z 00000001800bc390 f   ImGui:imgui_draw.obj
 0001:000bb4c0       ?AddFontFromMemoryCompressedBase85TTF@ImFontAtlas@@QEAAPEAUImFont@@PEBDMPEBUImFontConfig@@PEBG@Z 00000001800bc4c0 f   ImGui:imgui_draw.obj
 0001:000bb570       ?ClearInputData@ImFontAtlas@@QEAAXXZ 00000001800bc570 f   ImGui:imgui_draw.obj
 0001:000bb7a0       ?ClearTexData@ImFontAtlas@@QEAAXXZ 00000001800bc7a0 f   ImGui:imgui_draw.obj
 0001:000bb810       ?ClearFonts@ImFontAtlas@@QEAAXXZ 00000001800bc810 f   ImGui:imgui_draw.obj
 0001:000bb840       ?Clear@ImFontAtlas@@QEAAXXZ 00000001800bc840 f   ImGui:imgui_draw.obj
 0001:000bb880       ?Build@ImFontAtlas@@QEAA_NXZ 00000001800bc880 f   ImGui:imgui_draw.obj
 0001:000bb8f0       ?GetTexDataAsAlpha8@ImFontAtlas@@QEAAXPEAPEAEPEAH11@Z 00000001800bc8f0 f   ImGui:imgui_draw.obj
 0001:000bb980       ?GetTexDataAsRGBA32@ImFontAtlas@@QEAAXPEAPEAEPEAH11@Z 00000001800bc980 f   ImGui:imgui_draw.obj
 0001:000bbaf0       ?GetGlyphRangesDefault@ImFontAtlas@@QEAAPEBGXZ 00000001800bcaf0 f   ImGui:imgui_draw.obj
 0001:000bbb20       ?GetGlyphRangesKorean@ImFontAtlas@@QEAAPEBGXZ 00000001800bcb20 f   ImGui:imgui_draw.obj
 0001:000bbb50       ?GetGlyphRangesJapanese@ImFontAtlas@@QEAAPEBGXZ 00000001800bcb50 f   ImGui:imgui_draw.obj
 0001:000bbbd0       ?GetGlyphRangesChineseFull@ImFontAtlas@@QEAAPEBGXZ 00000001800bcbd0 f   ImGui:imgui_draw.obj
 0001:000bbc00       ?GetGlyphRangesChineseSimplifiedCommon@ImFontAtlas@@QEAAPEBGXZ 00000001800bcc00 f   ImGui:imgui_draw.obj
 0001:000bbc80       ?GetGlyphRangesCyrillic@ImFontAtlas@@QEAAPEBGXZ 00000001800bcc80 f   ImGui:imgui_draw.obj
 0001:000bbcb0       ?GetGlyphRangesThai@ImFontAtlas@@QEAAPEBGXZ 00000001800bccb0 f   ImGui:imgui_draw.obj
 0001:000bbce0       ?GetGlyphRangesVietnamese@ImFontAtlas@@QEAAPEBGXZ 00000001800bcce0 f   ImGui:imgui_draw.obj
 0001:000bbd10       ?AddCustomRectRegular@ImFontAtlas@@QEAAHHH@Z 00000001800bcd10 f   ImGui:imgui_draw.obj
 0001:000bbd80       ?AddCustomRectFontGlyph@ImFontAtlas@@QEAAHPEAUImFont@@GHHMAEBUImVec2@@@Z 00000001800bcd80 f   ImGui:imgui_draw.obj
 0001:000bbe20       ?CalcCustomRectUV@ImFontAtlas@@QEBAXPEBUImFontAtlasCustomRect@@PEAUImVec2@@1@Z 00000001800bce20 f   ImGui:imgui_draw.obj
 0001:000bbef0       ?GetMouseCursorTexData@ImFontAtlas@@QEAA_NHPEAUImVec2@@0QEAU2@1@Z 00000001800bcef0 f   ImGui:imgui_draw.obj
 0001:000bc160       ??0ImFont@@QEAA@XZ         00000001800bd160 f   ImGui:imgui_draw.obj
 0001:000bc280       ??1ImFont@@QEAA@XZ         00000001800bd280 f   ImGui:imgui_draw.obj
 0001:000bc2d0       ?FindGlyph@ImFont@@QEBAPEBUImFontGlyph@@G@Z 00000001800bd2d0 f   ImGui:imgui_draw.obj
 0001:000bc350       ?FindGlyphNoFallback@ImFont@@QEBAPEBUImFontGlyph@@G@Z 00000001800bd350 f   ImGui:imgui_draw.obj
 0001:000bc3c0       ?CalcTextSizeA@ImFont@@QEBA?AUImVec2@@MMMPEBD0PEAPEBD@Z 00000001800bd3c0 f   ImGui:imgui_draw.obj
 0001:000bc7d0       ?CalcWordWrapPositionA@ImFont@@QEBAPEBDMPEBD0M@Z 00000001800bd7d0 f   ImGui:imgui_draw.obj
 0001:000bcae0       ?RenderChar@ImFont@@QEBAXPEAUImDrawList@@MAEBUImVec2@@IG@Z 00000001800bdae0 f   ImGui:imgui_draw.obj
 0001:000bcd00       ?RenderText@ImFont@@QEBAXPEAUImDrawList@@MAEBUImVec2@@IAEBUImVec4@@PEBD3M_N@Z 00000001800bdd00 f   ImGui:imgui_draw.obj
 0001:000bda80       ?BuildLookupTable@ImFont@@QEAAXXZ 00000001800bea80 f   ImGui:imgui_draw.obj
 0001:000be080       ?ClearOutputData@ImFont@@QEAAXXZ 00000001800bf080 f   ImGui:imgui_draw.obj
 0001:000be130       ?GrowIndex@ImFont@@QEAAXH@Z 00000001800bf130 f   ImGui:imgui_draw.obj
 0001:000be1b0       ?AddGlyph@ImFont@@QEAAXPEBUImFontConfig@@GMMMMMMMMM@Z 00000001800bf1b0 f   ImGui:imgui_draw.obj
 0001:000be510       ?AddRemapChar@ImFont@@QEAAXGG_N@Z 00000001800bf510 f   ImGui:imgui_draw.obj
 0001:000be650       ?SetGlyphVisible@ImFont@@QEAAXG_N@Z 00000001800bf650 f   ImGui:imgui_draw.obj
 0001:000be6d0       ?IsGlyphRangeUnused@ImFont@@QEAA_NII@Z 00000001800bf6d0 f   ImGui:imgui_draw.obj
 0001:000bf0a0       ?ImBezierCubicCalc@@YA?AUImVec2@@AEBU1@000M@Z 00000001800c00a0 f   ImGui:imgui_draw.obj
 0001:000bf1f0       ?ImBezierQuadraticCalc@@YA?AUImVec2@@AEBU1@00M@Z 00000001800c01f0 f   ImGui:imgui_draw.obj
 0001:000bf2f0       ??0ImDrawListSharedData@@QEAA@XZ 00000001800c02f0 f   ImGui:imgui_draw.obj
 0001:000bf440       ?SetCircleTessellationMaxError@ImDrawListSharedData@@QEAAXM@Z 00000001800c0440 f   ImGui:imgui_draw.obj
 0001:000bf590       ?RenderColorRectWithAlphaCheckerboard@ImGui@@YAXPEAUImDrawList@@UImVec2@@1IM1MH@Z 00000001800c0590 f   ImGui:imgui_draw.obj
 0001:000bf960       ?RenderArrow@ImGui@@YAXPEAUImDrawList@@UImVec2@@IHM@Z 00000001800c0960 f   ImGui:imgui_draw.obj
 0001:000bfc80       ?RenderBullet@ImGui@@YAXPEAUImDrawList@@UImVec2@@I@Z 00000001800c0c80 f   ImGui:imgui_draw.obj
 0001:000bfce0       ?RenderCheckMark@ImGui@@YAXPEAUImDrawList@@UImVec2@@IM@Z 00000001800c0ce0 f   ImGui:imgui_draw.obj
 0001:000bfe80       ?RenderArrowPointingAt@ImGui@@YAXPEAUImDrawList@@UImVec2@@1HI@Z 00000001800c0e80 f   ImGui:imgui_draw.obj
 0001:000c0170       ?RenderRectFilledRangeH@ImGui@@YAXPEAUImDrawList@@AEBUImRect@@IMMM@Z 00000001800c1170 f   ImGui:imgui_draw.obj
 0001:000c0900       ?RenderRectFilledWithHole@ImGui@@YAXPEAUImDrawList@@AEBUImRect@@1IM@Z 00000001800c1900 f   ImGui:imgui_draw.obj
 0001:000c1030       ?ShadeVertsLinearColorGradientKeepAlpha@ImGui@@YAXPEAUImDrawList@@HHUImVec2@@1II@Z 00000001800c2030 f   ImGui:imgui_draw.obj
 0001:000c1250       ?ShadeVertsLinearUV@ImGui@@YAXPEAUImDrawList@@HHAEBUImVec2@@111_N@Z 00000001800c2250 f   ImGui:imgui_draw.obj
 0001:000c1510       ?ImFontAtlasGetBuilderForStbTruetype@@YAPEBUImFontBuilderIO@@XZ 00000001800c2510 f   ImGui:imgui_draw.obj
 0001:000c1530       ?ImFontAtlasBuildInit@@YAXPEAUImFontAtlas@@@Z 00000001800c2530 f   ImGui:imgui_draw.obj
 0001:000c15e0       ?ImFontAtlasBuildSetupFont@@YAXPEAUImFontAtlas@@PEAUImFont@@PEAUImFontConfig@@MM@Z 00000001800c25e0 f   ImGui:imgui_draw.obj
 0001:000c1690       ?ImFontAtlasBuildPackCustomRects@@YAXPEAUImFontAtlas@@PEAX@Z 00000001800c2690 f   ImGui:imgui_draw.obj
 0001:000c18a0       ?ImFontAtlasBuildFinish@@YAXPEAUImFontAtlas@@@Z 00000001800c28a0 f   ImGui:imgui_draw.obj
 0001:000c1ad0       ?ImFontAtlasBuildRender8bppRectFromString@@YAXPEAUImFontAtlas@@HHHHPEBDDE@Z 00000001800c2ad0 f   ImGui:imgui_draw.obj
 0001:000c1bd0       ?ImFontAtlasBuildRender32bppRectFromString@@YAXPEAUImFontAtlas@@HHHHPEBDDI@Z 00000001800c2bd0 f   ImGui:imgui_draw.obj
 0001:000c1cd0       ?ImFontAtlasBuildMultiplyCalcLookupTable@@YAXQEAEM@Z 00000001800c2cd0 f   ImGui:imgui_draw.obj
 0001:000c1d50       ?ImFontAtlasBuildMultiplyRectAlpha8@@YAXQEBEPEAEHHHHH@Z 00000001800c2d50 f   ImGui:imgui_draw.obj
 0001:000d09c0       ??$IM_DELETE@UImFont@@@@YAXPEAUImFont@@@Z 00000001800d19c0 f i ImGui:imgui_draw.obj
 0001:000d09f0       ??0ImDrawChannel@@QEAA@XZ  00000001800d19f0 f i ImGui:imgui_draw.obj
 0001:000d0a30       ??0ImDrawCmd@@QEAA@XZ      00000001800d1a30 f i ImGui:imgui_draw.obj
 0001:000d0a70       ??0ImFontAtlasCustomRect@@QEAA@XZ 00000001800d1a70 f i ImGui:imgui_draw.obj
 0001:000d0b10       ??1ImFontBuildSrcData@@QEAA@XZ 00000001800d1b10 f i ImGui:imgui_draw.obj
 0001:000d0b50       ??4?$ImVector@G@@QEAAAEAU0@AEBU0@@Z 00000001800d1b50 f i ImGui:imgui_draw.obj
 0001:000d0bc0       ??4?$ImVector@UImDrawCmd@@@@QEAAAEAU0@AEBU0@@Z 00000001800d1bc0 f i ImGui:imgui_draw.obj
 0001:000d0c30       ??4?$ImVector@UImDrawVert@@@@QEAAAEAU0@AEBU0@@Z 00000001800d1c30 f i ImGui:imgui_draw.obj
 0001:000d0ca0       ??A?$ImVector@UImDrawVert@@@@QEAAAEAUImDrawVert@@H@Z 00000001800d1ca0 f i ImGui:imgui_draw.obj
 0001:000d0cc0       ??A?$ImVector@UImFontBuildSrcData@@@@QEAAAEAUImFontBuildSrcData@@H@Z 00000001800d1cc0 f i ImGui:imgui_draw.obj
 0001:000d0ce0       ??_GImFont@@QEAAPEAXI@Z    00000001800d1ce0 f i ImGui:imgui_draw.obj
 0001:000d0d20       ??_GImFontBuildSrcData@@QEAAPEAXI@Z 00000001800d1d20 f i ImGui:imgui_draw.obj
 0001:000d0d60       ?AddChar@ImFontGlyphRangesBuilder@@QEAAXG@Z 00000001800d1d60 f i ImGui:imgui_draw.obj
 0001:000d0d90       ?Clear@ImDrawListSplitter@@QEAAXXZ 00000001800d1d90 f i ImGui:imgui_draw.obj
 0001:000d0db0       ?Create@ImBitVector@@QEAAXH@Z 00000001800d1db0 f i ImGui:imgui_draw.obj
 0001:000d0e10       ?GetBit@ImFontGlyphRangesBuilder@@QEBA_N_K@Z 00000001800d1e10 f i ImGui:imgui_draw.obj
 0001:000d0e90       ?GetCustomRectByIndex@ImFontAtlas@@QEAAPEAUImFontAtlasCustomRect@@H@Z 00000001800d1e90 f i ImGui:imgui_draw.obj
 0001:000d0ec0       ?SetBit@ImBitVector@@QEAAXH@Z 00000001800d1ec0 f i ImGui:imgui_draw.obj
 0001:000d0ef0       ?SetBit@ImFontGlyphRangesBuilder@@QEAAX_K@Z 00000001800d1ef0 f i ImGui:imgui_draw.obj
 0001:000d0f60       ?TestBit@ImBitVector@@QEBA_NH@Z 00000001800d1f60 f i ImGui:imgui_draw.obj
 0001:000d0f90       ?back@?$ImVector@UImFontConfig@@@@QEAAAEAUImFontConfig@@XZ 00000001800d1f90 f i ImGui:imgui_draw.obj
 0001:000d0f90       ?back@?$ImVector@UImGuiOldColumns@@@@QEAAAEAUImGuiOldColumns@@XZ 00000001800d1f90 f i ImGui:imgui_tables.obj
 0001:000d0fc0       ?back@?$ImVector@UImFontGlyph@@@@QEAAAEAUImFontGlyph@@XZ 00000001800d1fc0 f i ImGui:imgui_draw.obj
 0001:000d0fe0       ?clear_delete@?$ImVector@PEAUImFont@@@@QEAAXXZ 00000001800d1fe0 f i ImGui:imgui_draw.obj
 0001:000d1040       ?clear_destruct@?$ImVector@UImFontBuildSrcData@@@@QEAAXXZ 00000001800d2040 f i ImGui:imgui_draw.obj
 0001:000d10b0       ?end@?$ImVector@I@@QEBAPEBIXZ 00000001800d20b0 f i ImGui:imgui_draw.obj
 0001:000d10d0       ?erase@?$ImVector@UImDrawCmd@@@@QEAAPEAUImDrawCmd@@PEBU2@@Z 00000001800d20d0 f i ImGui:imgui_draw.obj
 0001:000d1180       ?push_back@?$ImVector@UImFontConfig@@@@QEAAXAEBUImFontConfig@@@Z 00000001800d2180 f i ImGui:imgui_draw.obj
 0001:000d1180       ?push_back@?$ImVector@UImGuiOldColumns@@@@QEAAXAEBUImGuiOldColumns@@@Z 00000001800d2180 f i ImGui:imgui_tables.obj
 0001:000d1200       ?reserve@?$ImVector@UImFontBuildSrcData@@@@QEAAXH@Z 00000001800d2200 f i ImGui:imgui_draw.obj
 0001:000d12a0       ?reserve@?$ImVector@UImFontConfig@@@@QEAAXH@Z 00000001800d22a0 f i ImGui:imgui_draw.obj
 0001:000d12a0       ?reserve@?$ImVector@UImGuiOldColumns@@@@QEAAXH@Z 00000001800d22a0 f i ImGui:imgui_tables.obj
 0001:000d1340       ?reserve@?$ImVector@UImGuiOldColumnData@@@@QEAAXH@Z 00000001800d2340 f i ImGui:imgui_tables.obj
 0001:000d1340       ?reserve@?$ImVector@Ustbtt_packedchar@@@@QEAAXH@Z 00000001800d2340 f i ImGui:imgui_draw.obj
 0001:000d13d0       ?resize@?$ImVector@G@@QEAAXHAEBG@Z 00000001800d23d0 f i ImGui:imgui_draw.obj
 0001:000d1470       ?resize@?$ImVector@M@@QEAAXHAEBM@Z 00000001800d2470 f i ImGui:imgui_draw.obj
 0001:000d1510       ?resize@?$ImVector@UImDrawChannel@@@@QEAAXH@Z 00000001800d2510 f i ImGui:imgui_draw.obj
 0001:000d1510       ?resize@?$ImVector@UImFontBuildDstData@@@@QEAAXH@Z 00000001800d2510 f i ImGui:imgui_draw.obj
 0001:000d1560       ?resize@?$ImVector@UImDrawVert@@@@QEAAXH@Z 00000001800d2560 f i ImGui:imgui_draw.obj
 0001:000d15b0       ?resize@?$ImVector@UImFontBuildSrcData@@@@QEAAXH@Z 00000001800d25b0 f i ImGui:imgui_draw.obj
 0001:000d1600       ?resize@?$ImVector@UImFontGlyph@@@@QEAAXH@Z 00000001800d2600 f i ImGui:imgui_draw.obj
 0001:000d1650       ?resize@?$ImVector@UImGuiOldColumnData@@@@QEAAXH@Z 00000001800d2650 f i ImGui:imgui_tables.obj
 0001:000d1650       ?resize@?$ImVector@Ustbtt_packedchar@@@@QEAAXH@Z 00000001800d2650 f i ImGui:imgui_draw.obj
 0001:000d16a0       ?shrink@?$ImVector@G@@QEAAXH@Z 00000001800d26a0 f i ImGui:imgui_draw.obj
 0001:000d16a0       ?shrink@?$ImVector@UImDrawVert@@@@QEAAXH@Z 00000001800d26a0 f i ImGui:imgui_draw.obj
 0001:000d16c0       ?size_in_bytes@?$ImVector@UImFontBuildDstData@@@@QEBAHXZ 00000001800d26c0 f i ImGui:imgui_draw.obj
 0001:000d16d0       ?size_in_bytes@?$ImVector@UImFontBuildSrcData@@@@QEBAHXZ 00000001800d26d0 f i ImGui:imgui_draw.obj
 0001:000d16f0       ?size_in_bytes@?$ImVector@Ustbrp_rect@@@@QEBAHXZ 00000001800d26f0 f i ImGui:imgui_draw.obj
 0001:000d1700       ?size_in_bytes@?$ImVector@Ustbtt_packedchar@@@@QEBAHXZ 00000001800d2700 f i ImGui:imgui_draw.obj
 0001:000d1710       ?BeginTable@ImGui@@YA_NPEBDHHAEBUImVec2@@M@Z 00000001800d2710 f   ImGui:imgui_tables.obj
 0001:000d1770       ?EndTable@ImGui@@YAXXZ     00000001800d2770 f   ImGui:imgui_tables.obj
 0001:000d2580       ?TableNextRow@ImGui@@YAXHM@Z 00000001800d3580 f   ImGui:imgui_tables.obj
 0001:000d26f0       ?TableNextColumn@ImGui@@YA_NXZ 00000001800d36f0 f   ImGui:imgui_tables.obj
 0001:000d27e0       ?TableSetColumnIndex@ImGui@@YA_NH@Z 00000001800d37e0 f   ImGui:imgui_tables.obj
 0001:000d2890       ?TableSetupColumn@ImGui@@YAXPEBDHMI@Z 00000001800d3890 f   ImGui:imgui_tables.obj
 0001:000d2bc0       ?TableSetupScrollFreeze@ImGui@@YAXHH@Z 00000001800d3bc0 f   ImGui:imgui_tables.obj
 0001:000d2eb0       ?TableHeadersRow@ImGui@@YAXXZ 00000001800d3eb0 f   ImGui:imgui_tables.obj
 0001:000d3040       ?TableHeader@ImGui@@YAXPEBD@Z 00000001800d4040 f   ImGui:imgui_tables.obj
 0001:000d3c80       ?TableGetSortSpecs@ImGui@@YAPEAUImGuiTableSortSpecs@@XZ 00000001800d4c80 f   ImGui:imgui_tables.obj
 0001:000d3cf0       ?TableGetColumnCount@ImGui@@YAHXZ 00000001800d4cf0 f   ImGui:imgui_tables.obj
 0001:000d3d40       ?TableGetColumnIndex@ImGui@@YAHXZ 00000001800d4d40 f   ImGui:imgui_tables.obj
 0001:000d3d80       ?TableGetRowIndex@ImGui@@YAHXZ 00000001800d4d80 f   ImGui:imgui_tables.obj
 0001:000d3dc0       ?TableGetColumnName@ImGui@@YAPEBDH@Z 00000001800d4dc0 f   ImGui:imgui_tables.obj
 0001:000d3e20       ?TableGetColumnFlags@ImGui@@YAHH@Z 00000001800d4e20 f   ImGui:imgui_tables.obj
 0001:000d3ed0       ?TableSetColumnEnabled@ImGui@@YAXH_N@Z 00000001800d4ed0 f   ImGui:imgui_tables.obj
 0001:000d3f50       ?TableSetBgColor@ImGui@@YAXHIH@Z 00000001800d4f50 f   ImGui:imgui_tables.obj
 0001:000d4130       ?Columns@ImGui@@YAXHPEBD_N@Z 00000001800d5130 f   ImGui:imgui_tables.obj
 0001:000d41e0       ?NextColumn@ImGui@@YAXXZ   00000001800d51e0 f   ImGui:imgui_tables.obj
 0001:000d44e0       ?GetColumnIndex@ImGui@@YAHXZ 00000001800d54e0 f   ImGui:imgui_tables.obj
 0001:000d4530       ?GetColumnWidth@ImGui@@YAMH@Z 00000001800d5530 f   ImGui:imgui_tables.obj
 0001:000d4600       ?SetColumnWidth@ImGui@@YAXHM@Z 00000001800d5600 f   ImGui:imgui_tables.obj
 0001:000d4670       ?GetColumnOffset@ImGui@@YAMH@Z 00000001800d5670 f   ImGui:imgui_tables.obj
 0001:000d4710       ?SetColumnOffset@ImGui@@YAXHM@Z 00000001800d5710 f   ImGui:imgui_tables.obj
 0001:000d48c0       ?GetColumnsCount@ImGui@@YAHXZ 00000001800d58c0 f   ImGui:imgui_tables.obj
 0001:000d4ce0       ?SetWindowClipRectBeforeSetChannel@ImGui@@YAXPEAUImGuiWindow@@AEBUImRect@@@Z 00000001800d5ce0 f   ImGui:imgui_tables.obj
 0001:000d4d90       ?BeginColumns@ImGui@@YAXPEBDHH@Z 00000001800d5d90 f   ImGui:imgui_tables.obj
 0001:000d53e0       ?EndColumns@ImGui@@YAXXZ   00000001800d63e0 f   ImGui:imgui_tables.obj
 0001:000d5950       ?PushColumnClipRect@ImGui@@YAXH@Z 00000001800d6950 f   ImGui:imgui_tables.obj
 0001:000d59d0       ?PushColumnsBackground@ImGui@@YAXXZ 00000001800d69d0 f   ImGui:imgui_tables.obj
 0001:000d5a70       ?PopColumnsBackground@ImGui@@YAXXZ 00000001800d6a70 f   ImGui:imgui_tables.obj
 0001:000d5af0       ?GetColumnsID@ImGui@@YAIPEBDH@Z 00000001800d6af0 f   ImGui:imgui_tables.obj
 0001:000d5b80       ?FindOrCreateColumns@ImGui@@YAPEAUImGuiOldColumns@@PEAUImGuiWindow@@I@Z 00000001800d6b80 f   ImGui:imgui_tables.obj
 0001:000d5c90       ?GetColumnOffsetFromNorm@ImGui@@YAMPEBUImGuiOldColumns@@M@Z 00000001800d6c90 f   ImGui:imgui_tables.obj
 0001:000d5cc0       ?GetColumnNormFromOffset@ImGui@@YAMPEBUImGuiOldColumns@@M@Z 00000001800d6cc0 f   ImGui:imgui_tables.obj
 0001:000d5cf0       ?TableOpenContextMenu@ImGui@@YAXH@Z 00000001800d6cf0 f   ImGui:imgui_tables.obj
 0001:000d5dc0       ?TableSetColumnWidth@ImGui@@YAXHM@Z 00000001800d6dc0 f   ImGui:imgui_tables.obj
 0001:000d6080       ?TableSetColumnSortDirection@ImGui@@YAXHH_N@Z 00000001800d7080 f   ImGui:imgui_tables.obj
 0001:000d6280       ?TableGetHoveredColumn@ImGui@@YAHXZ 00000001800d7280 f   ImGui:imgui_tables.obj
 0001:000d62d0       ?TableGetHeaderRowHeight@ImGui@@YAMXZ 00000001800d72d0 f   ImGui:imgui_tables.obj
 0001:000d63b0       ?TablePushBackgroundChannel@ImGui@@YAXXZ 00000001800d73b0 f   ImGui:imgui_tables.obj
 0001:000d6460       ?TablePopBackgroundChannel@ImGui@@YAXXZ 00000001800d7460 f   ImGui:imgui_tables.obj
 0001:000d6510       ?TableFindByID@ImGui@@YAPEAUImGuiTable@@I@Z 00000001800d7510 f   ImGui:imgui_tables.obj
 0001:000d6550       ?BeginTableEx@ImGui@@YA_NPEBDIHHAEBUImVec2@@M@Z 00000001800d7550 f   ImGui:imgui_tables.obj
 0001:000d7880       ?TableBeginInitMemory@ImGui@@YAXPEAUImGuiTable@@H@Z 00000001800d8880 f   ImGui:imgui_tables.obj
 0001:000d79d0       ?TableBeginApplyRequests@ImGui@@YAXPEAUImGuiTable@@@Z 00000001800d89d0 f   ImGui:imgui_tables.obj
 0001:000d7e50       ?TableSetupDrawChannels@ImGui@@YAXPEAUImGuiTable@@@Z 00000001800d8e50 f   ImGui:imgui_tables.obj
 0001:000d8180       ?TableUpdateLayout@ImGui@@YAXPEAUImGuiTable@@@Z 00000001800d9180 f   ImGui:imgui_tables.obj
 0001:000d9dd0       ?TableUpdateBorders@ImGui@@YAXPEAUImGuiTable@@@Z 00000001800dadd0 f   ImGui:imgui_tables.obj
 0001:000da1c0       ?TableUpdateColumnsWeightFromWidth@ImGui@@YAXPEAUImGuiTable@@@Z 00000001800db1c0 f   ImGui:imgui_tables.obj
 0001:000da300       ?TableDrawBorders@ImGui@@YAXPEAUImGuiTable@@@Z 00000001800db300 f   ImGui:imgui_tables.obj
 0001:000dabf0       ?TableDrawContextMenu@ImGui@@YAXPEAUImGuiTable@@@Z 00000001800dbbf0 f   ImGui:imgui_tables.obj
 0001:000dafb0       ?TableBeginContextMenuPopup@ImGui@@YA_NPEAUImGuiTable@@@Z 00000001800dbfb0 f   ImGui:imgui_tables.obj
 0001:000db040       ?TableMergeDrawChannels@ImGui@@YAXPEAUImGuiTable@@@Z 00000001800dc040 f   ImGui:imgui_tables.obj
 0001:000dba30       ?TableSortSpecsSanitize@ImGui@@YAXPEAUImGuiTable@@@Z 00000001800dca30 f   ImGui:imgui_tables.obj
 0001:000dbe50       ?TableSortSpecsBuild@ImGui@@YAXPEAUImGuiTable@@@Z 00000001800dce50 f   ImGui:imgui_tables.obj
 0001:000dc0a0       ?TableGetColumnNextSortDirection@ImGui@@YAHPEAUImGuiTableColumn@@@Z 00000001800dd0a0 f   ImGui:imgui_tables.obj
 0001:000dc150       ?TableFixColumnSortDirection@ImGui@@YAXPEAUImGuiTable@@PEAUImGuiTableColumn@@@Z 00000001800dd150 f   ImGui:imgui_tables.obj
 0001:000dc1f0       ?TableGetColumnWidthAuto@ImGui@@YAMPEAUImGuiTable@@PEAUImGuiTableColumn@@@Z 00000001800dd1f0 f   ImGui:imgui_tables.obj
 0001:000dc2f0       ?TableBeginRow@ImGui@@YAXPEAUImGuiTable@@@Z 00000001800dd2f0 f   ImGui:imgui_tables.obj
 0001:000dc4e0       ?TableEndRow@ImGui@@YAXPEAUImGuiTable@@@Z 00000001800dd4e0 f   ImGui:imgui_tables.obj
 0001:000dd1a0       ?TableBeginCell@ImGui@@YAXPEAUImGuiTable@@H@Z 00000001800de1a0 f   ImGui:imgui_tables.obj
 0001:000dd4b0       ?TableEndCell@ImGui@@YAXPEAUImGuiTable@@@Z 00000001800de4b0 f   ImGui:imgui_tables.obj
 0001:000dd600       ?TableGetCellBgRect@ImGui@@YA?AUImRect@@PEBUImGuiTable@@H@Z 00000001800de600 f   ImGui:imgui_tables.obj
 0001:000dd6e0       ?TableGetColumnName@ImGui@@YAPEBDPEBUImGuiTable@@H@Z 00000001800de6e0 f   ImGui:imgui_tables.obj
 0001:000dd780       ?TableGetColumnResizeID@ImGui@@YAIPEBUImGuiTable@@HH@Z 00000001800de780 f   ImGui:imgui_tables.obj
 0001:000dd7d0       ?TableGetMaxColumnWidth@ImGui@@YAMPEBUImGuiTable@@H@Z 00000001800de7d0 f   ImGui:imgui_tables.obj
 0001:000dd9c0       ?TableSetColumnWidthAutoSingle@ImGui@@YAXPEAUImGuiTable@@H@Z 00000001800de9c0 f   ImGui:imgui_tables.obj
 0001:000dda30       ?TableSetColumnWidthAutoAll@ImGui@@YAXPEAUImGuiTable@@@Z 00000001800dea30 f   ImGui:imgui_tables.obj
 0001:000ddac0       ?TableRemove@ImGui@@YAXPEAUImGuiTable@@@Z 00000001800deac0 f   ImGui:imgui_tables.obj
 0001:000ddb60       ?TableGcCompactTransientBuffers@ImGui@@YAXPEAUImGuiTable@@@Z 00000001800deb60 f   ImGui:imgui_tables.obj
 0001:000ddc60       ?TableGcCompactTransientBuffers@ImGui@@YAXPEAUImGuiTableTempData@@@Z 00000001800dec60 f   ImGui:imgui_tables.obj
 0001:000ddca0       ?TableGcCompactSettings@ImGui@@YAXXZ 00000001800deca0 f   ImGui:imgui_tables.obj
 0001:000dde30       ?TableLoadSettings@ImGui@@YAXPEAUImGuiTable@@@Z 00000001800dee30 f   ImGui:imgui_tables.obj
 0001:000de200       ?TableSaveSettings@ImGui@@YAXPEAUImGuiTable@@@Z 00000001800df200 f   ImGui:imgui_tables.obj
 0001:000de560       ?TableResetSettings@ImGui@@YAXPEAUImGuiTable@@@Z 00000001800df560 f   ImGui:imgui_tables.obj
 0001:000de5b0       ?TableGetBoundSettings@ImGui@@YAPEAUImGuiTableSettings@@PEAUImGuiTable@@@Z 00000001800df5b0 f   ImGui:imgui_tables.obj
 0001:000de630       ?TableSettingsAddSettingsHandler@ImGui@@YAXXZ 00000001800df630 f   ImGui:imgui_tables.obj
 0001:000de6b0       ?TableSettingsCreate@ImGui@@YAPEAUImGuiTableSettings@@IH@Z 00000001800df6b0 f   ImGui:imgui_tables.obj
 0001:000de720       ?TableSettingsFindByID@ImGui@@YAPEAUImGuiTableSettings@@I@Z 00000001800df720 f   ImGui:imgui_tables.obj
 0001:000de7a0       ?DebugNodeTable@ImGui@@YAXPEAUImGuiTable@@@Z 00000001800df7a0 f   ImGui:imgui_tables.obj
 0001:000df5b0       ?DebugNodeTableSettings@ImGui@@YAXPEAUImGuiTableSettings@@@Z 00000001800e05b0 f   ImGui:imgui_tables.obj
 0001:000e0aa0       ??$GetSpan@C@?$ImSpanAllocator@$02@@QEAAXHPEAU?$ImSpan@C@@@Z 00000001800e1aa0 f i ImGui:imgui_tables.obj
 0001:000e0aa0       ??$GetSpan@UImGuiTableCellData@@@?$ImSpanAllocator@$02@@QEAAXHPEAU?$ImSpan@UImGuiTableCellData@@@@@Z 00000001800e1aa0 f i ImGui:imgui_tables.obj
 0001:000e0aa0       ??$GetSpan@UImGuiTableColumn@@@?$ImSpanAllocator@$02@@QEAAXHPEAU?$ImSpan@UImGuiTableColumn@@@@@Z 00000001800e1aa0 f i ImGui:imgui_tables.obj
 0001:000e0b00       ??0?$ImSpan@C@@QEAA@XZ     00000001800e1b00 f i ImGui:imgui_tables.obj
 0001:000e0b00       ??0?$ImSpan@UImGuiTableCellData@@@@QEAA@XZ 00000001800e1b00 f i ImGui:imgui_tables.obj
 0001:000e0b00       ??0?$ImSpan@UImGuiTableColumn@@@@QEAA@XZ 00000001800e1b00 f i ImGui:imgui_tables.obj
 0001:000e0b30       ??0?$ImSpanAllocator@$02@@QEAA@XZ 00000001800e1b30 f i ImGui:imgui_tables.obj
 0001:000e0b60       ??0ImGuiOldColumnData@@QEAA@XZ 00000001800e1b60 f i ImGui:imgui_tables.obj
 0001:000e0ba0       ??0ImGuiOldColumns@@QEAA@XZ 00000001800e1ba0 f i ImGui:imgui_tables.obj
 0001:000e0c20       ??0ImGuiTable@@QEAA@XZ     00000001800e1c20 f i ImGui:imgui_tables.obj
 0001:000e0db0       ??0ImGuiTableColumn@@QEAA@XZ 00000001800e1db0 f i ImGui:imgui_tables.obj
 0001:000e0e80       ??0ImGuiTableColumnSettings@@QEAA@XZ 00000001800e1e80 f i ImGui:imgui_tables.obj
 0001:000e0f00       ??0ImGuiTableInstanceData@@QEAA@XZ 00000001800e1f00 f i ImGui:imgui_tables.obj
 0001:000e0f30       ??0ImGuiTableSettings@@QEAA@XZ 00000001800e1f30 f i ImGui:imgui_tables.obj
 0001:000e0f30       ??0ImGuiTableSortSpecs@@QEAA@XZ 00000001800e1f30 f i ImGui:imgui_tables.obj
 0001:000e0f60       ??0ImGuiTableTempData@@QEAA@XZ 00000001800e1f60 f i ImGui:imgui_tables.obj
 0001:000e1020       ??A?$ImSpan@C@@QEAAAEACH@Z 00000001800e2020 f i ImGui:imgui_tables.obj
 0001:000e1050       ??A?$ImSpan@UImGuiTableCellData@@@@QEAAAEAUImGuiTableCellData@@H@Z 00000001800e2050 f i ImGui:imgui_tables.obj
 0001:000e1080       ?Add@?$ImPool@UImGuiTable@@@@QEAAPEAUImGuiTable@@XZ 00000001800e2080 f i ImGui:imgui_tables.obj
 0001:000e11c0       ?ClearBit@?$ImBitArray@$0IE@$0A@@@QEAAXH@Z 00000001800e21c0 f i ImGui:imgui_tables.obj
 0001:000e11f0       ?GetArenaSizeInBytes@?$ImSpanAllocator@$02@@QEAAHXZ 00000001800e21f0 f i ImGui:imgui_tables.obj
 0001:000e1200       ?GetByKey@?$ImPool@UImGuiTable@@@@QEAAPEAUImGuiTable@@I@Z 00000001800e2200 f i ImGui:imgui_tables.obj
 0001:000e1270       ?GetIndex@?$ImPool@UImGuiTable@@@@QEBAHPEBUImGuiTable@@@Z 00000001800e2270 f i ImGui:imgui_tables.obj
 0001:000e12a0       ?GetOrAddByKey@?$ImPool@UImGuiTable@@@@QEAAPEAUImGuiTable@@I@Z 00000001800e22a0 f i ImGui:imgui_tables.obj
 0001:000e1320       ?GetSpanPtrBegin@?$ImSpanAllocator@$02@@QEAAPEAXH@Z 00000001800e2320 f i ImGui:imgui_tables.obj
 0001:000e1350       ?GetSpanPtrEnd@?$ImSpanAllocator@$02@@QEAAPEAXH@Z 00000001800e2350 f i ImGui:imgui_tables.obj
 0001:000e1390       ?ImBitArrayClearBit@@YAXPEAIH@Z 00000001800e2390 f i ImGui:imgui_tables.obj
 0001:000e13f0       ?Remove@?$ImPool@UImGuiTable@@@@QEAAXIH@Z 00000001800e23f0 f i ImGui:imgui_tables.obj
 0001:000e14a0       ?Remove@?$ImPool@UImGuiTable@@@@QEAAXIPEBUImGuiTable@@@Z 00000001800e24a0 f i ImGui:imgui_tables.obj
 0001:000e14e0       ?Reserve@?$ImSpanAllocator@$02@@QEAAXH_KH@Z 00000001800e24e0 f i ImGui:imgui_tables.obj
 0001:000e1570       ?SetArenaBasePtr@?$ImSpanAllocator@$02@@QEAAXPEAX@Z 00000001800e2570 f i ImGui:imgui_tables.obj
 0001:000e1590       ?SetBitRange@?$ImBitArray@$0IE@$0A@@@QEAAXHH@Z 00000001800e2590 f i ImGui:imgui_tables.obj
 0001:000e15d0       ?TableFixFlags@@YAHHPEAUImGuiWindow@@@Z 00000001800e25d0 f i ImGui:imgui_tables.obj
 0001:000e16d0       ?index_from_ptr@?$ImSpan@UImGuiTableColumn@@@@QEBAHPEBUImGuiTableColumn@@@Z 00000001800e26d0 f i ImGui:imgui_tables.obj
 0001:000e1710       ?push_back@?$ImVector@UImGuiOldColumnData@@@@QEAAXAEBUImGuiOldColumnData@@@Z 00000001800e2710 f i ImGui:imgui_tables.obj
 0001:000e1790       ?reserve@?$ImVector@UImGuiTable@@@@QEAAXH@Z 00000001800e2790 f i ImGui:imgui_tables.obj
 0001:000e1830       ?reserve@?$ImVector@UImGuiTableTempData@@@@QEAAXH@Z 00000001800e2830 f i ImGui:imgui_tables.obj
 0001:000e18c0       ?resize@?$ImVector@UImGuiTable@@@@QEAAXH@Z 00000001800e28c0 f i ImGui:imgui_tables.obj
 0001:000e1910       ?resize@?$ImVector@UImGuiTableTempData@@@@QEAAXHAEBUImGuiTableTempData@@@Z 00000001800e2910 f i ImGui:imgui_tables.obj
 0001:000e19b0       ??$_Set_ptr_rep_and_enable_shared@U?$Sink@VFileSink@g3@@@internal@g3@@@?$shared_ptr@U?$Sink@VFileSink@g3@@@internal@g3@@@std@@AEAAXQEAU?$Sink@VFileSink@g3@@@internal@g3@@QEAV_Ref_count_base@1@@Z 00000001800e29b0 f i g3log:logworker.obj
 0001:000e19b0       ??$_Set_ptr_rep_and_enable_shared@V?$promise@X@std@@@?$shared_ptr@V?$promise@X@std@@@std@@AEAAXQEAV?$promise@X@1@QEAV_Ref_count_base@1@@Z 00000001800e29b0 f i g3log:logworker.obj
 0001:000e19b0       ?set@?$ImSpan@C@@QEAAXPEAC0@Z 00000001800e29b0 f i ImGui:imgui_tables.obj
 0001:000e19b0       ?set@?$ImSpan@UImGuiTableCellData@@@@QEAAXPEAUImGuiTableCellData@@0@Z 00000001800e29b0 f i ImGui:imgui_tables.obj
 0001:000e19b0       ?set@?$ImSpan@UImGuiTableColumn@@@@QEAAXPEAUImGuiTableColumn@@0@Z 00000001800e29b0 f i ImGui:imgui_tables.obj
 0001:000e19e0       ?size@?$ImSpan@UImGuiTableColumn@@@@QEBAHXZ 00000001800e29e0 f i ImGui:imgui_tables.obj
 0001:000e1a10       ?swap@?$ImChunkStream@UImGuiTableSettings@@@@QEAAXAEAU1@@Z 00000001800e2a10 f i ImGui:imgui_tables.obj
 0001:000e1a40       ?wasFatal@internal@g3@@YA_NAEBULEVELS@@@Z 00000001800e2a40 f   g3log:loglevels.obj
 0001:000e1a80       ?logLevel@g3@@YA_NAEBULEVELS@@@Z 00000001800e2a80 f   g3log:loglevels.obj
 0001:000e1a90       ??0LogCapture@@QEAA@AEBULEVELS@@KPEBD@Z 00000001800e2a90 f   g3log:logcapture.obj
 0001:000e1b10       ??0LogCapture@@QEAA@PEBDH0AEBULEVELS@@0K0@Z 00000001800e2b10 f   g3log:logcapture.obj
 0001:000e1ce0       ??1LogCapture@@UEAA@XZ     00000001800e2ce0 f   g3log:logcapture.obj
 0001:000e1e90       ?capturef@LogCapture@@QEAAXPEBDZZ 00000001800e2e90 f   g3log:logcapture.obj
 0001:000e2050       ??$?6U?$char_traits@D@std@@@std@@YAAEAV?$basic_ostream@DU?$char_traits@D@std@@@0@AEAV10@D@Z 00000001800e3050 f i g3log:logcapture.obj
 0001:000e23e0       ??0?$basic_ostringstream@DU?$char_traits@D@std@@V?$allocator@D@2@@std@@QEAA@XZ 00000001800e33e0 f i g3log:logcapture.obj
 0001:000e24c0       ??1?$basic_ostringstream@DU?$char_traits@D@std@@V?$allocator@D@2@@std@@UEAA@XZ 00000001800e34c0 f i g3log:logcapture.obj
 0001:000e2550       ??_D?$basic_ostringstream@DU?$char_traits@D@std@@V?$allocator@D@2@@std@@QEAAXXZ 00000001800e3550 f i g3log:logcapture.obj
 0001:000e2588       ??_E?$basic_ostringstream@DU?$char_traits@D@std@@V?$allocator@D@2@@std@@$4PPPPPPPM@A@EAAPEAXI@Z 00000001800e3588 f i g3log:logcapture.obj
 0001:000e25a0       ??_E?$basic_ostringstream@DU?$char_traits@D@std@@V?$allocator@D@2@@std@@UEAAPEAXI@Z 00000001800e35a0 f i g3log:logcapture.obj
 0001:000e25a0       ??_G?$basic_ostringstream@DU?$char_traits@D@std@@V?$allocator@D@2@@std@@UEAAPEAXI@Z 00000001800e35a0 f i g3log:logcapture.obj
 0001:000e2600       ??_ELogCapture@@UEAAPEAXI@Z 00000001800e3600 f i g3log:logcapture.obj
 0001:000e2600       ??_GLogCapture@@UEAAPEAXI@Z 00000001800e3600 f i g3log:logcapture.obj
 0001:000e2640       ?str@?$basic_ostringstream@DU?$char_traits@D@std@@V?$allocator@D@2@@std@@QEGBA?AV?$basic_string@DU?$char_traits@D@std@@V?$allocator@D@2@@2@XZ 00000001800e3640 f i g3log:logcapture.obj
 0001:000e2690       _vsnprintf_s_l             00000001800e3690 f i g3log:logcapture.obj
 0001:000e2710       vsnprintf_s                00000001800e3710 f i g3log:logcapture.obj
 0001:000e2760       ??0LogWorkerImpl@g3@@QEAA@XZ 00000001800e3760 f   g3log:logworker.obj
 0001:000e27a0       ?bgSave@LogWorkerImpl@g3@@QEAAXU?$MoveOnCopy@V?$unique_ptr@ULogMessage@g3@@U?$default_delete@ULogMessage@g3@@@std@@@std@@@2@@Z 00000001800e37a0 f   g3log:logworker.obj
 0001:000e29c0       ?bgFatal@LogWorkerImpl@g3@@QEAAXU?$MoveOnCopy@V?$unique_ptr@UFatalMessage@g3@@U?$default_delete@UFatalMessage@g3@@@std@@@std@@@2@@Z 00000001800e39c0 f   g3log:logworker.obj
 0001:000e2df0       ?addWrappedSink@LogWorker@g3@@AEAAXV?$shared_ptr@USinkWrapper@internal@g3@@@std@@@Z 00000001800e3df0 f   g3log:logworker.obj
 0001:000e2eb0       ??1LogWorker@g3@@QEAA@XZ   00000001800e3eb0 f   g3log:logworker.obj
 0001:000e2f00       ?createLogWorker@LogWorker@g3@@SA?AV?$unique_ptr@VLogWorker@g3@@U?$default_delete@VLogWorker@g3@@@std@@@std@@XZ 00000001800e3f00 f   g3log:logworker.obj
 0001:000e2f80       ?addDefaultLogger@LogWorker@g3@@QEAA?AV?$unique_ptr@V?$SinkHandle@VFileSink@g3@@@g3@@U?$default_delete@V?$SinkHandle@VFileSink@g3@@@g3@@@std@@@std@@AEBV?$basic_string@DU?$char_traits@D@std@@V?$allocator@D@2@@4@00@Z 00000001800e3f80 f   g3log:logworker.obj
 0001:000e3000       ?save@LogWorker@g3@@QEAAXU?$MoveOnCopy@V?$unique_ptr@ULogMessage@g3@@U?$default_delete@ULogMessage@g3@@@std@@@std@@@2@@Z 00000001800e4000 f   g3log:logworker.obj
 0001:000e30c0       ?fatal@LogWorker@g3@@QEAAXU?$MoveOnCopy@V?$unique_ptr@UFatalMessage@g3@@U?$default_delete@UFatalMessage@g3@@@std@@@std@@@2@@Z 00000001800e40c0 f   g3log:logworker.obj
 0001:000e3c30       ??$?0$$V@?$_Compressed_pair@V?$allocator@V?$shared_ptr@USinkWrapper@internal@g3@@@std@@@std@@V?$_Vector_val@U?$_Simple_types@V?$shared_ptr@USinkWrapper@internal@g3@@@std@@@std@@@2@$00@std@@QEAA@U_Zero_then_variadic_args_t@1@@Z 00000001800e4c30 f i g3log:logworker.obj
 0001:000e3c60       ??$?0$$V@?$_Ref_count_obj2@V?$promise@X@std@@@std@@QEAA@XZ 00000001800e4c60 f i g3log:logworker.obj
 0001:000e3cb0       ??$?0AEAP8FileSink@g3@@EAAXU?$MoveOnCopy@ULogMessage@g3@@@1@@ZPEAV01@AEBU?$_Ph@$00@std@@@?$_Compressed_pair@P8FileSink@g3@@EAAXU?$MoveOnCopy@ULogMessage@g3@@@2@@ZV?$tuple@PEAVFileSink@g3@@U?$_Ph@$00@std@@@std@@$0A@@std@@QEAA@U_One_then_variadic_args_t@1@AEAP8FileSink@g3@@EAAXU?$MoveOnCopy@ULogMessage@g3@@@4@@Z$$QEAPEAV34@AEBU?$_Ph@$00@1@@Z 00000001800e4cb0 f i g3log:logworker.obj
 0001:000e3d10       ??$?0AEAPEAUFatalMessage@g3@@@?$_Compressed_pair@U?$default_delete@UFatalMessage@g3@@@std@@PEAUFatalMessage@g3@@$00@std@@QEAA@U_Zero_then_variadic_args_t@1@AEAPEAUFatalMessage@g3@@@Z 00000001800e4d10 f i g3log:g3log.obj
 0001:000e3d10       ??$?0AEAPEAULogMessage@g3@@@?$_Compressed_pair@U?$default_delete@ULogMessage@g3@@@std@@PEAULogMessage@g3@@$00@std@@QEAA@U_Zero_then_variadic_args_t@1@AEAPEAULogMessage@g3@@@Z 00000001800e4d10 f i g3log:g3log.obj
 0001:000e3d10       ??$?0AEAPEAV?$SinkHandle@VFileSink@g3@@@g3@@@?$_Compressed_pair@U?$default_delete@V?$SinkHandle@VFileSink@g3@@@g3@@@std@@PEAV?$SinkHandle@VFileSink@g3@@@g3@@$00@std@@QEAA@U_Zero_then_variadic_args_t@1@AEAPEAV?$SinkHandle@VFileSink@g3@@@g3@@@Z 00000001800e4d10 f i g3log:logworker.obj
 0001:000e3d10       ??$?0AEAPEAV?$basic_ofstream@DU?$char_traits@D@std@@@std@@@?$_Compressed_pair@U?$default_delete@V?$basic_ofstream@DU?$char_traits@D@std@@@std@@@std@@PEAV?$basic_ofstream@DU?$char_traits@D@std@@@2@$00@std@@QEAA@U_Zero_then_variadic_args_t@1@AEAPEAV?$basic_ofstream@DU?$char_traits@D@std@@@1@@Z 00000001800e4d10 f i g3log:filesink.obj
 0001:000e3d10       ??$?0AEAPEAVFileSink@g3@@@?$_Compressed_pair@U?$default_delete@VFileSink@g3@@@std@@PEAVFileSink@g3@@$00@std@@QEAA@U_Zero_then_variadic_args_t@1@AEAPEAVFileSink@g3@@@Z 00000001800e4d10 f i g3log:logworker.obj
 0001:000e3d10       ??$?0AEAPEAVLogWorker@g3@@@?$_Compressed_pair@U?$default_delete@VLogWorker@g3@@@std@@PEAVLogWorker@g3@@$00@std@@QEAA@U_Zero_then_variadic_args_t@1@AEAPEAVLogWorker@g3@@@Z 00000001800e4d10 f i g3log:logworker.obj
 0001:000e3d40       ??$?0AEBU?$MoveOnCopy@V?$packaged_task@$$A6AXXZ@std@@@g3@@$0A@@?$_Func_impl_no_alloc@U?$MoveOnCopy@V?$packaged_task@$$A6AXXZ@std@@@g3@@X$$V@std@@QEAA@AEBU?$MoveOnCopy@V?$packaged_task@$$A6AXXZ@std@@@g3@@@Z 00000001800e4d40 f i g3log:logworker.obj
 0001:000e3d40       ??$?0U?$MoveOnCopy@V?$packaged_task@$$A6AXXZ@std@@@g3@@$0A@@?$_Func_impl_no_alloc@U?$MoveOnCopy@V?$packaged_task@$$A6AXXZ@std@@@g3@@X$$V@std@@QEAA@$$QEAU?$MoveOnCopy@V?$packaged_task@$$A6AXXZ@std@@@g3@@@Z 00000001800e4d40 f i g3log:logworker.obj
 0001:000e3e30       ??$?0AEBV<lambda_1>@?1??removeAllSinks@LogWorker@g3@@QEAAXXZ@$0A@@?$_Func_impl_no_alloc@V<lambda_1>@?1??removeAllSinks@LogWorker@g3@@QEAAXXZ@X$$V@std@@QEAA@AEBV<lambda_1>@?1??removeAllSinks@LogWorker@g3@@QEAAXXZ@@Z 00000001800e4e30 f i g3log:logworker.obj
 0001:000e3e30       ??$?0V<lambda_1>@?1??removeAllSinks@LogWorker@g3@@QEAAXXZ@$0A@@?$_Func_impl_no_alloc@V<lambda_1>@?1??removeAllSinks@LogWorker@g3@@QEAAXXZ@X$$V@std@@QEAA@$$QEAV<lambda_1>@?1??removeAllSinks@LogWorker@g3@@QEAAXXZ@@Z 00000001800e4e30 f i g3log:logworker.obj
 0001:000e3ed0       ??$?0AEBV<lambda_1>@?1??send@?$Sink@VFileSink@g3@@@internal@g3@@UEAAXU?$MoveOnCopy@ULogMessage@g3@@@4@@Z@$0A@@?$_Func_impl_no_alloc@V<lambda_1>@?1??send@?$Sink@VFileSink@g3@@@internal@g3@@UEAAXU?$MoveOnCopy@ULogMessage@g3@@@5@@Z@X$$V@std@@QEAA@AEBV<lambda_1>@?1??send@?$Sink@VFileSink@g3@@@internal@g3@@UEAAXU?$MoveOnCopy@ULogMessage@g3@@@6@@Z@@Z 00000001800e4ed0 f i g3log:logworker.obj
 0001:000e3ed0       ??$?0V<lambda_1>@?1??send@?$Sink@VFileSink@g3@@@internal@g3@@UEAAXU?$MoveOnCopy@ULogMessage@g3@@@4@@Z@$0A@@?$_Func_impl_no_alloc@V<lambda_1>@?1??send@?$Sink@VFileSink@g3@@@internal@g3@@UEAAXU?$MoveOnCopy@ULogMessage@g3@@@5@@Z@X$$V@std@@QEAA@$$QEAV<lambda_1>@?1??send@?$Sink@VFileSink@g3@@@internal@g3@@UEAAXU?$MoveOnCopy@ULogMessage@g3@@@6@@Z@@Z 00000001800e4ed0 f i g3log:logworker.obj
 0001:000e3f20       ??$?0AEBV?$_Binder@U_Unforced@std@@AEAP8FileSink@g3@@EAAXU?$MoveOnCopy@ULogMessage@g3@@@4@@ZPEAV34@AEBU?$_Ph@$00@2@@std@@$0A@@?$_Func_impl_no_alloc@V?$_Binder@U_Unforced@std@@AEAP8FileSink@g3@@EAAXU?$MoveOnCopy@ULogMessage@g3@@@4@@ZPEAV34@AEBU?$_Ph@$00@2@@std@@XU?$MoveOnCopy@ULogMessage@g3@@@g3@@@std@@QEAA@AEBV?$_Binder@U_Unforced@std@@AEAP8FileSink@g3@@EAAXU?$MoveOnCopy@ULogMessage@g3@@@4@@ZPEAV34@AEBU?$_Ph@$00@2@@1@@Z 00000001800e4f20 f i g3log:logworker.obj
 0001:000e3f20       ??$?0V?$_Binder@U_Unforced@std@@AEAP8FileSink@g3@@EAAXU?$MoveOnCopy@ULogMessage@g3@@@4@@ZPEAV34@AEBU?$_Ph@$00@2@@std@@$0A@@?$_Func_impl_no_alloc@V?$_Binder@U_Unforced@std@@AEAP8FileSink@g3@@EAAXU?$MoveOnCopy@ULogMessage@g3@@@4@@ZPEAV34@AEBU?$_Ph@$00@2@@std@@XU?$MoveOnCopy@ULogMessage@g3@@@g3@@@std@@QEAA@$$QEAV?$_Binder@U_Unforced@std@@AEAP8FileSink@g3@@EAAXU?$MoveOnCopy@ULogMessage@g3@@@4@@ZPEAV34@AEBU?$_Ph@$00@2@@1@@Z 00000001800e4f20 f i g3log:logworker.obj
 0001:000e3f70       ??$?0P8FileSink@g3@@EAAXU?$MoveOnCopy@ULogMessage@g3@@@1@@Z@?$Sink@VFileSink@g3@@@internal@g3@@QEAA@V?$unique_ptr@VFileSink@g3@@U?$default_delete@VFileSink@g3@@@std@@@std@@P8FileSink@2@EAAXU?$MoveOnCopy@ULogMessage@g3@@@2@@Z@Z 00000001800e4f70 f i g3log:logworker.obj
 0001:000e4040       ??$?0PEAVFileSink@g3@@@?$_Tuple_val@PEAVFileSink@g3@@@std@@QEAA@$$QEAPEAVFileSink@g3@@@Z 00000001800e5040 f i g3log:logworker.obj
 0001:000e4060       ??$?0PEAVFileSink@g3@@AEBU?$_Ph@$00@std@@$0A@@?$tuple@PEAVFileSink@g3@@U?$_Ph@$00@std@@@std@@QEAA@$$QEAPEAVFileSink@g3@@AEBU?$_Ph@$00@1@@Z 00000001800e5060 f i g3log:logworker.obj
 0001:000e40a0       ??$?0U?$MoveOnCopy@V?$packaged_task@$$A6AXXZ@std@@@g3@@$0A@@?$function@$$A6AXXZ@std@@QEAA@$$QEAU?$MoveOnCopy@V?$packaged_task@$$A6AXXZ@std@@@g3@@@Z 00000001800e50a0 f i g3log:logworker.obj
 0001:000e40e0       ??$?0U?$Sink@VFileSink@g3@@@internal@g3@@$0A@@?$shared_ptr@USinkWrapper@internal@g3@@@std@@QEAA@AEBV?$shared_ptr@U?$Sink@VFileSink@g3@@@internal@g3@@@1@@Z 00000001800e50e0 f i g3log:logworker.obj
 0001:000e40e0       ??0?$shared_ptr@USinkWrapper@internal@g3@@@std@@QEAA@AEBV01@@Z 00000001800e50e0 f i g3log:logworker.obj
 0001:000e4120       ??$?0U?$Sink@VFileSink@g3@@@internal@g3@@$0A@@?$weak_ptr@U?$Sink@VFileSink@g3@@@internal@g3@@@std@@QEAA@AEBV?$shared_ptr@U?$Sink@VFileSink@g3@@@internal@g3@@@1@@Z 00000001800e5120 f i g3log:logworker.obj
 0001:000e4160       ??$?0U?$default_delete@UFatalMessage@g3@@@std@@$0A@@?$unique_ptr@UFatalMessage@g3@@U?$default_delete@UFatalMessage@g3@@@std@@@std@@QEAA@$$QEAV01@@Z 00000001800e5160 f i g3log:logworker.obj
 0001:000e4160       ??$?0U?$default_delete@ULogMessage@g3@@@std@@$0A@@?$unique_ptr@ULogMessage@g3@@U?$default_delete@ULogMessage@g3@@@std@@@std@@QEAA@$$QEAV01@@Z 00000001800e5160 f i g3log:logworker.obj
 0001:000e4160       ??$?0U?$default_delete@VFileSink@g3@@@std@@$0A@@?$unique_ptr@VFileSink@g3@@U?$default_delete@VFileSink@g3@@@std@@@std@@QEAA@$$QEAV01@@Z 00000001800e5160 f i g3log:logworker.obj
 0001:000e41d0       ??$?0U?$default_delete@UFatalMessage@g3@@@std@@PEAUFatalMessage@g3@@@?$_Compressed_pair@U?$default_delete@UFatalMessage@g3@@@std@@PEAUFatalMessage@g3@@$00@std@@QEAA@U_One_then_variadic_args_t@1@$$QEAU?$default_delete@UFatalMessage@g3@@@1@$$QEAPEAUFatalMessage@g3@@@Z 00000001800e51d0 f i g3log:logworker.obj
 0001:000e41d0       ??$?0U?$default_delete@ULogMessage@g3@@@std@@PEAULogMessage@g3@@@?$_Compressed_pair@U?$default_delete@ULogMessage@g3@@@std@@PEAULogMessage@g3@@$00@std@@QEAA@U_One_then_variadic_args_t@1@$$QEAU?$default_delete@ULogMessage@g3@@@1@$$QEAPEAULogMessage@g3@@@Z 00000001800e51d0 f i g3log:logworker.obj
 0001:000e41d0       ??$?0U?$default_delete@VFileSink@g3@@@std@@PEAVFileSink@g3@@@?$_Compressed_pair@U?$default_delete@VFileSink@g3@@@std@@PEAVFileSink@g3@@$00@std@@QEAA@U_One_then_variadic_args_t@1@$$QEAU?$default_delete@VFileSink@g3@@@1@$$QEAPEAVFileSink@g3@@@Z 00000001800e51d0 f i g3log:logworker.obj
 0001:000e4200       ??$?0U?$default_delete@UFatalMessage@g3@@@std@@PEAUFatalMessage@g3@@@?$_Compressed_pair@U?$default_delete@ULogMessage@g3@@@std@@PEAULogMessage@g3@@$00@std@@QEAA@U_One_then_variadic_args_t@1@$$QEAU?$default_delete@UFatalMessage@g3@@@1@$$QEAPEAUFatalMessage@g3@@@Z 00000001800e5200 f i g3log:logworker.obj
 0001:000e4240       ??$?0U?$default_delete@UFatalMessage@g3@@@std@@$0A@@?$unique_ptr@UFatalMessage@g3@@U?$default_delete@UFatalMessage@g3@@@std@@@std@@QEAA@PEAUFatalMessage@g3@@@Z 00000001800e5240 f i g3log:g3log.obj
 0001:000e4240       ??$?0U?$default_delete@ULogMessage@g3@@@std@@$0A@@?$unique_ptr@ULogMessage@g3@@U?$default_delete@ULogMessage@g3@@@std@@@std@@QEAA@PEAULogMessage@g3@@@Z 00000001800e5240 f i g3log:g3log.obj
 0001:000e4240       ??$?0U?$default_delete@V?$SinkHandle@VFileSink@g3@@@g3@@@std@@$0A@@?$unique_ptr@V?$SinkHandle@VFileSink@g3@@@g3@@U?$default_delete@V?$SinkHandle@VFileSink@g3@@@g3@@@std@@@std@@QEAA@PEAV?$SinkHandle@VFileSink@g3@@@g3@@@Z 00000001800e5240 f i g3log:logworker.obj
 0001:000e4240       ??$?0U?$default_delete@V?$basic_ofstream@DU?$char_traits@D@std@@@std@@@std@@$0A@@?$unique_ptr@V?$basic_ofstream@DU?$char_traits@D@std@@@std@@U?$default_delete@V?$basic_ofstream@DU?$char_traits@D@std@@@std@@@2@@std@@QEAA@PEAV?$basic_ofstream@DU?$char_traits@D@std@@@1@@Z 00000001800e5240 f i g3log:filesink.obj
 0001:000e4240       ??$?0U?$default_delete@VFileSink@g3@@@std@@$0A@@?$unique_ptr@VFileSink@g3@@U?$default_delete@VFileSink@g3@@@std@@@std@@QEAA@PEAVFileSink@g3@@@Z 00000001800e5240 f i g3log:logworker.obj
 0001:000e4240       ??$?0U?$default_delete@VLogWorker@g3@@@std@@$0A@@?$unique_ptr@VLogWorker@g3@@U?$default_delete@VLogWorker@g3@@@std@@@std@@QEAA@PEAVLogWorker@g3@@@Z 00000001800e5240 f i g3log:logworker.obj
 0001:000e4280       ??$?0UFatalMessage@g3@@$0A@@?$default_delete@ULogMessage@g3@@@std@@QEAA@AEBU?$default_delete@UFatalMessage@g3@@@1@@Z 00000001800e5280 f i g3log:logworker.obj
 0001:000e4280       ??$_Fix@V?$tuple@$$QEAU?$MoveOnCopy@ULogMessage@g3@@@g3@@@std@@@?$_Select_fixer@PEAVFileSink@g3@@$0A@$0A@$0A@@std@@SAAEAPEAVFileSink@g3@@AEAPEAV23@$$QEAV?$tuple@$$QEAU?$MoveOnCopy@ULogMessage@g3@@@g3@@@1@@Z 00000001800e5280 f i g3log:logworker.obj
 0001:000e4290       ??$?0UFatalMessage@g3@@U?$default_delete@UFatalMessage@g3@@@std@@$0A@@?$unique_ptr@ULogMessage@g3@@U?$default_delete@ULogMessage@g3@@@std@@@std@@QEAA@$$QEAV?$unique_ptr@UFatalMessage@g3@@U?$default_delete@UFatalMessage@g3@@@std@@@1@@Z 00000001800e5290 f i g3log:logworker.obj
 0001:000e4300       ??$?0U_Exact_args_t@std@@PEAVFileSink@g3@@AEBU?$_Ph@$00@1@$0A@@?$tuple@PEAVFileSink@g3@@U?$_Ph@$00@std@@@std@@QEAA@U_Exact_args_t@1@$$QEAPEAVFileSink@g3@@AEBU?$_Ph@$00@1@@Z 00000001800e5300 f i g3log:logworker.obj
 0001:000e4560       ??$?0V<lambda_1>@?1??removeAllSinks@LogWorker@g3@@QEAAXXZ@$0A@@?$function@$$A6AXXZ@std@@QEAA@$$QEAV<lambda_1>@?1??removeAllSinks@LogWorker@g3@@QEAAXXZ@@Z 00000001800e5560 f i g3log:logworker.obj
 0001:000e45a0       ??$?0V<lambda_1>@?1??removeAllSinks@LogWorker@g3@@QEAAXXZ@$0A@@?$packaged_task@$$A6AXXZ@std@@QEAA@$$QEAV<lambda_1>@?1??removeAllSinks@LogWorker@g3@@QEAAXXZ@@Z 00000001800e55a0 f i g3log:logworker.obj
 0001:000e4620       ??$?0V<lambda_1>@?1??removeAllSinks@LogWorker@g3@@QEAAXXZ@@?$_Packaged_state@$$A6AXXZ@std@@QEAA@$$QEAV<lambda_1>@?1??removeAllSinks@LogWorker@g3@@QEAAXXZ@@Z 00000001800e5620 f i g3log:logworker.obj
 0001:000e4710       ??$?0V<lambda_1>@?1??send@?$Sink@VFileSink@g3@@@internal@g3@@UEAAXU?$MoveOnCopy@ULogMessage@g3@@@4@@Z@$0A@@?$function@$$A6AXXZ@std@@QEAA@$$QEAV<lambda_1>@?1??send@?$Sink@VFileSink@g3@@@internal@g3@@UEAAXU?$MoveOnCopy@ULogMessage@g3@@@6@@Z@@Z 00000001800e5710 f i g3log:logworker.obj
 0001:000e4750       ??$?0V?$_Binder@U_Unforced@std@@AEAP8FileSink@g3@@EAAXU?$MoveOnCopy@ULogMessage@g3@@@4@@ZPEAV34@AEBU?$_Ph@$00@2@@std@@$0A@@?$function@$$A6AXU?$MoveOnCopy@ULogMessage@g3@@@g3@@@Z@std@@QEAA@$$QEAV?$_Binder@U_Unforced@std@@AEAP8FileSink@g3@@EAAXU?$MoveOnCopy@ULogMessage@g3@@@4@@ZPEAV34@AEBU?$_Ph@$00@2@@1@@Z 00000001800e5750 f i g3log:logworker.obj
 0001:000e4790       ??$?0V?$unique_ptr@VFileSink@g3@@U?$default_delete@VFileSink@g3@@@std@@@std@@AEAP8FileSink@g3@@EAAXU?$MoveOnCopy@ULogMessage@g3@@@3@@Z@?$_Ref_count_obj2@U?$Sink@VFileSink@g3@@@internal@g3@@@std@@QEAA@$$QEAV?$unique_ptr@VFileSink@g3@@U?$default_delete@VFileSink@g3@@@std@@@1@AEAP8FileSink@g3@@EAAXU?$MoveOnCopy@ULogMessage@g3@@@4@@Z@Z 00000001800e5790 f i g3log:logworker.obj
 0001:000e4800       ??$?CUSinkWrapper@internal@g3@@$0A@@?$shared_ptr@USinkWrapper@internal@g3@@@std@@QEBAPEAUSinkWrapper@internal@g3@@XZ 00000001800e5800 f i g3log:logworker.obj
 0001:000e4800       ??$?CV?$promise@X@std@@$0A@@?$shared_ptr@V?$promise@X@std@@@std@@QEBAPEAV?$promise@X@1@XZ 00000001800e5800 f i g3log:logworker.obj
 0001:000e4820       ??$?RU?$MoveOnCopy@ULogMessage@g3@@@g3@@@?$_Binder@U_Unforced@std@@AEAP8FileSink@g3@@EAAXU?$MoveOnCopy@ULogMessage@g3@@@4@@ZPEAV34@AEBU?$_Ph@$00@2@@std@@QEAAX$$QEAU?$MoveOnCopy@ULogMessage@g3@@@g3@@@Z 00000001800e5820 f i g3log:logworker.obj
 0001:000e48d0       ??$_Call@AEAP8FileSink@g3@@EAAXU?$MoveOnCopy@ULogMessage@g3@@@2@@ZAEAPEAV12@U32@@?$_Invoker_ret@U_Unforced@std@@@std@@SAXAEAP8FileSink@g3@@EAAXU?$MoveOnCopy@ULogMessage@g3@@@3@@ZAEAPEAV23@$$QEAU43@@Z 00000001800e58d0 f i g3log:logworker.obj
 0001:000e4900       ??$_Call@AEAU?$MoveOnCopy@V?$packaged_task@$$A6AXXZ@std@@@g3@@$$V@?$_Invoker_ret@X@std@@SAXAEAU?$MoveOnCopy@V?$packaged_task@$$A6AXXZ@std@@@g3@@@Z 00000001800e5900 f i g3log:logworker.obj
 0001:000e4960       ??$_Call@AEAV<lambda_1>@?1??removeAllSinks@LogWorker@g3@@QEAAXXZ@$$V@?$_Invoker_ret@X@std@@SAXAEAV<lambda_1>@?1??removeAllSinks@LogWorker@g3@@QEAAXXZ@@Z 00000001800e5960 f i g3log:logworker.obj
 0001:000e49a0       ??$_Call@AEAV<lambda_1>@?1??send@?$Sink@VFileSink@g3@@@internal@g3@@UEAAXU?$MoveOnCopy@ULogMessage@g3@@@5@@Z@$$V@?$_Invoker_ret@X@std@@SAXAEAV<lambda_1>@?1??send@?$Sink@VFileSink@g3@@@internal@g3@@UEAAXU?$MoveOnCopy@ULogMessage@g3@@@6@@Z@@Z 00000001800e59a0 f i g3log:logworker.obj
 0001:000e49c0       ??$_Call@AEAV?$_Binder@U_Unforced@std@@AEAP8FileSink@g3@@EAAXU?$MoveOnCopy@ULogMessage@g3@@@4@@ZPEAV34@AEBU?$_Ph@$00@2@@std@@U?$MoveOnCopy@ULogMessage@g3@@@g3@@@?$_Invoker_ret@X@std@@SAXAEAV?$_Binder@U_Unforced@std@@AEAP8FileSink@g3@@EAAXU?$MoveOnCopy@ULogMessage@g3@@@4@@ZPEAV34@AEBU?$_Ph@$00@2@@1@$$QEAU?$MoveOnCopy@ULogMessage@g3@@@g3@@@Z 00000001800e59c0 f i g3log:logworker.obj
 0001:000e49f0       ??$_Call_binder@U_Unforced@std@@$0A@$00P8FileSink@g3@@EAAXU?$MoveOnCopy@ULogMessage@g3@@@4@@ZV?$tuple@PEAVFileSink@g3@@U?$_Ph@$00@std@@@2@V?$tuple@$$QEAU?$MoveOnCopy@ULogMessage@g3@@@g3@@@2@@std@@YAXU?$_Invoker_ret@U_Unforced@std@@@0@U?$integer_sequence@_K$0A@$00@0@AEAP8FileSink@g3@@EAAXU?$MoveOnCopy@ULogMessage@g3@@@4@@ZAEAV?$tuple@PEAVFileSink@g3@@U?$_Ph@$00@std@@@0@$$QEAV?$tuple@$$QEAU?$MoveOnCopy@ULogMessage@g3@@@g3@@@0@@Z 00000001800e59f0 f i g3log:logworker.obj
 0001:000e4a60       ??$_Construct_in_place@U?$Sink@VFileSink@g3@@@internal@g3@@V?$unique_ptr@VFileSink@g3@@U?$default_delete@VFileSink@g3@@@std@@@std@@AEAP8FileSink@3@EAAXU?$MoveOnCopy@ULogMessage@g3@@@3@@Z@std@@YAXAEAU?$Sink@VFileSink@g3@@@internal@g3@@$$QEAV?$unique_ptr@VFileSink@g3@@U?$default_delete@VFileSink@g3@@@std@@@0@AEAP8FileSink@3@EAAXU?$MoveOnCopy@ULogMessage@g3@@@3@@Z@Z 00000001800e5a60 f i g3log:logworker.obj
 0001:000e4b10       ??$_Construct_in_place@V?$promise@X@std@@$$V@std@@YAXAEAV?$promise@X@0@@Z 00000001800e5b10 f i g3log:logworker.obj
 0001:000e4b70       ??$_Construct_in_place@V?$shared_ptr@USinkWrapper@internal@g3@@@std@@AEBV12@@std@@YAXAEAV?$shared_ptr@USinkWrapper@internal@g3@@@0@AEBV10@@Z 00000001800e5b70 f i g3log:logworker.obj
 0001:000e4be0       ??$_Copy_construct_from@U?$Sink@VFileSink@g3@@@internal@g3@@@?$_Ptr_base@U?$Sink@VFileSink@g3@@@internal@g3@@@std@@IEAAXAEBV?$shared_ptr@U?$Sink@VFileSink@g3@@@internal@g3@@@1@@Z 00000001800e5be0 f i g3log:logworker.obj
 0001:000e4be0       ??$_Copy_construct_from@U?$Sink@VFileSink@g3@@@internal@g3@@@?$_Ptr_base@USinkWrapper@internal@g3@@@std@@IEAAXAEBV?$shared_ptr@U?$Sink@VFileSink@g3@@@internal@g3@@@1@@Z 00000001800e5be0 f i g3log:logworker.obj
 0001:000e4be0       ??$_Copy_construct_from@USinkWrapper@internal@g3@@@?$_Ptr_base@USinkWrapper@internal@g3@@@std@@IEAAXAEBV?$shared_ptr@USinkWrapper@internal@g3@@@1@@Z 00000001800e5be0 f i g3log:logworker.obj
 0001:000e4c20       ??$_Destroy_in_place@U?$Sink@VFileSink@g3@@@internal@g3@@@std@@YAXAEAU?$Sink@VFileSink@g3@@@internal@g3@@@Z 00000001800e5c20 f i g3log:logworker.obj
 0001:000e4c50       ??$_Destroy_in_place@V?$promise@X@std@@@std@@YAXAEAV?$promise@X@0@@Z 00000001800e5c50 f i g3log:logworker.obj
 0001:000e4c70       ??$_Destroy_range@V?$allocator@V?$shared_ptr@USinkWrapper@internal@g3@@@std@@@std@@@std@@YAXPEAV?$shared_ptr@USinkWrapper@internal@g3@@@0@QEAV10@AEAV?$allocator@V?$shared_ptr@USinkWrapper@internal@g3@@@std@@@0@@Z 00000001800e5c70 f i g3log:logworker.obj
 0001:000e4cc0       ??$_Emplace_back@V?$shared_ptr@USinkWrapper@internal@g3@@@std@@@?$_Uninitialized_backout_al@V?$allocator@V?$shared_ptr@USinkWrapper@internal@g3@@@std@@@std@@@std@@QEAAX$$QEAV?$shared_ptr@USinkWrapper@internal@g3@@@1@@Z 00000001800e5cc0 f i g3log:logworker.obj
 0001:000e4d20       ??$_Emplace_back_with_unused_capacity@AEBV?$shared_ptr@USinkWrapper@internal@g3@@@std@@@?$vector@V?$shared_ptr@USinkWrapper@internal@g3@@@std@@V?$allocator@V?$shared_ptr@USinkWrapper@internal@g3@@@std@@@2@@std@@AEAAAEAV?$shared_ptr@USinkWrapper@internal@g3@@@1@AEBV21@@Z 00000001800e5d20 f i g3log:logworker.obj
 0001:000e4da0       ??$_Emplace_one_at_back@AEBV?$shared_ptr@USinkWrapper@internal@g3@@@std@@@?$vector@V?$shared_ptr@USinkWrapper@internal@g3@@@std@@V?$allocator@V?$shared_ptr@USinkWrapper@internal@g3@@@std@@@2@@std@@AEAAAEAV?$shared_ptr@USinkWrapper@internal@g3@@@1@AEBV21@@Z 00000001800e5da0 f i g3log:logworker.obj
 0001:000e4e10       ??$_Emplace_reallocate@AEBV?$shared_ptr@USinkWrapper@internal@g3@@@std@@@?$vector@V?$shared_ptr@USinkWrapper@internal@g3@@@std@@V?$allocator@V?$shared_ptr@USinkWrapper@internal@g3@@@std@@@2@@std@@AEAAPEAV?$shared_ptr@USinkWrapper@internal@g3@@@1@QEAV21@AEBV21@@Z 00000001800e5e10 f i g3log:logworker.obj
 0001:000e5010       ??$_Emplace_result@H@?$_Associated_state@H@std@@QEAAX$$QEAH@Z 00000001800e6010 f i g3log:logworker.obj
 0001:000e5030       ??$_Fix_arg@PEAVFileSink@g3@@V?$tuple@$$QEAU?$MoveOnCopy@ULogMessage@g3@@@g3@@@std@@@std@@YAAEAPEAVFileSink@g3@@AEAPEAV12@$$QEAV?$tuple@$$QEAU?$MoveOnCopy@ULogMessage@g3@@@g3@@@0@@Z 00000001800e6030 f i g3log:logworker.obj
 0001:000e5060       ??$_Atomic_reinterpret_as@_J_K@std@@YA_JAEB_K@Z 00000001800e6060 f i g3log:g3log.obj
 0001:000e5060       ??$_Get_unwrapped@AEBQEAV?$shared_ptr@USinkWrapper@internal@g3@@@std@@@std@@YA?A_TAEBQEAV?$shared_ptr@USinkWrapper@internal@g3@@@0@@Z 00000001800e6060 f i g3log:logworker.obj
 0001:000e5060       ??C?$unique_ptr@UFatalMessage@g3@@U?$default_delete@UFatalMessage@g3@@@std@@@std@@QEBAPEAUFatalMessage@g3@@XZ 00000001800e6060 f i g3log:logworker.obj
 0001:000e5060       ??C?$unique_ptr@ULogMessage@g3@@U?$default_delete@ULogMessage@g3@@@std@@@std@@QEBAPEAULogMessage@g3@@XZ 00000001800e6060 f i g3log:logworker.obj
 0001:000e5060       ??D?$unique_ptr@ULogMessage@g3@@U?$default_delete@ULogMessage@g3@@@std@@@std@@QEBAAEAULogMessage@g3@@XZ 00000001800e6060 f i g3log:logworker.obj
 0001:000e5060       ?_Ptr@?$_State_manager@H@std@@QEBAPEAV?$_Associated_state@H@2@XZ 00000001800e6060 f i g3log:logworker.obj
 0001:000e5060       ?_Unchecked_begin@?$vector@V?$shared_ptr@USinkWrapper@internal@g3@@@std@@V?$allocator@V?$shared_ptr@USinkWrapper@internal@g3@@@std@@@2@@std@@QEAAPEAV?$shared_ptr@USinkWrapper@internal@g3@@@2@XZ 00000001800e6060 f i g3log:logworker.obj
 0001:000e5060       ?begin@?$initializer_list@U?$pair@$$CBKV?$basic_string@DU?$char_traits@D@std@@V?$allocator@D@2@@std@@@std@@@std@@QEBAPEBU?$pair@$$CBKV?$basic_string@DU?$char_traits@D@std@@V?$allocator@D@2@@std@@@2@XZ 00000001800e6060 f i g3log:stacktrace_windows.obj
 0001:000e5060       ?get@?$_Ptr_base@USinkWrapper@internal@g3@@@std@@IEBAPEAUSinkWrapper@internal@g3@@XZ 00000001800e6060 f i g3log:logworker.obj
 0001:000e5060       ?get@?$_Ptr_base@V?$promise@X@std@@@std@@IEBAPEAV?$promise@X@2@XZ 00000001800e6060 f i g3log:logworker.obj
 0001:000e5060       ?get@?$unique_ptr@ULogMessage@g3@@U?$default_delete@ULogMessage@g3@@@std@@@std@@QEBAPEAULogMessage@g3@@XZ 00000001800e6060 f i g3log:logworker.obj
 0001:000e5060       ?get@?$unique_ptr@V?$basic_ofstream@DU?$char_traits@D@std@@@std@@U?$default_delete@V?$basic_ofstream@DU?$char_traits@D@std@@@std@@@2@@std@@QEBAPEAV?$basic_ofstream@DU?$char_traits@D@std@@@2@XZ 00000001800e6060 f i g3log:filesink.obj
 0001:000e5060       ?get@?$unique_ptr@VFileSink@g3@@U?$default_delete@VFileSink@g3@@@std@@@std@@QEBAPEAVFileSink@g3@@XZ 00000001800e6060 f i g3log:logworker.obj
 0001:000e5070       ??$_Global_new@V?$_Func_impl_no_alloc@U?$MoveOnCopy@V?$packaged_task@$$A6AXXZ@std@@@g3@@X$$V@std@@AEBU?$MoveOnCopy@V?$packaged_task@$$A6AXXZ@std@@@g3@@@std@@YAPEAV?$_Func_impl_no_alloc@U?$MoveOnCopy@V?$packaged_task@$$A6AXXZ@std@@@g3@@X$$V@0@AEBU?$MoveOnCopy@V?$packaged_task@$$A6AXXZ@std@@@g3@@@Z 00000001800e6070 f i g3log:logworker.obj
 0001:000e5070       ??$_Global_new@V?$_Func_impl_no_alloc@U?$MoveOnCopy@V?$packaged_task@$$A6AXXZ@std@@@g3@@X$$V@std@@U?$MoveOnCopy@V?$packaged_task@$$A6AXXZ@std@@@g3@@@std@@YAPEAV?$_Func_impl_no_alloc@U?$MoveOnCopy@V?$packaged_task@$$A6AXXZ@std@@@g3@@X$$V@0@$$QEAU?$MoveOnCopy@V?$packaged_task@$$A6AXXZ@std@@@g3@@@Z 00000001800e6070 f i g3log:logworker.obj
 0001:000e52a0       ??$_Global_new@V?$_Func_impl_no_alloc@V<lambda_1>@?1??send@?$Sink@VFileSink@g3@@@internal@g3@@UEAAXU?$MoveOnCopy@ULogMessage@g3@@@5@@Z@X$$V@std@@AEBV<lambda_1>@?1??send@?$Sink@VFileSink@g3@@@internal@g3@@UEAAXU?$MoveOnCopy@ULogMessage@g3@@@7@@Z@@std@@YAPEAV?$_Func_impl_no_alloc@V<lambda_1>@?1??send@?$Sink@VFileSink@g3@@@internal@g3@@UEAAXU?$MoveOnCopy@ULogMessage@g3@@@5@@Z@X$$V@0@AEBV<lambda_1>@?1??send@?$Sink@VFileSink@g3@@@internal@g3@@UEAAXU?$MoveOnCopy@ULogMessage@g3@@@6@@Z@@Z 00000001800e62a0 f i g3log:logworker.obj
 0001:000e52a0       ??$_Global_new@V?$_Func_impl_no_alloc@V<lambda_1>@?1??send@?$Sink@VFileSink@g3@@@internal@g3@@UEAAXU?$MoveOnCopy@ULogMessage@g3@@@5@@Z@X$$V@std@@V<lambda_1>@?1??send@?$Sink@VFileSink@g3@@@internal@g3@@UEAAXU?$MoveOnCopy@ULogMessage@g3@@@7@@Z@@std@@YAPEAV?$_Func_impl_no_alloc@V<lambda_1>@?1??send@?$Sink@VFileSink@g3@@@internal@g3@@UEAAXU?$MoveOnCopy@ULogMessage@g3@@@5@@Z@X$$V@0@$$QEAV<lambda_1>@?1??send@?$Sink@VFileSink@g3@@@internal@g3@@UEAAXU?$MoveOnCopy@ULogMessage@g3@@@6@@Z@@Z 00000001800e62a0 f i g3log:logworker.obj
 0001:000e5310       ??$_Immortalize_memcpy_image@V_Future_error_category2@std@@@std@@YAAEBV_Future_error_category2@0@XZ 00000001800e6310 f i g3log:logworker.obj
 0001:000e5320       ??$_Move_construct_from@USinkWrapper@internal@g3@@@?$_Ptr_base@USinkWrapper@internal@g3@@@std@@IEAAX$$QEAV01@@Z 00000001800e6320 f i g3log:logworker.obj
 0001:000e5370       ??$_Reset@U?$MoveOnCopy@V?$packaged_task@$$A6AXXZ@std@@@g3@@@?$_Func_class@X$$V@std@@IEAAX$$QEAU?$MoveOnCopy@V?$packaged_task@$$A6AXXZ@std@@@g3@@@Z 00000001800e6370 f i g3log:logworker.obj
 0001:000e5450       ??$_Reset@V<lambda_1>@?1??removeAllSinks@LogWorker@g3@@QEAAXXZ@@?$_Func_class@X$$V@std@@IEAAX$$QEAV<lambda_1>@?1??removeAllSinks@LogWorker@g3@@QEAAXXZ@@Z 00000001800e6450 f i g3log:logworker.obj
 0001:000e54f0       ??$_Reset@V<lambda_1>@?1??send@?$Sink@VFileSink@g3@@@internal@g3@@UEAAXU?$MoveOnCopy@ULogMessage@g3@@@5@@Z@@?$_Func_class@X$$V@std@@IEAAX$$QEAV<lambda_1>@?1??send@?$Sink@VFileSink@g3@@@internal@g3@@UEAAXU?$MoveOnCopy@ULogMessage@g3@@@6@@Z@@Z 00000001800e64f0 f i g3log:logworker.obj
 0001:000e5530       ??$_Reset@V?$_Binder@U_Unforced@std@@AEAP8FileSink@g3@@EAAXU?$MoveOnCopy@ULogMessage@g3@@@4@@ZPEAV34@AEBU?$_Ph@$00@2@@std@@@?$_Func_class@XU?$MoveOnCopy@ULogMessage@g3@@@g3@@@std@@IEAAX$$QEAV?$_Binder@U_Unforced@std@@AEAP8FileSink@g3@@EAAXU?$MoveOnCopy@ULogMessage@g3@@@4@@ZPEAV34@AEBU?$_Ph@$00@2@@1@@Z 00000001800e6530 f i g3log:logworker.obj
 0001:000e5590       ??$_Test_callable@$$A6AXU?$MoveOnCopy@V?$unique_ptr@UFatalMessage@g3@@U?$default_delete@UFatalMessage@g3@@@std@@@std@@@g3@@@Z@std@@YA_NA6AXU?$MoveOnCopy@V?$unique_ptr@UFatalMessage@g3@@U?$default_delete@UFatalMessage@g3@@@std@@@std@@@g3@@@Z@Z 00000001800e6590 f i g3log:g3log.obj
 0001:000e5590       ??$_Test_callable@U?$MoveOnCopy@V?$packaged_task@$$A6AXXZ@std@@@g3@@@std@@YA_NAEBU?$MoveOnCopy@V?$packaged_task@$$A6AXXZ@std@@@g3@@@Z 00000001800e6590 f i g3log:logworker.obj
 0001:000e5590       ??$_Test_callable@V<lambda_1>@?1??removeAllSinks@LogWorker@g3@@QEAAXXZ@@std@@YA_NAEBV<lambda_1>@?1??removeAllSinks@LogWorker@g3@@QEAAXXZ@@Z 00000001800e6590 f i g3log:logworker.obj
 0001:000e5590       ??$_Test_callable@V<lambda_1>@?1??send@?$Sink@VFileSink@g3@@@internal@g3@@UEAAXU?$MoveOnCopy@ULogMessage@g3@@@5@@Z@@std@@YA_NAEBV<lambda_1>@?1??send@?$Sink@VFileSink@g3@@@internal@g3@@UEAAXU?$MoveOnCopy@ULogMessage@g3@@@5@@Z@@Z 00000001800e6590 f i g3log:logworker.obj
 0001:000e5590       ??$_Test_callable@V?$_Binder@U_Unforced@std@@AEAP8FileSink@g3@@EAAXU?$MoveOnCopy@ULogMessage@g3@@@4@@ZPEAV34@AEBU?$_Ph@$00@2@@std@@@std@@YA_NAEBV?$_Binder@U_Unforced@std@@AEAP8FileSink@g3@@EAAXU?$MoveOnCopy@ULogMessage@g3@@@4@@ZPEAV34@AEBU?$_Ph@$00@2@@0@@Z 00000001800e6590 f i g3log:logworker.obj
 0001:000e55a0       ??$_Atomic_address_as@_JU?$_Atomic_padded@_K@std@@@std@@YAPEC_JAEAU?$_Atomic_padded@_K@0@@Z 00000001800e65a0 f i g3log:g3log.obj
 0001:000e55a0       ??$_Atomic_address_as@_JU?$_Atomic_padded@_K@std@@@std@@YAPED_JAEBU?$_Atomic_padded@_K@0@@Z 00000001800e65a0 f i g3log:g3log.obj
 0001:000e55a0       ??$_Kfn@$$CBKV?$basic_string@DU?$char_traits@D@std@@V?$allocator@D@2@@std@@@?$_Tmap_traits@KV?$basic_string@DU?$char_traits@D@std@@V?$allocator@D@2@@std@@U?$less@K@2@V?$allocator@U?$pair@$$CBKV?$basic_string@DU?$char_traits@D@std@@V?$allocator@D@2@@std@@@std@@@2@$0A@@std@@SAAEBKAEBU?$pair@$$CBKV?$basic_string@DU?$char_traits@D@std@@V?$allocator@D@2@@std@@@1@@Z 00000001800e65a0 f i g3log:stacktrace_windows.obj
 0001:000e55a0       ??$_Pass_fn@P6AHH@Z$0A@@std@@YAP6AHH@ZP6AHH@Z@Z 00000001800e65a0 f i g3log:filesink.obj
 0001:000e55a0       ??$_Refancy@PEAD$0A@@std@@YAPEADPEAD@Z 00000001800e65a0 f i g3log:filesink.obj
 0001:000e55a0       ??$_Refancy@PEBD$0A@@std@@YAPEBDPEBD@Z 00000001800e65a0 f i g3log:filesink.obj
 0001:000e55a0       ??$_Unfancy@$$CBD@std@@YAPEBDPEBD@Z 00000001800e65a0 f i g3log:filesink.obj
 0001:000e55a0       ??$_Unfancy@V?$shared_ptr@USinkWrapper@internal@g3@@@std@@@std@@YAPEAV?$shared_ptr@USinkWrapper@internal@g3@@@0@PEAV10@@Z 00000001800e65a0 f i g3log:logworker.obj
 0001:000e55a0       ??$_Unfancy@_K@std@@YAPEA_KPEA_K@Z 00000001800e65a0 f i g3log:stacktrace_windows.obj
 0001:000e55a0       ??$_Voidify_iter@PEAPEAU?$_Tree_node@U?$pair@$$CBKV?$basic_string@DU?$char_traits@D@std@@V?$allocator@D@2@@std@@@std@@PEAX@std@@@std@@YAPEAXPEAPEAU?$_Tree_node@U?$pair@$$CBKV?$basic_string@DU?$char_traits@D@std@@V?$allocator@D@2@@std@@@std@@PEAX@0@@Z 00000001800e65a0 f i g3log:stacktrace_windows.obj
 0001:000e55a0       ??$_Voidify_iter@PEAU?$Sink@VFileSink@g3@@@internal@g3@@@std@@YAPEAXPEAU?$Sink@VFileSink@g3@@@internal@g3@@@Z 00000001800e65a0 f i g3log:logworker.obj
 0001:000e55a0       ??$_Voidify_iter@PEAU?$pair@$$CBKV?$basic_string@DU?$char_traits@D@std@@V?$allocator@D@2@@std@@@std@@@std@@YAPEAXPEAU?$pair@$$CBKV?$basic_string@DU?$char_traits@D@std@@V?$allocator@D@2@@std@@@0@@Z 00000001800e65a0 f i g3log:stacktrace_windows.obj
 0001:000e55a0       ??$_Voidify_iter@PEAV?$promise@X@std@@@std@@YAPEAXPEAV?$promise@X@0@@Z 00000001800e65a0 f i g3log:logworker.obj
 0001:000e55a0       ??$_Voidify_iter@PEAV?$shared_ptr@USinkWrapper@internal@g3@@@std@@@std@@YAPEAXPEAV?$shared_ptr@USinkWrapper@internal@g3@@@0@@Z 00000001800e65a0 f i g3log:logworker.obj
 0001:000e55a0       ??$_Voidify_iter@PEA_K@std@@YAPEAXPEA_K@Z 00000001800e65a0 f i g3log:stacktrace_windows.obj
 0001:000e55a0       ??$addressof@$$CBU?$MoveOnCopy@V?$packaged_task@$$A6AXXZ@std@@@g3@@@std@@YAPEBU?$MoveOnCopy@V?$packaged_task@$$A6AXXZ@std@@@g3@@AEBU12@@Z 00000001800e65a0 f i g3log:logworker.obj
 0001:000e55a0       ??$addressof@$$CBU?$pair@$$CBKV?$basic_string@DU?$char_traits@D@std@@V?$allocator@D@2@@std@@@std@@@std@@YAPEBU?$pair@$$CBKV?$basic_string@DU?$char_traits@D@std@@V?$allocator@D@2@@std@@@0@AEBU10@@Z 00000001800e65a0 f i g3log:stacktrace_windows.obj
 0001:000e55a0       ??$addressof@$$CBV<lambda_1>@?1??removeAllSinks@LogWorker@g3@@QEAAXXZ@@std@@YAPEBV<lambda_1>@?1??removeAllSinks@LogWorker@g3@@QEAAXXZ@AEBV1?1??234@QEAAXXZ@@Z 00000001800e65a0 f i g3log:logworker.obj
 0001:000e55a0       ??$addressof@$$CBV<lambda_1>@?1??send@?$Sink@VFileSink@g3@@@internal@g3@@UEAAXU?$MoveOnCopy@ULogMessage@g3@@@5@@Z@@std@@YAPEBV<lambda_1>@?1??send@?$Sink@VFileSink@g3@@@internal@g3@@UEAAXU?$MoveOnCopy@ULogMessage@g3@@@5@@Z@AEBV1?1??2345@UEAAX0@Z@@Z 00000001800e65a0 f i g3log:logworker.obj
 0001:000e55a0       ??$addressof@$$CBV?$_Binder@U_Unforced@std@@AEAP8FileSink@g3@@EAAXU?$MoveOnCopy@ULogMessage@g3@@@4@@ZPEAV34@AEBU?$_Ph@$00@2@@std@@@std@@YAPEBV?$_Binder@U_Unforced@std@@AEAP8FileSink@g3@@EAAXU?$MoveOnCopy@ULogMessage@g3@@@4@@ZPEAV34@AEBU?$_Ph@$00@2@@0@AEBV10@@Z 00000001800e65a0 f i g3log:logworker.obj
 0001:000e55a0       ??$addressof@$$CBV?$_Tree_val@U?$_Tree_simple_types@U?$pair@$$CBKV?$basic_string@DU?$char_traits@D@std@@V?$allocator@D@2@@std@@@std@@@std@@@std@@@std@@YAPEBV?$_Tree_val@U?$_Tree_simple_types@U?$pair@$$CBKV?$basic_string@DU?$char_traits@D@std@@V?$allocator@D@2@@std@@@std@@@std@@@0@AEBV10@@Z 00000001800e65a0 f i g3log:stacktrace_windows.obj
 0001:000e55a0       ??$addressof@$$CBV?$basic_string@DU?$char_traits@D@std@@V?$allocator@D@2@@std@@@std@@YAPEBV?$basic_string@DU?$char_traits@D@std@@V?$allocator@D@2@@0@AEBV10@@Z 00000001800e65a0 f i g3log:filesink.obj
 0001:000e55a0       ??$addressof@PEAU?$_Tree_node@U?$pair@$$CBKV?$basic_string@DU?$char_traits@D@std@@V?$allocator@D@2@@std@@@std@@PEAX@std@@@std@@YAPEAPEAU?$_Tree_node@U?$pair@$$CBKV?$basic_string@DU?$char_traits@D@std@@V?$allocator@D@2@@std@@@std@@PEAX@0@AEAPEAU10@@Z 00000001800e65a0 f i g3log:stacktrace_windows.obj
 0001:000e55a0       ??$addressof@Q6AXU?$MoveOnCopy@V?$unique_ptr@UFatalMessage@g3@@U?$default_delete@UFatalMessage@g3@@@std@@@std@@@g3@@@Z@std@@YAPEBQ6AXU?$MoveOnCopy@V?$unique_ptr@UFatalMessage@g3@@U?$default_delete@UFatalMessage@g3@@@std@@@std@@@g3@@@ZAEBQ6AX0@Z@Z 00000001800e65a0 f i g3log:g3log.obj
 0001:000e55a0       ??$addressof@U?$Sink@VFileSink@g3@@@internal@g3@@@std@@YAPEAU?$Sink@VFileSink@g3@@@internal@g3@@AEAU123@@Z 00000001800e65a0 f i g3log:logworker.obj
 0001:000e55a0       ??$addressof@U?$pair@$$CBKV?$basic_string@DU?$char_traits@D@std@@V?$allocator@D@2@@std@@@std@@@std@@YAPEAU?$pair@$$CBKV?$basic_string@DU?$char_traits@D@std@@V?$allocator@D@2@@std@@@0@AEAU10@@Z 00000001800e65a0 f i g3log:stacktrace_windows.obj
 0001:000e55a0       ??$addressof@V?$_Tree_val@U?$_Tree_simple_types@U?$pair@$$CBKV?$basic_string@DU?$char_traits@D@std@@V?$allocator@D@2@@std@@@std@@@std@@@std@@@std@@YAPEAV?$_Tree_val@U?$_Tree_simple_types@U?$pair@$$CBKV?$basic_string@DU?$char_traits@D@std@@V?$allocator@D@2@@std@@@std@@@std@@@0@AEAV10@@Z 00000001800e65a0 f i g3log:stacktrace_windows.obj
 0001:000e55a0       ??$addressof@V?$promise@X@std@@@std@@YAPEAV?$promise@X@0@AEAV10@@Z 00000001800e65a0 f i g3log:logworker.obj
 0001:000e55a0       ??$addressof@V?$shared_ptr@USinkWrapper@internal@g3@@@std@@@std@@YAPEAV?$shared_ptr@USinkWrapper@internal@g3@@@0@AEAV10@@Z 00000001800e65a0 f i g3log:logworker.obj
 0001:000e55a0       ??$addressof@V?$unique_ptr@ULogMessage@g3@@U?$default_delete@ULogMessage@g3@@@std@@@std@@@std@@YAPEAV?$unique_ptr@ULogMessage@g3@@U?$default_delete@ULogMessage@g3@@@std@@@0@AEAV10@@Z 00000001800e65a0 f i g3log:g3log.obj
 0001:000e55a0       ??$addressof@V?$unique_ptr@V?$basic_ofstream@DU?$char_traits@D@std@@@std@@U?$default_delete@V?$basic_ofstream@DU?$char_traits@D@std@@@std@@@2@@std@@@std@@YAPEAV?$unique_ptr@V?$basic_ofstream@DU?$char_traits@D@std@@@std@@U?$default_delete@V?$basic_ofstream@DU?$char_traits@D@std@@@std@@@2@@0@AEAV10@@Z 00000001800e65a0 f i g3log:filesink.obj
 0001:000e55a0       ??$addressof@Vfuture_error@std@@@std@@YAPEAVfuture_error@0@AEAV10@@Z 00000001800e65a0 f i g3log:logworker.obj
 0001:000e55a0       ??$addressof@Vruntime_error@std@@@std@@YAPEAVruntime_error@0@AEAV10@@Z 00000001800e65a0 f i g3log:logworker.obj
 0001:000e55a0       ??$get@$00PEAVFileSink@g3@@U?$_Ph@$00@std@@@std@@YAAEAU?$_Ph@$00@0@AEAV?$tuple@PEAVFileSink@g3@@U?$_Ph@$00@std@@@0@@Z 00000001800e65a0 f i g3log:logworker.obj
 0001:000e55a0       ??$to_address@_K@std@@YAPEA_KQEA_K@Z 00000001800e65a0 f i g3log:stacktrace_windows.obj
 0001:000e55a0       ??0?$_Func_base@XU?$MoveOnCopy@V?$unique_ptr@UFatalMessage@g3@@U?$default_delete@UFatalMessage@g3@@@std@@@std@@@g3@@@std@@QEAA@XZ 00000001800e65a0 f i g3log:g3log.obj
 0001:000e55a0       ??0?$allocator@U?$_Tree_node@U?$pair@$$CBKV?$basic_string@DU?$char_traits@D@std@@V?$allocator@D@2@@std@@@std@@PEAX@std@@@std@@QEAA@XZ 00000001800e65a0 f i g3log:stacktrace_windows.obj
 0001:000e55a0       ??0?$allocator@V?$shared_ptr@USinkWrapper@internal@g3@@@std@@@std@@QEAA@XZ 00000001800e65a0 f i g3log:logworker.obj
 0001:000e55a0       ??0?$allocator@_K@std@@QEAA@XZ 00000001800e65a0 f i g3log:stacktrace_windows.obj
 0001:000e55a0       ?_Extract@?$_In_place_key_extract_map@KU?$pair@$$CBKV?$basic_string@DU?$char_traits@D@std@@V?$allocator@D@2@@std@@@std@@@std@@SAAEBKAEBU?$pair@$$CBKV?$basic_string@DU?$char_traits@D@std@@V?$allocator@D@2@@std@@@2@@Z 00000001800e65a0 f i g3log:stacktrace_windows.obj
 0001:000e55a0       ?_Get_first@?$_Compressed_pair@P8FileSink@g3@@EAAXU?$MoveOnCopy@ULogMessage@g3@@@2@@ZV?$tuple@PEAVFileSink@g3@@U?$_Ph@$00@std@@@std@@$0A@@std@@QEAAAEAP8FileSink@g3@@EAAXU?$MoveOnCopy@ULogMessage@g3@@@4@@ZXZ 00000001800e65a0 f i g3log:logworker.obj
 0001:000e55a0       ?_Get_first@?$_Compressed_pair@U?$default_delete@UFatalMessage@g3@@@std@@PEAUFatalMessage@g3@@$00@std@@QEAAAEAU?$default_delete@UFatalMessage@g3@@@2@XZ 00000001800e65a0 f i g3log:logworker.obj
 0001:000e55a0       ?_Get_first@?$_Compressed_pair@U?$default_delete@ULogMessage@g3@@@std@@PEAULogMessage@g3@@$00@std@@QEAAAEAU?$default_delete@ULogMessage@g3@@@2@XZ 00000001800e65a0 f i g3log:logworker.obj
 0001:000e55a0       ?_Get_first@?$_Compressed_pair@U?$default_delete@V?$basic_ofstream@DU?$char_traits@D@std@@@std@@@std@@PEAV?$basic_ofstream@DU?$char_traits@D@std@@@2@$00@std@@QEAAAEAU?$default_delete@V?$basic_ofstream@DU?$char_traits@D@std@@@std@@@2@XZ 00000001800e65a0 f i g3log:filesink.obj
 0001:000e55a0       ?_Get_first@?$_Compressed_pair@U?$default_delete@VFileSink@g3@@@std@@PEAVFileSink@g3@@$00@std@@QEAAAEAU?$default_delete@VFileSink@g3@@@2@XZ 00000001800e65a0 f i g3log:logworker.obj
 0001:000e55a0       ?_Get_first@?$_Compressed_pair@U?$less@K@std@@V?$_Compressed_pair@V?$allocator@U?$_Tree_node@U?$pair@$$CBKV?$basic_string@DU?$char_traits@D@std@@V?$allocator@D@2@@std@@@std@@PEAX@std@@@std@@V?$_Tree_val@U?$_Tree_simple_types@U?$pair@$$CBKV?$basic_string@DU?$char_traits@D@std@@V?$allocator@D@2@@std@@@std@@@std@@@2@$00@2@$00@std@@QEBAAEBU?$less@K@2@XZ 00000001800e65a0 f i g3log:stacktrace_windows.obj
 0001:000e55a0       ?_Get_first@?$_Compressed_pair@V?$allocator@U?$_Tree_node@U?$pair@$$CBKV?$basic_string@DU?$char_traits@D@std@@V?$allocator@D@2@@std@@@std@@PEAX@std@@@std@@V?$_Tree_val@U?$_Tree_simple_types@U?$pair@$$CBKV?$basic_string@DU?$char_traits@D@std@@V?$allocator@D@2@@std@@@std@@@std@@@2@$00@std@@QEAAAEAV?$allocator@U?$_Tree_node@U?$pair@$$CBKV?$basic_string@DU?$char_traits@D@std@@V?$allocator@D@2@@std@@@std@@PEAX@std@@@2@XZ 00000001800e65a0 f i g3log:stacktrace_windows.obj
 0001:000e55a0       ?_Get_first@?$_Compressed_pair@V?$allocator@U?$_Tree_node@U?$pair@$$CBKV?$basic_string@DU?$char_traits@D@std@@V?$allocator@D@2@@std@@@std@@PEAX@std@@@std@@V?$_Tree_val@U?$_Tree_simple_types@U?$pair@$$CBKV?$basic_string@DU?$char_traits@D@std@@V?$allocator@D@2@@std@@@std@@@std@@@2@$00@std@@QEBAAEBV?$allocator@U?$_Tree_node@U?$pair@$$CBKV?$basic_string@DU?$char_traits@D@std@@V?$allocator@D@2@@std@@@std@@PEAX@std@@@2@XZ 00000001800e65a0 f i g3log:stacktrace_windows.obj
 0001:000e55a0       ?_Get_first@?$_Compressed_pair@V?$allocator@V?$shared_ptr@USinkWrapper@internal@g3@@@std@@@std@@V?$_Vector_val@U?$_Simple_types@V?$shared_ptr@USinkWrapper@internal@g3@@@std@@@std@@@2@$00@std@@QEAAAEAV?$allocator@V?$shared_ptr@USinkWrapper@internal@g3@@@std@@@2@XZ 00000001800e65a0 f i g3log:logworker.obj
 0001:000e55a0       ?_Get_first@?$_Compressed_pair@V?$allocator@V?$shared_ptr@USinkWrapper@internal@g3@@@std@@@std@@V?$_Vector_val@U?$_Simple_types@V?$shared_ptr@USinkWrapper@internal@g3@@@std@@@std@@@2@$00@std@@QEBAAEBV?$allocator@V?$shared_ptr@USinkWrapper@internal@g3@@@std@@@2@XZ 00000001800e65a0 f i g3log:logworker.obj
 0001:000e55a0       ?_Get_first@?$_Compressed_pair@V?$allocator@_K@std@@V?$_Vector_val@U?$_Simple_types@_K@std@@@2@$00@std@@QEAAAEAV?$allocator@_K@2@XZ 00000001800e65a0 f i g3log:stacktrace_windows.obj
 0001:000e55a0       ?_Get_first@?$_Compressed_pair@V?$allocator@_K@std@@V?$_Vector_val@U?$_Simple_types@_K@std@@@2@$00@std@@QEBAAEBV?$allocator@_K@2@XZ 00000001800e65a0 f i g3log:stacktrace_windows.obj
 0001:000e55a0       ?_Get_state@?$_Promise@H@std@@QEAAAEAV?$_State_manager@H@2@XZ 00000001800e65a0 f i g3log:logworker.obj
 0001:000e55a0       ?get@?$MoveOnCopy@V?$unique_ptr@UFatalMessage@g3@@U?$default_delete@UFatalMessage@g3@@@std@@@std@@@g3@@QEAAAEAV?$unique_ptr@UFatalMessage@g3@@U?$default_delete@UFatalMessage@g3@@@std@@@std@@XZ 00000001800e65a0 f i g3log:logworker.obj
 0001:000e55a0       ?get@?$MoveOnCopy@V?$unique_ptr@ULogMessage@g3@@U?$default_delete@ULogMessage@g3@@@std@@@std@@@g3@@QEAAAEAV?$unique_ptr@ULogMessage@g3@@U?$default_delete@ULogMessage@g3@@@std@@@std@@XZ 00000001800e65a0 f i g3log:logworker.obj
 0001:000e55b0       ??$_Uninitialized_move@PEAV?$shared_ptr@USinkWrapper@internal@g3@@@std@@V?$allocator@V?$shared_ptr@USinkWrapper@internal@g3@@@std@@@2@@std@@YAPEAV?$shared_ptr@USinkWrapper@internal@g3@@@0@QEAV10@0PEAV10@AEAV?$allocator@V?$shared_ptr@USinkWrapper@internal@g3@@@std@@@0@@Z 00000001800e65b0 f i g3log:logworker.obj
 0001:000e5650       ??$_Weakly_construct_from@U?$Sink@VFileSink@g3@@@internal@g3@@@?$_Ptr_base@U?$Sink@VFileSink@g3@@@internal@g3@@@std@@IEAAXAEBV01@@Z 00000001800e6650 f i g3log:logworker.obj
 0001:000e56a0       ??$addSink@VFileSink@g3@@P812@EAAXU?$MoveOnCopy@ULogMessage@g3@@@2@@Z@LogWorker@g3@@QEAA?AV?$unique_ptr@V?$SinkHandle@VFileSink@g3@@@g3@@U?$default_delete@V?$SinkHandle@VFileSink@g3@@@g3@@@std@@@std@@V?$unique_ptr@VFileSink@g3@@U?$default_delete@VFileSink@g3@@@std@@@3@P8FileSink@1@EAAXU?$MoveOnCopy@ULogMessage@g3@@@1@@Z@Z 00000001800e66a0 f i g3log:logworker.obj
 0001:000e5750       ??$bind@AEAP8FileSink@g3@@EAAXU?$MoveOnCopy@ULogMessage@g3@@@2@@ZPEAV12@AEBU?$_Ph@$00@std@@@std@@YA?AV?$_Binder@U_Unforced@std@@AEAP8FileSink@g3@@EAAXU?$MoveOnCopy@ULogMessage@g3@@@4@@ZPEAV34@AEBU?$_Ph@$00@2@@0@AEAP8FileSink@g3@@EAAXU?$MoveOnCopy@ULogMessage@g3@@@3@@Z$$QEAPEAV23@AEBU?$_Ph@$00@0@@Z 00000001800e6750 f i g3log:logworker.obj
 0001:000e5790       ??$construct@V?$shared_ptr@USinkWrapper@internal@g3@@@std@@AEBV12@@?$_Default_allocator_traits@V?$allocator@V?$shared_ptr@USinkWrapper@internal@g3@@@std@@@std@@@std@@SAXAEAV?$allocator@V?$shared_ptr@USinkWrapper@internal@g3@@@std@@@1@QEAV?$shared_ptr@USinkWrapper@internal@g3@@@1@AEBV31@@Z 00000001800e6790 f i g3log:logworker.obj
 0001:000e57f0       ??$construct@V?$shared_ptr@USinkWrapper@internal@g3@@@std@@V12@@?$_Default_allocator_traits@V?$allocator@V?$shared_ptr@USinkWrapper@internal@g3@@@std@@@std@@@std@@SAXAEAV?$allocator@V?$shared_ptr@USinkWrapper@internal@g3@@@std@@@1@QEAV?$shared_ptr@USinkWrapper@internal@g3@@@1@$$QEAV31@@Z 00000001800e67f0 f i g3log:logworker.obj
 0001:000e5850       ??$construct_at@U?$Sink@VFileSink@g3@@@internal@g3@@V?$unique_ptr@VFileSink@g3@@U?$default_delete@VFileSink@g3@@@std@@@std@@AEAP8FileSink@3@EAAXU?$MoveOnCopy@ULogMessage@g3@@@3@@Z$0A@@std@@YAPEAU?$Sink@VFileSink@g3@@@internal@g3@@QEAU123@$$QEAV?$unique_ptr@VFileSink@g3@@U?$default_delete@VFileSink@g3@@@std@@@0@AEAP8FileSink@3@EAAXU?$MoveOnCopy@ULogMessage@g3@@@3@@Z@Z 00000001800e6850 f i g3log:logworker.obj
 0001:000e58d0       ??$construct_at@V?$promise@X@std@@$$V$0A@@std@@YAPEAV?$promise@X@0@QEAV10@@Z 00000001800e68d0 f i g3log:logworker.obj
 0001:000e5910       ??$construct_at@V?$shared_ptr@USinkWrapper@internal@g3@@@std@@AEBV12@$0A@@std@@YAPEAV?$shared_ptr@USinkWrapper@internal@g3@@@0@QEAV10@AEBV10@@Z 00000001800e6910 f i g3log:logworker.obj
 0001:000e5950       ??$construct_at@V?$shared_ptr@USinkWrapper@internal@g3@@@std@@V12@$0A@@std@@YAPEAV?$shared_ptr@USinkWrapper@internal@g3@@@0@QEAV10@$$QEAV10@@Z 00000001800e6950 f i g3log:logworker.obj
 0001:000e5990       ??$destroy@V?$shared_ptr@USinkWrapper@internal@g3@@@std@@@?$_Default_allocator_traits@V?$allocator@V?$shared_ptr@USinkWrapper@internal@g3@@@std@@@std@@@std@@SAXAEAV?$allocator@V?$shared_ptr@USinkWrapper@internal@g3@@@std@@@1@QEAV?$shared_ptr@USinkWrapper@internal@g3@@@1@@Z 00000001800e6990 f i g3log:logworker.obj
 0001:000e59b0       ??$destroy_at@V?$shared_ptr@USinkWrapper@internal@g3@@@std@@@std@@YAXQEAV?$shared_ptr@USinkWrapper@internal@g3@@@0@@Z 00000001800e69b0 f i g3log:logworker.obj
 0001:000e59d0       ??$exchange@PEAU?$_Tree_node@U?$pair@$$CBKV?$basic_string@DU?$char_traits@D@std@@V?$allocator@D@2@@std@@@std@@PEAX@std@@$$T@std@@YAPEAU?$_Tree_node@U?$pair@$$CBKV?$basic_string@DU?$char_traits@D@std@@V?$allocator@D@2@@std@@@std@@PEAX@0@AEAPEAU10@$$QEA$$T@Z 00000001800e69d0 f i g3log:stacktrace_windows.obj
 0001:000e59d0       ??$exchange@PEAU?$_Tree_node@U?$pair@$$CBKV?$basic_string@DU?$char_traits@D@std@@V?$allocator@D@2@@std@@@std@@PEAX@std@@AEAPEAU12@@std@@YAPEAU?$_Tree_node@U?$pair@$$CBKV?$basic_string@DU?$char_traits@D@std@@V?$allocator@D@2@@std@@@std@@PEAX@0@AEAPEAU10@0@Z 00000001800e69d0 f i g3log:stacktrace_windows.obj
 0001:000e59d0       ??$exchange@PEAUFatalMessage@g3@@$$T@std@@YAPEAUFatalMessage@g3@@AEAPEAU12@$$QEA$$T@Z 00000001800e69d0 f i g3log:logworker.obj
 0001:000e59d0       ??$exchange@PEAULogMessage@g3@@$$T@std@@YAPEAULogMessage@g3@@AEAPEAU12@$$QEA$$T@Z 00000001800e69d0 f i g3log:logworker.obj
 0001:000e59d0       ??$exchange@PEAULogMessage@g3@@AEAPEAU12@@std@@YAPEAULogMessage@g3@@AEAPEAU12@0@Z 00000001800e69d0 f i g3log:g3log.obj
 0001:000e59d0       ??$exchange@PEAV?$_Associated_state@H@std@@$$T@std@@YAPEAV?$_Associated_state@H@0@AEAPEAV10@$$QEA$$T@Z 00000001800e69d0 f i g3log:logworker.obj
 0001:000e59d0       ??$exchange@PEAV?$basic_ofstream@DU?$char_traits@D@std@@@std@@$$T@std@@YAPEAV?$basic_ofstream@DU?$char_traits@D@std@@@0@AEAPEAV10@$$QEA$$T@Z 00000001800e69d0 f i g3log:filesink.obj
 0001:000e59d0       ??$exchange@PEAV?$basic_ofstream@DU?$char_traits@D@std@@@std@@AEAPEAV12@@std@@YAPEAV?$basic_ofstream@DU?$char_traits@D@std@@@0@AEAPEAV10@0@Z 00000001800e69d0 f i g3log:filesink.obj
 0001:000e59d0       ??$exchange@PEAVFileSink@g3@@$$T@std@@YAPEAVFileSink@g3@@AEAPEAV12@$$QEA$$T@Z 00000001800e69d0 f i g3log:logworker.obj
 0001:000e5a10       ??$get@$0A@PEAVFileSink@g3@@U?$_Ph@$00@std@@@std@@YAAEAPEAVFileSink@g3@@AEAV?$tuple@PEAVFileSink@g3@@U?$_Ph@$00@std@@@0@@Z 00000001800e6a10 f i g3log:logworker.obj
 0001:000e5a20       ??$invoke@AEAP8FileSink@g3@@EAAXU?$MoveOnCopy@ULogMessage@g3@@@2@@ZAEAPEAV12@U32@@std@@YAXAEAP8FileSink@g3@@EAAXU?$MoveOnCopy@ULogMessage@g3@@@2@@ZAEAPEAV12@$$QEAU32@@Z 00000001800e6a20 f i g3log:logworker.obj
 0001:000e5aa0       ??$invoke@AEAU?$MoveOnCopy@V?$packaged_task@$$A6AXXZ@std@@@g3@@@std@@YAXAEAU?$MoveOnCopy@V?$packaged_task@$$A6AXXZ@std@@@g3@@@Z 00000001800e6aa0 f i g3log:logworker.obj
 0001:000e5b00       ??$invoke@AEAV<lambda_1>@?1??removeAllSinks@LogWorker@g3@@QEAAXXZ@@std@@YAXAEAV<lambda_1>@?1??removeAllSinks@LogWorker@g3@@QEAAXXZ@@Z 00000001800e6b00 f i g3log:logworker.obj
 0001:000e5b40       ??$invoke@AEAV<lambda_1>@?1??send@?$Sink@VFileSink@g3@@@internal@g3@@UEAAXU?$MoveOnCopy@ULogMessage@g3@@@5@@Z@@std@@YAXAEAV<lambda_1>@?1??send@?$Sink@VFileSink@g3@@@internal@g3@@UEAAXU?$MoveOnCopy@ULogMessage@g3@@@5@@Z@@Z 00000001800e6b40 f i g3log:logworker.obj
 0001:000e5b60       ??$invoke@AEAV?$_Binder@U_Unforced@std@@AEAP8FileSink@g3@@EAAXU?$MoveOnCopy@ULogMessage@g3@@@4@@ZPEAV34@AEBU?$_Ph@$00@2@@std@@U?$MoveOnCopy@ULogMessage@g3@@@g3@@$$V@std@@YAXAEAV?$_Binder@U_Unforced@std@@AEAP8FileSink@g3@@EAAXU?$MoveOnCopy@ULogMessage@g3@@@4@@ZPEAV34@AEBU?$_Ph@$00@2@@0@$$QEAU?$MoveOnCopy@ULogMessage@g3@@@g3@@@Z 00000001800e6b60 f i g3log:logworker.obj
 0001:000e5b90       ??$make_exception_ptr@Vfuture_error@std@@@std@@YA?AVexception_ptr@0@Vfuture_error@0@@Z 00000001800e6b90 f i g3log:logworker.obj
 0001:000e5bd0       ??$make_exception_ptr@Vruntime_error@std@@@std@@YA?AVexception_ptr@0@Vruntime_error@0@@Z 00000001800e6bd0 f i g3log:logworker.obj
 0001:000e5c10       ??$make_shared@U?$Sink@VFileSink@g3@@@internal@g3@@V?$unique_ptr@VFileSink@g3@@U?$default_delete@VFileSink@g3@@@std@@@std@@AEAP8FileSink@3@EAAXU?$MoveOnCopy@ULogMessage@g3@@@3@@Z@std@@YA?AV?$shared_ptr@U?$Sink@VFileSink@g3@@@internal@g3@@@0@$$QEAV?$unique_ptr@VFileSink@g3@@U?$default_delete@VFileSink@g3@@@std@@@0@AEAP8FileSink@g3@@EAAXU?$MoveOnCopy@ULogMessage@g3@@@4@@Z@Z 00000001800e6c10 f i g3log:logworker.obj
 0001:000e5cd0       ??$make_shared@V?$promise@X@std@@$$V@std@@YA?AV?$shared_ptr@V?$promise@X@std@@@0@XZ 00000001800e6cd0 f i g3log:logworker.obj
 0001:000e5d70       ??$make_unique@V?$SinkHandle@VFileSink@g3@@@g3@@AEAV?$shared_ptr@U?$Sink@VFileSink@g3@@@internal@g3@@@std@@$0A@@std@@YA?AV?$unique_ptr@V?$SinkHandle@VFileSink@g3@@@g3@@U?$default_delete@V?$SinkHandle@VFileSink@g3@@@g3@@@std@@@0@AEAV?$shared_ptr@U?$Sink@VFileSink@g3@@@internal@g3@@@0@@Z 00000001800e6d70 f i g3log:logworker.obj
 0001:000e5e20       ??$make_unique@VFileSink@g3@@AEBV?$basic_string@DU?$char_traits@D@std@@V?$allocator@D@2@@std@@AEBV34@AEBV34@$0A@@std@@YA?AV?$unique_ptr@VFileSink@g3@@U?$default_delete@VFileSink@g3@@@std@@@0@AEBV?$basic_string@DU?$char_traits@D@std@@V?$allocator@D@2@@0@00@Z 00000001800e6e20 f i g3log:logworker.obj
 0001:000e60e0       ??$spawn_task@V<lambda_1>@?1??removeAllSinks@LogWorker@g3@@QEAAXXZ@VActive@kjellkod@@@g3@@YA?AV?$future@X@std@@V<lambda_1>@?1??removeAllSinks@LogWorker@0@QEAAXXZ@PEAVActive@kjellkod@@@Z 00000001800e70e0 f i g3log:logworker.obj
 0001:000e62e0       ??0<lambda_1>@?1??removeAllSinks@LogWorker@g3@@QEAAXXZ@QEAA@PEAV23@@Z 00000001800e72e0 f i g3log:logworker.obj
 0001:000e6300       ??0<lambda_1>@?1??send@?$Sink@VFileSink@g3@@@internal@g3@@UEAAXU?$MoveOnCopy@ULogMessage@g3@@@4@@Z@QEAA@$$QEAV0?1??1234@UEAAX0@Z@@Z 00000001800e7300 f i g3log:logworker.obj
 0001:000e6300       ??0<lambda_1>@?1??send@?$Sink@VFileSink@g3@@@internal@g3@@UEAAXU?$MoveOnCopy@ULogMessage@g3@@@4@@Z@QEAA@AEBV0?1??1234@UEAAX0@Z@@Z 00000001800e7300 f i g3log:logworker.obj
 0001:000e6350       ??0<lambda_1>@?1??send@?$Sink@VFileSink@g3@@@internal@g3@@UEAAXU?$MoveOnCopy@ULogMessage@g3@@@4@@Z@QEAA@PEAU234@AEBU54@@Z 00000001800e7350 f i g3log:logworker.obj
 0001:000e63a0       ??0?$MoveOnCopy@ULogMessage@g3@@@g3@@QEAA@$$QEAULogMessage@1@@Z 00000001800e73a0 f i g3log:logworker.obj
 0001:000e63e0       ??0?$MoveOnCopy@V?$packaged_task@$$A6AXXZ@std@@@g3@@QEAA@$$QEAU01@@Z 00000001800e73e0 f i g3log:logworker.obj
 0001:000e63e0       ??0?$MoveOnCopy@V?$packaged_task@$$A6AXXZ@std@@@g3@@QEAA@AEBU01@@Z 00000001800e73e0 f i g3log:logworker.obj
 0001:000e6420       ??0?$MoveOnCopy@V?$packaged_task@$$A6AXXZ@std@@@g3@@QEAA@$$QEAV?$packaged_task@$$A6AXXZ@std@@@Z 00000001800e7420 f i g3log:logworker.obj
 0001:000e6460       ??0?$MoveOnCopy@V?$unique_ptr@UFatalMessage@g3@@U?$default_delete@UFatalMessage@g3@@@std@@@std@@@g3@@QEAA@$$QEAU01@@Z 00000001800e7460 f i g3log:logworker.obj
 0001:000e6460       ??0?$MoveOnCopy@V?$unique_ptr@UFatalMessage@g3@@U?$default_delete@UFatalMessage@g3@@@std@@@std@@@g3@@QEAA@AEBU01@@Z 00000001800e7460 f i g3log:logworker.obj
 0001:000e6460       ??0?$MoveOnCopy@V?$unique_ptr@ULogMessage@g3@@U?$default_delete@ULogMessage@g3@@@std@@@std@@@g3@@QEAA@$$QEAU01@@Z 00000001800e7460 f i g3log:logworker.obj
 0001:000e6460       ??0?$MoveOnCopy@V?$unique_ptr@ULogMessage@g3@@U?$default_delete@ULogMessage@g3@@@std@@@std@@@g3@@QEAA@AEBU01@@Z 00000001800e7460 f i g3log:logworker.obj
 0001:000e64a0       ??0?$SinkHandle@VFileSink@g3@@@g3@@QEAA@V?$shared_ptr@U?$Sink@VFileSink@g3@@@internal@g3@@@std@@@Z 00000001800e74a0 f i g3log:logworker.obj
 0001:000e64e0       ??0?$_Associated_state@H@std@@QEAA@PEAU?$_Deleter_base@H@1@@Z 00000001800e74e0 f i g3log:logworker.obj
 0001:000e65a0       ??0?$_Binder@U_Unforced@std@@AEAP8FileSink@g3@@EAAXU?$MoveOnCopy@ULogMessage@g3@@@4@@ZPEAV34@AEBU?$_Ph@$00@2@@std@@QEAA@$$QEAV01@@Z 00000001800e75a0 f i g3log:logworker.obj
 0001:000e65a0       ??0?$_Binder@U_Unforced@std@@AEAP8FileSink@g3@@EAAXU?$MoveOnCopy@ULogMessage@g3@@@4@@ZPEAV34@AEBU?$_Ph@$00@2@@std@@QEAA@AEBV01@@Z 00000001800e75a0 f i g3log:logworker.obj
 0001:000e65e0       ??0?$_Binder@U_Unforced@std@@AEAP8FileSink@g3@@EAAXU?$MoveOnCopy@ULogMessage@g3@@@4@@ZPEAV34@AEBU?$_Ph@$00@2@@std@@QEAA@AEAP8FileSink@g3@@EAAXU?$MoveOnCopy@ULogMessage@g3@@@3@@Z$$QEAPEAV23@AEBU?$_Ph@$00@1@@Z 00000001800e75e0 f i g3log:logworker.obj
 0001:000e6630       ??0?$_Compressed_pair@P8FileSink@g3@@EAAXU?$MoveOnCopy@ULogMessage@g3@@@2@@ZV?$tuple@PEAVFileSink@g3@@U?$_Ph@$00@std@@@std@@$0A@@std@@QEAA@$$QEAV01@@Z 00000001800e7630 f i g3log:logworker.obj
 0001:000e6630       ??0?$_Compressed_pair@P8FileSink@g3@@EAAXU?$MoveOnCopy@ULogMessage@g3@@@2@@ZV?$tuple@PEAVFileSink@g3@@U?$_Ph@$00@std@@@std@@$0A@@std@@QEAA@AEBV01@@Z 00000001800e7630 f i g3log:logworker.obj
 0001:000e6680       ??0?$_Promise@H@std@@QEAA@$$QEAV01@@Z 00000001800e7680 f i g3log:logworker.obj
 0001:000e66d0       ??0?$_Promise@H@std@@QEAA@PEAV?$_Associated_state@H@1@@Z 00000001800e76d0 f i g3log:logworker.obj
 0001:000e6710       ??0?$_Ptr_base@U?$Sink@VFileSink@g3@@@internal@g3@@@std@@IEAA@XZ 00000001800e7710 f i g3log:logworker.obj
 0001:000e6710       ??0?$_Ptr_base@V?$promise@X@std@@@std@@IEAA@XZ 00000001800e7710 f i g3log:logworker.obj
 0001:000e6710       ??0?$_Ptr_base@X@std@@IEAA@XZ 00000001800e7710 f i g3log:stacktrace_windows.obj
 0001:000e6710       ??0?$_Tree_val@U?$_Tree_simple_types@U?$pair@$$CBKV?$basic_string@DU?$char_traits@D@std@@V?$allocator@D@2@@std@@@std@@@std@@@std@@QEAA@XZ 00000001800e7710 f i g3log:stacktrace_windows.obj
 0001:000e6740       ??0?$_State_manager@H@std@@QEAA@$$QEAV01@_N@Z 00000001800e7740 f i g3log:logworker.obj
 0001:000e6790       ??0?$_State_manager@H@std@@QEAA@AEBV01@_N@Z 00000001800e7790 f i g3log:logworker.obj
 0001:000e67f0       ??0?$_State_manager@H@std@@QEAA@PEAV?$_Associated_state@H@1@_N@Z 00000001800e77f0 f i g3log:logworker.obj
 0001:000e6820       ??0?$_Uninitialized_backout_al@V?$allocator@V?$shared_ptr@USinkWrapper@internal@g3@@@std@@@std@@@std@@QEAA@PEAV?$shared_ptr@USinkWrapper@internal@g3@@@1@AEAV?$allocator@V?$shared_ptr@USinkWrapper@internal@g3@@@std@@@1@@Z 00000001800e7820 f i g3log:logworker.obj
 0001:000e6820       ??0?$_Uninitialized_backout_al@V?$allocator@_K@std@@@std@@QEAA@PEA_KAEAV?$allocator@_K@1@@Z 00000001800e7820 f i g3log:stacktrace_windows.obj
 0001:000e6860       ??0?$_Vector_val@U?$_Simple_types@V?$shared_ptr@USinkWrapper@internal@g3@@@std@@@std@@@std@@QEAA@XZ 00000001800e7860 f i g3log:logworker.obj
 0001:000e6860       ??0?$_Vector_val@U?$_Simple_types@_K@std@@@std@@QEAA@XZ 00000001800e7860 f i g3log:stacktrace_windows.obj
 0001:000e68a0       ??0?$future@X@std@@QEAA@U_From_raw_state_tag@1@AEBV?$_State_manager@H@1@@Z 00000001800e78a0 f i g3log:logworker.obj
 0001:000e68d0       ??0?$packaged_task@$$A6AXXZ@std@@QEAA@$$QEAV01@@Z 00000001800e78d0 f i g3log:logworker.obj
 0001:000e6910       ??0?$promise@X@std@@QEAA@XZ 00000001800e7910 f i g3log:logworker.obj
 0001:000e6980       ??0?$shared_ptr@U?$Sink@VFileSink@g3@@@internal@g3@@@std@@QEAA@AEBV01@@Z 00000001800e7980 f i g3log:logworker.obj
 0001:000e69c0       ??0?$shared_ptr@U?$Sink@VFileSink@g3@@@internal@g3@@@std@@QEAA@XZ 00000001800e79c0 f i g3log:logworker.obj
 0001:000e69c0       ??0?$shared_ptr@V?$promise@X@std@@@std@@QEAA@XZ 00000001800e79c0 f i g3log:logworker.obj
 0001:000e69e0       ??0?$shared_ptr@USinkWrapper@internal@g3@@@std@@QEAA@$$QEAV01@@Z 00000001800e79e0 f i g3log:logworker.obj
 0001:000e6a20       ??0?$tuple@PEAVFileSink@g3@@U?$_Ph@$00@std@@@std@@QEAA@$$QEAV01@@Z 00000001800e7a20 f i g3log:logworker.obj
 0001:000e6a20       ??0?$tuple@PEAVFileSink@g3@@U?$_Ph@$00@std@@@std@@QEAA@AEBV01@@Z 00000001800e7a20 f i g3log:logworker.obj
 0001:000e6a60       ??0?$vector@V?$shared_ptr@USinkWrapper@internal@g3@@@std@@V?$allocator@V?$shared_ptr@USinkWrapper@internal@g3@@@std@@@2@@std@@QEAA@XZ 00000001800e7a60 f i g3log:logworker.obj
 0001:000e6ab0       ??0LEVELS@@QEAA@AEBU0@@Z   00000001800e7ab0 f i g3log:logworker.obj
 0001:000e6b10       ??0LogWorker@g3@@AEAA@XZ   00000001800e7b10 f i g3log:logworker.obj
 0001:000e6b30       ??0exception_ptr@std@@QEAA@AEBV01@@Z 00000001800e7b30 f i g3log:logworker.obj
 0001:000e6b60       ??0exception_ptr@std@@QEAA@XZ 00000001800e7b60 f i g3log:logworker.obj
 0001:000e6b80       ??0future_error@std@@QEAA@AEBV01@@Z 00000001800e7b80 f i g3log:logworker.obj
 0001:000e6be0       ??0future_error@std@@QEAA@Verror_code@1@@Z 00000001800e7be0 f i g3log:logworker.obj
 0001:000e6c40       ??0future_error@std@@QEAA@W4future_errc@1@@Z 00000001800e7c40 f i g3log:logworker.obj
 0001:000e6c90       ??0logic_error@std@@QEAA@AEBV01@@Z 00000001800e7c90 f i g3log:logworker.obj
 0001:000e6cd0       ??0logic_error@std@@QEAA@PEBD@Z 00000001800e7cd0 f i g3log:logworker.obj
 0001:000e6d10       ??1<lambda_1>@?1??send@?$Sink@VFileSink@g3@@@internal@g3@@UEAAXU?$MoveOnCopy@ULogMessage@g3@@@4@@Z@QEAA@XZ 00000001800e7d10 f i g3log:logworker.obj
 0001:000e6d30       ??1?$MoveOnCopy@V?$packaged_task@$$A6AXXZ@std@@@g3@@QEAA@XZ 00000001800e7d30 f i g3log:logworker.obj
 0001:000e6d50       ??1?$MoveOnCopy@V?$unique_ptr@UFatalMessage@g3@@U?$default_delete@UFatalMessage@g3@@@std@@@std@@@g3@@QEAA@XZ 00000001800e7d50 f i g3log:logworker.obj
 0001:000e6d50       ??1?$MoveOnCopy@V?$unique_ptr@ULogMessage@g3@@U?$default_delete@ULogMessage@g3@@@std@@@std@@@g3@@QEAA@XZ 00000001800e7d50 f i g3log:logworker.obj
 0001:000e6d70       ??1?$Sink@VFileSink@g3@@@internal@g3@@UEAA@XZ 00000001800e7d70 f i g3log:logworker.obj
 0001:000e6df0       ??1?$_Associated_state@H@std@@UEAA@XZ 00000001800e7df0 f i g3log:logworker.obj
 0001:000e6e90       ??1?$_Func_impl_no_alloc@U?$MoveOnCopy@V?$packaged_task@$$A6AXXZ@std@@@g3@@X$$V@std@@QEAA@XZ 00000001800e7e90 f i g3log:logworker.obj
 0001:000e6eb0       ??1?$_Func_impl_no_alloc@V<lambda_1>@?1??send@?$Sink@VFileSink@g3@@@internal@g3@@UEAAXU?$MoveOnCopy@ULogMessage@g3@@@5@@Z@X$$V@std@@QEAA@XZ 00000001800e7eb0 f i g3log:logworker.obj
 0001:000e6ed0       ??1?$_Packaged_state@$$A6AXXZ@std@@UEAA@XZ 00000001800e7ed0 f i g3log:logworker.obj
 0001:000e6f00       ??1?$_Promise@H@std@@QEAA@XZ 00000001800e7f00 f i g3log:logworker.obj
 0001:000e6f20       ??1?$_Ref_count_obj2@U?$Sink@VFileSink@g3@@@internal@g3@@@std@@UEAA@XZ 00000001800e7f20 f i g3log:logworker.obj
 0001:000e6f50       ??1?$_Ref_count_obj2@V?$promise@X@std@@@std@@UEAA@XZ 00000001800e7f50 f i g3log:logworker.obj
 0001:000e6f80       ??1?$_State_manager@H@std@@QEAA@XZ 00000001800e7f80 f i g3log:logworker.obj
 0001:000e6fb0       ??1?$_Uninitialized_backout_al@V?$allocator@V?$shared_ptr@USinkWrapper@internal@g3@@@std@@@std@@@std@@QEAA@XZ 00000001800e7fb0 f i g3log:logworker.obj
 0001:000e6fe0       ??1?$future@X@std@@QEAA@XZ 00000001800e7fe0 f i g3log:logworker.obj
 0001:000e7000       ??1?$packaged_task@$$A6AXXZ@std@@QEAA@XZ 00000001800e8000 f i g3log:logworker.obj
 0001:000e7040       ??1?$promise@X@std@@QEAA@XZ 00000001800e8040 f i g3log:logworker.obj
 0001:000e7160       ??1?$shared_ptr@U?$Sink@VFileSink@g3@@@internal@g3@@@std@@QEAA@XZ 00000001800e8160 f i g3log:logworker.obj
 0001:000e7160       ??1?$shared_ptr@V?$promise@X@std@@@std@@QEAA@XZ 00000001800e8160 f i g3log:logworker.obj
 0001:000e7160       ??1?$shared_ptr@X@std@@QEAA@XZ 00000001800e8160 f i g3log:stacktrace_windows.obj
 0001:000e7180       ??1?$unique_ptr@UFatalMessage@g3@@U?$default_delete@UFatalMessage@g3@@@std@@@std@@QEAA@XZ 00000001800e8180 f i g3log:logworker.obj
 0001:000e7180       ??1?$unique_ptr@ULogMessage@g3@@U?$default_delete@ULogMessage@g3@@@std@@@std@@QEAA@XZ 00000001800e8180 f i g3log:logworker.obj
 0001:000e7180       ??1?$unique_ptr@VFileSink@g3@@U?$default_delete@VFileSink@g3@@@std@@@std@@QEAA@XZ 00000001800e8180 f i g3log:logworker.obj
 0001:000e71d0       ??1?$vector@V?$shared_ptr@USinkWrapper@internal@g3@@@std@@V?$allocator@V?$shared_ptr@USinkWrapper@internal@g3@@@std@@@2@@std@@QEAA@XZ 00000001800e81d0 f i g3log:logworker.obj
 0001:000e71f0       ??1LogWorkerImpl@g3@@QEAA@XZ 00000001800e81f0 f i g3log:logworker.obj
 0001:000e7220       ??1_Future_error_category2@std@@UEAA@XZ 00000001800e8220 f i g3log:logworker.obj
 0001:000e7240       ??1_Guard_type@?1???$_Global_new@V?$_Func_impl_no_alloc@U?$MoveOnCopy@V?$packaged_task@$$A6AXXZ@std@@@g3@@X$$V@std@@AEBU?$MoveOnCopy@V?$packaged_task@$$A6AXXZ@std@@@g3@@@std@@YAPEAV?$_Func_impl_no_alloc@U?$MoveOnCopy@V?$packaged_task@$$A6AXXZ@std@@@g3@@X$$V@1@AEBU?$MoveOnCopy@V?$packaged_task@$$A6AXXZ@std@@@g3@@@Z@QEAA@XZ 00000001800e8240 f i g3log:logworker.obj
 0001:000e7240       ??1_Guard_type@?1???$_Global_new@V?$_Func_impl_no_alloc@U?$MoveOnCopy@V?$packaged_task@$$A6AXXZ@std@@@g3@@X$$V@std@@U?$MoveOnCopy@V?$packaged_task@$$A6AXXZ@std@@@g3@@@std@@YAPEAV?$_Func_impl_no_alloc@U?$MoveOnCopy@V?$packaged_task@$$A6AXXZ@std@@@g3@@X$$V@1@$$QEAU?$MoveOnCopy@V?$packaged_task@$$A6AXXZ@std@@@g3@@@Z@QEAA@XZ 00000001800e8240 f i g3log:logworker.obj
 0001:000e7270       ??1_Guard_type@?1???$_Global_new@V?$_Func_impl_no_alloc@V<lambda_1>@?1??send@?$Sink@VFileSink@g3@@@internal@g3@@UEAAXU?$MoveOnCopy@ULogMessage@g3@@@5@@Z@X$$V@std@@AEBV<lambda_1>@?1??send@?$Sink@VFileSink@g3@@@internal@g3@@UEAAXU?$MoveOnCopy@ULogMessage@g3@@@7@@Z@@std@@YAPEAV?$_Func_impl_no_alloc@V<lambda_1>@?1??send@?$Sink@VFileSink@g3@@@internal@g3@@UEAAXU?$MoveOnCopy@ULogMessage@g3@@@5@@Z@X$$V@1@AEBV<lambda_1>@?1??send@?$Sink@VFileSink@g3@@@internal@g3@@UEAAXU?$MoveOnCopy@ULogMessage@g3@@@7@@Z@@Z@QEAA@XZ 00000001800e8270 f i g3log:logworker.obj
 0001:000e7270       ??1_Guard_type@?1???$_Global_new@V?$_Func_impl_no_alloc@V<lambda_1>@?1??send@?$Sink@VFileSink@g3@@@internal@g3@@UEAAXU?$MoveOnCopy@ULogMessage@g3@@@5@@Z@X$$V@std@@V<lambda_1>@?1??send@?$Sink@VFileSink@g3@@@internal@g3@@UEAAXU?$MoveOnCopy@ULogMessage@g3@@@7@@Z@@std@@YAPEAV?$_Func_impl_no_alloc@V<lambda_1>@?1??send@?$Sink@VFileSink@g3@@@internal@g3@@UEAAXU?$MoveOnCopy@ULogMessage@g3@@@5@@Z@X$$V@1@$$QEAV<lambda_1>@?1??send@?$Sink@VFileSink@g3@@@internal@g3@@UEAAXU?$MoveOnCopy@ULogMessage@g3@@@7@@Z@@Z@QEAA@XZ 00000001800e8270 f i g3log:logworker.obj
 0001:000e72a0       ??1exception_ptr@std@@QEAA@XZ 00000001800e82a0 f i g3log:logworker.obj
 0001:000e72c0       ??1future_error@std@@UEAA@XZ 00000001800e82c0 f i g3log:logworker.obj
 0001:000e72e0       ??1logic_error@std@@UEAA@XZ 00000001800e82e0 f i g3log:logworker.obj
 0001:000e7300       ??4exception_ptr@std@@QEAAAEAV01@AEBV01@@Z 00000001800e8300 f i g3log:logworker.obj
 0001:000e7330       ??Bexception_ptr@std@@QEBA_NXZ 00000001800e8330 f i g3log:logworker.obj
 0001:000e7350       ??R<lambda_1>@?1??removeAllSinks@LogWorker@g3@@QEAAXXZ@QEBA@XZ 00000001800e8350 f i g3log:logworker.obj
 0001:000e7370       ??R<lambda_1>@?1??send@?$Sink@VFileSink@g3@@@internal@g3@@UEAAXU?$MoveOnCopy@ULogMessage@g3@@@4@@Z@QEBA@XZ 00000001800e8370 f i g3log:logworker.obj
 0001:000e73e0       ??R?$MoveOnCopy@V?$packaged_task@$$A6AXXZ@std@@@g3@@QEAAXXZ 00000001800e83e0 f i g3log:logworker.obj
 0001:000e7400       ??R?$default_delete@UFatalMessage@g3@@@std@@QEBAXPEAUFatalMessage@g3@@@Z 00000001800e8400 f i g3log:logworker.obj
 0001:000e7400       ??R?$default_delete@ULogMessage@g3@@@std@@QEBAXPEAULogMessage@g3@@@Z 00000001800e8400 f i g3log:logworker.obj
 0001:000e7400       ??R?$default_delete@VFileSink@g3@@@std@@QEBAXPEAVFileSink@g3@@@Z 00000001800e8400 f i g3log:logworker.obj
 0001:000e7460       ??R?$packaged_task@$$A6AXXZ@std@@QEAAXXZ 00000001800e8460 f i g3log:logworker.obj
 0001:000e74c0       ??_E?$Sink@VFileSink@g3@@@internal@g3@@UEAAPEAXI@Z 00000001800e84c0 f i g3log:logworker.obj
 0001:000e74c0       ??_G?$Sink@VFileSink@g3@@@internal@g3@@UEAAPEAXI@Z 00000001800e84c0 f i g3log:logworker.obj
 0001:000e7500       ??_E?$_Associated_state@H@std@@UEAAPEAXI@Z 00000001800e8500 f i g3log:logworker.obj
 0001:000e7500       ??_G?$_Associated_state@H@std@@UEAAPEAXI@Z 00000001800e8500 f i g3log:logworker.obj
 0001:000e7540       ??_G?$_Func_impl_no_alloc@U?$MoveOnCopy@V?$packaged_task@$$A6AXXZ@std@@@g3@@X$$V@std@@QEAAPEAXI@Z 00000001800e8540 f i g3log:logworker.obj
 0001:000e7580       ??_G?$_Func_impl_no_alloc@V<lambda_1>@?1??send@?$Sink@VFileSink@g3@@@internal@g3@@UEAAXU?$MoveOnCopy@ULogMessage@g3@@@5@@Z@X$$V@std@@QEAAPEAXI@Z 00000001800e8580 f i g3log:logworker.obj
 0001:000e75c0       ??_E?$_Packaged_state@$$A6AXXZ@std@@UEAAPEAXI@Z 00000001800e85c0 f i g3log:logworker.obj
 0001:000e75c0       ??_G?$_Packaged_state@$$A6AXXZ@std@@UEAAPEAXI@Z 00000001800e85c0 f i g3log:logworker.obj
 0001:000e7600       ??_E?$_Ref_count_obj2@U?$Sink@VFileSink@g3@@@internal@g3@@@std@@UEAAPEAXI@Z 00000001800e8600 f i g3log:logworker.obj
 0001:000e7600       ??_G?$_Ref_count_obj2@U?$Sink@VFileSink@g3@@@internal@g3@@@std@@UEAAPEAXI@Z 00000001800e8600 f i g3log:logworker.obj
 0001:000e7640       ??_E?$_Ref_count_obj2@V?$promise@X@std@@@std@@UEAAPEAXI@Z 00000001800e8640 f i g3log:logworker.obj
 0001:000e7640       ??_G?$_Ref_count_obj2@V?$promise@X@std@@@std@@UEAAPEAXI@Z 00000001800e8640 f i g3log:logworker.obj
 0001:000e7680       ??_G?$promise@X@std@@QEAAPEAXI@Z 00000001800e8680 f i g3log:logworker.obj
 0001:000e76c0       ??_G?$shared_ptr@USinkWrapper@internal@g3@@@std@@QEAAPEAXI@Z 00000001800e86c0 f i g3log:logworker.obj
 0001:000e7700       ??_E_Future_error_category2@std@@UEAAPEAXI@Z 00000001800e8700 f i g3log:logworker.obj
 0001:000e7700       ??_G_Future_error_category2@std@@UEAAPEAXI@Z 00000001800e8700 f i g3log:logworker.obj
 0001:000e7740       ??_Efuture_error@std@@UEAAPEAXI@Z 00000001800e8740 f i g3log:logworker.obj
 0001:000e7740       ??_Gfuture_error@std@@UEAAPEAXI@Z 00000001800e8740 f i g3log:logworker.obj
 0001:000e7780       ??_Elogic_error@std@@UEAAPEAXI@Z 00000001800e8780 f i g3log:logworker.obj
 0001:000e7780       ??_Glogic_error@std@@UEAAPEAXI@Z 00000001800e8780 f i g3log:logworker.obj
 0001:000e77c0       ?_Abandon@?$_Associated_state@H@std@@QEAAXXZ 00000001800e87c0 f i g3log:logworker.obj
 0001:000e78c0       ?_Abandon@?$_State_manager@H@std@@QEAAXXZ 00000001800e88c0 f i g3log:logworker.obj
 0001:000e78f0       ?_Already_has_stored_result@?$_Associated_state@H@std@@QEBA_NXZ 00000001800e88f0 f i g3log:logworker.obj
 0001:000e7910       ?_Already_retrieved@?$_Associated_state@H@std@@QEBA_NXZ 00000001800e8910 f i g3log:logworker.obj
 0001:000e7930       ?_Calculate_growth@?$vector@V?$shared_ptr@USinkWrapper@internal@g3@@@std@@V?$allocator@V?$shared_ptr@USinkWrapper@internal@g3@@@std@@@2@@std@@AEBA_K_K@Z 00000001800e8930 f i g3log:logworker.obj
 0001:000e79c0       ?_Call_immediate@?$_Packaged_state@$$A6AXXZ@std@@QEAAXXZ 00000001800e89c0 f i g3log:logworker.obj
 0001:000e7a00       ?_Change_array@?$vector@V?$shared_ptr@USinkWrapper@internal@g3@@@std@@V?$allocator@V?$shared_ptr@USinkWrapper@internal@g3@@@std@@@2@@std@@AEAAXQEAV?$shared_ptr@USinkWrapper@internal@g3@@@2@_K1@Z 00000001800e8a00 f i g3log:logworker.obj
 0001:000e7b00       ?_Copy@?$_Func_impl_no_alloc@U?$MoveOnCopy@V?$packaged_task@$$A6AXXZ@std@@@g3@@X$$V@std@@EEBAPEAV?$_Func_base@X$$V@2@PEAX@Z 00000001800e8b00 f i g3log:logworker.obj
 0001:000e7b30       ?_Copy@?$_Func_impl_no_alloc@V<lambda_1>@?1??removeAllSinks@LogWorker@g3@@QEAAXXZ@X$$V@std@@EEBAPEAV?$_Func_base@X$$V@2@PEAX@Z 00000001800e8b30 f i g3log:logworker.obj
 0001:000e7b70       ?_Copy@?$_Func_impl_no_alloc@V<lambda_1>@?1??send@?$Sink@VFileSink@g3@@@internal@g3@@UEAAXU?$MoveOnCopy@ULogMessage@g3@@@5@@Z@X$$V@std@@EEBAPEAV?$_Func_base@X$$V@2@PEAX@Z 00000001800e8b70 f i g3log:logworker.obj
 0001:000e7ba0       ?_Copy@?$_Func_impl_no_alloc@V?$_Binder@U_Unforced@std@@AEAP8FileSink@g3@@EAAXU?$MoveOnCopy@ULogMessage@g3@@@4@@ZPEAV34@AEBU?$_Ph@$00@2@@std@@XU?$MoveOnCopy@ULogMessage@g3@@@g3@@@std@@EEBAPEAV?$_Func_base@XU?$MoveOnCopy@ULogMessage@g3@@@g3@@@2@PEAX@Z 00000001800e8ba0 f i g3log:logworker.obj
 0001:000e7be0       ?_Copy_exception@exception_ptr@std@@SA?AV12@PEAXPEBX@Z 00000001800e8be0 f i g3log:logworker.obj
 0001:000e7c90       ?_Current_exception@exception_ptr@std@@SA?AV12@XZ 00000001800e8c90 f i g3log:logworker.obj
 0001:000e7cc0       ?_Decref@?$_Ptr_base@U?$Sink@VFileSink@g3@@@internal@g3@@@std@@IEAAXXZ 00000001800e8cc0 f i g3log:logworker.obj
 0001:000e7cc0       ?_Decref@?$_Ptr_base@V?$promise@X@std@@@std@@IEAAXXZ 00000001800e8cc0 f i g3log:logworker.obj
 0001:000e7cc0       ?_Decref@?$_Ptr_base@X@std@@IEAAXXZ 00000001800e8cc0 f i g3log:stacktrace_windows.obj
 0001:000e7cf0       ?_Delete_this@?$_Associated_state@H@std@@AEAAXXZ 00000001800e8cf0 f i g3log:logworker.obj
 0001:000e7d90       ?_Delete_this@?$_Func_impl_no_alloc@U?$MoveOnCopy@V?$packaged_task@$$A6AXXZ@std@@@g3@@X$$V@std@@EEAAX_N@Z 00000001800e8d90 f i g3log:logworker.obj
 0001:000e7dd0       ?_Delete_this@?$_Func_impl_no_alloc@P6AXU?$MoveOnCopy@V?$unique_ptr@UFatalMessage@g3@@U?$default_delete@UFatalMessage@g3@@@std@@@std@@@g3@@@ZXU12@@std@@EEAAX_N@Z 00000001800e8dd0 f i g3log:g3log.obj
 0001:000e7dd0       ?_Delete_this@?$_Func_impl_no_alloc@V<lambda_1>@?1??removeAllSinks@LogWorker@g3@@QEAAXXZ@X$$V@std@@EEAAX_N@Z 00000001800e8dd0 f i g3log:logworker.obj
 0001:000e7e00       ?_Delete_this@?$_Func_impl_no_alloc@V<lambda_1>@?1??send@?$Sink@VFileSink@g3@@@internal@g3@@UEAAXU?$MoveOnCopy@ULogMessage@g3@@@5@@Z@X$$V@std@@EEAAX_N@Z 00000001800e8e00 f i g3log:logworker.obj
 0001:000e7e40       ?_Delete_this@?$_Func_impl_no_alloc@V?$_Binder@U_Unforced@std@@AEAP8FileSink@g3@@EAAXU?$MoveOnCopy@ULogMessage@g3@@@4@@ZPEAV34@AEBU?$_Ph@$00@2@@std@@XU?$MoveOnCopy@ULogMessage@g3@@@g3@@@std@@EEAAX_N@Z 00000001800e8e40 f i g3log:logworker.obj
 0001:000e7e70       ?_Delete_this@?$_Ref_count_obj2@U?$Sink@VFileSink@g3@@@internal@g3@@@std@@EEAAXXZ 00000001800e8e70 f i g3log:logworker.obj
 0001:000e7e70       ?_Delete_this@?$_Ref_count_obj2@V?$promise@X@std@@@std@@EEAAXXZ 00000001800e8e70 f i g3log:logworker.obj
 0001:000e7ec0       ?_Destroy@?$_Ref_count_obj2@U?$Sink@VFileSink@g3@@@internal@g3@@@std@@EEAAXXZ 00000001800e8ec0 f i g3log:logworker.obj
 0001:000e7ee0       ?_Destroy@?$_Ref_count_obj2@V?$promise@X@std@@@std@@EEAAXXZ 00000001800e8ee0 f i g3log:logworker.obj
 0001:000e7f00       ?_Do_call@?$_Func_impl_no_alloc@U?$MoveOnCopy@V?$packaged_task@$$A6AXXZ@std@@@g3@@X$$V@std@@EEAAXXZ 00000001800e8f00 f i g3log:logworker.obj
 0001:000e7f20       ?_Do_call@?$_Func_impl_no_alloc@V<lambda_1>@?1??removeAllSinks@LogWorker@g3@@QEAAXXZ@X$$V@std@@EEAAXXZ 00000001800e8f20 f i g3log:logworker.obj
 0001:000e7f40       ?_Do_call@?$_Func_impl_no_alloc@V<lambda_1>@?1??send@?$Sink@VFileSink@g3@@@internal@g3@@UEAAXU?$MoveOnCopy@ULogMessage@g3@@@5@@Z@X$$V@std@@EEAAXXZ 00000001800e8f40 f i g3log:logworker.obj
 0001:000e7f60       ?_Do_call@?$_Func_impl_no_alloc@V?$_Binder@U_Unforced@std@@AEAP8FileSink@g3@@EAAXU?$MoveOnCopy@ULogMessage@g3@@@4@@ZPEAV34@AEBU?$_Ph@$00@2@@std@@XU?$MoveOnCopy@ULogMessage@g3@@@g3@@@std@@EEAAX$$QEAU?$MoveOnCopy@ULogMessage@g3@@@g3@@@Z 00000001800e8f60 f i g3log:logworker.obj
 0001:000e7f90       ?_Do_notify@?$_Associated_state@H@std@@EEAAXPEAV?$unique_lock@Vmutex@std@@@2@_N@Z 00000001800e8f90 f i g3log:logworker.obj
 0001:000e8010       ?_Future_error_map@std@@YAPEBDH@Z 00000001800e9010 f i g3log:logworker.obj
 0001:000e8070       ?_Get@?$_Func_impl_no_alloc@P6AXU?$MoveOnCopy@V?$unique_ptr@UFatalMessage@g3@@U?$default_delete@UFatalMessage@g3@@@std@@@std@@@g3@@@ZXU12@@std@@EEBAPEBXXZ 00000001800e9070 f i g3log:g3log.obj
 0001:000e8070       ?_Get@?$_Func_impl_no_alloc@U?$MoveOnCopy@V?$packaged_task@$$A6AXXZ@std@@@g3@@X$$V@std@@EEBAPEBXXZ 00000001800e9070 f i g3log:logworker.obj
 0001:000e8070       ?_Get@?$_Func_impl_no_alloc@V<lambda_1>@?1??removeAllSinks@LogWorker@g3@@QEAAXXZ@X$$V@std@@EEBAPEBXXZ 00000001800e9070 f i g3log:logworker.obj
 0001:000e8070       ?_Get@?$_Func_impl_no_alloc@V<lambda_1>@?1??send@?$Sink@VFileSink@g3@@@internal@g3@@UEAAXU?$MoveOnCopy@ULogMessage@g3@@@5@@Z@X$$V@std@@EEBAPEBXXZ 00000001800e9070 f i g3log:logworker.obj
 0001:000e8070       ?_Get@?$_Func_impl_no_alloc@V?$_Binder@U_Unforced@std@@AEAP8FileSink@g3@@EAAXU?$MoveOnCopy@ULogMessage@g3@@@4@@ZPEAV34@AEBU?$_Ph@$00@2@@std@@XU?$MoveOnCopy@ULogMessage@g3@@@g3@@@std@@EEBAPEBXXZ 00000001800e9070 f i g3log:logworker.obj
 0001:000e8090       ?_Get_state_for_future@?$_Promise@H@std@@QEAAAEAV?$_State_manager@H@2@XZ 00000001800e9090 f i g3log:logworker.obj
 0001:000e80f0       ?_Get_state_for_set@?$_Promise@H@std@@QEAAAEAV?$_State_manager@H@2@XZ 00000001800e90f0 f i g3log:logworker.obj
 0001:000e8130       ?_Get_value@?$_Associated_state@H@std@@UEAAAEAH_N@Z 00000001800e9130 f i g3log:logworker.obj
 0001:000e82b0       ?_Get_scary@?$_Tree@V?$_Tmap_traits@KV?$basic_string@DU?$char_traits@D@std@@V?$allocator@D@2@@std@@U?$less@K@2@V?$allocator@U?$pair@$$CBKV?$basic_string@DU?$char_traits@D@std@@V?$allocator@D@2@@std@@@std@@@2@$0A@@std@@@std@@IEAAPEAV?$_Tree_val@U?$_Tree_simple_types@U?$pair@$$CBKV?$basic_string@DU?$char_traits@D@std@@V?$allocator@D@2@@std@@@std@@@std@@@2@XZ 00000001800e92b0 f i g3log:stacktrace_windows.obj
 0001:000e82b0       ?_Get_scary@?$_Tree@V?$_Tmap_traits@KV?$basic_string@DU?$char_traits@D@std@@V?$allocator@D@2@@std@@U?$less@K@2@V?$allocator@U?$pair@$$CBKV?$basic_string@DU?$char_traits@D@std@@V?$allocator@D@2@@std@@@std@@@2@$0A@@std@@@std@@IEBAPEBV?$_Tree_val@U?$_Tree_simple_types@U?$pair@$$CBKV?$basic_string@DU?$char_traits@D@std@@V?$allocator@D@2@@std@@@std@@@std@@@2@XZ 00000001800e92b0 f i g3log:stacktrace_windows.obj
 0001:000e82b0       ?_Getal@?$_Tree@V?$_Tmap_traits@KV?$basic_string@DU?$char_traits@D@std@@V?$allocator@D@2@@std@@U?$less@K@2@V?$allocator@U?$pair@$$CBKV?$basic_string@DU?$char_traits@D@std@@V?$allocator@D@2@@std@@@std@@@2@$0A@@std@@@std@@IEAAAEAV?$allocator@U?$_Tree_node@U?$pair@$$CBKV?$basic_string@DU?$char_traits@D@std@@V?$allocator@D@2@@std@@@std@@PEAX@std@@@2@XZ 00000001800e92b0 f i g3log:stacktrace_windows.obj
 0001:000e82b0       ?_Getal@?$_Tree@V?$_Tmap_traits@KV?$basic_string@DU?$char_traits@D@std@@V?$allocator@D@2@@std@@U?$less@K@2@V?$allocator@U?$pair@$$CBKV?$basic_string@DU?$char_traits@D@std@@V?$allocator@D@2@@std@@@std@@@2@$0A@@std@@@std@@IEBAAEBV?$allocator@U?$_Tree_node@U?$pair@$$CBKV?$basic_string@DU?$char_traits@D@std@@V?$allocator@D@2@@std@@@std@@PEAX@std@@@2@XZ 00000001800e92b0 f i g3log:stacktrace_windows.obj
 0001:000e82b0       ?_Getal@?$vector@V?$shared_ptr@USinkWrapper@internal@g3@@@std@@V?$allocator@V?$shared_ptr@USinkWrapper@internal@g3@@@std@@@2@@std@@AEAAAEAV?$allocator@V?$shared_ptr@USinkWrapper@internal@g3@@@std@@@2@XZ 00000001800e92b0 f i g3log:logworker.obj
 0001:000e82b0       ?_Getal@?$vector@V?$shared_ptr@USinkWrapper@internal@g3@@@std@@V?$allocator@V?$shared_ptr@USinkWrapper@internal@g3@@@std@@@2@@std@@AEBAAEBV?$allocator@V?$shared_ptr@USinkWrapper@internal@g3@@@std@@@2@XZ 00000001800e92b0 f i g3log:logworker.obj
 0001:000e82b0       ?_Getal@?$vector@_KV?$allocator@_K@std@@@std@@AEAAAEAV?$allocator@_K@2@XZ 00000001800e92b0 f i g3log:stacktrace_windows.obj
 0001:000e82b0       ?_Getal@?$vector@_KV?$allocator@_K@std@@@std@@AEBAAEBV?$allocator@_K@2@XZ 00000001800e92b0 f i g3log:stacktrace_windows.obj
 0001:000e82b0       ?_Getcomp@?$_Tree@V?$_Tmap_traits@KV?$basic_string@DU?$char_traits@D@std@@V?$allocator@D@2@@std@@U?$less@K@2@V?$allocator@U?$pair@$$CBKV?$basic_string@DU?$char_traits@D@std@@V?$allocator@D@2@@std@@@std@@@2@$0A@@std@@@std@@IEBAAEBU?$less@K@2@XZ 00000001800e92b0 f i g3log:stacktrace_windows.obj
 0001:000e82b0       ?get_deleter@?$unique_ptr@UFatalMessage@g3@@U?$default_delete@UFatalMessage@g3@@@std@@@std@@QEAAAEAU?$default_delete@UFatalMessage@g3@@@2@XZ 00000001800e92b0 f i g3log:logworker.obj
 0001:000e82b0       ?get_deleter@?$unique_ptr@ULogMessage@g3@@U?$default_delete@ULogMessage@g3@@@std@@@std@@QEAAAEAU?$default_delete@ULogMessage@g3@@@2@XZ 00000001800e92b0 f i g3log:logworker.obj
 0001:000e82b0       ?get_deleter@?$unique_ptr@VFileSink@g3@@U?$default_delete@VFileSink@g3@@@std@@@std@@QEAAAEAU?$default_delete@VFileSink@g3@@@2@XZ 00000001800e92b0 f i g3log:logworker.obj
 0001:000e82d0       ?_Has_deferred_function@?$_Associated_state@H@std@@EEBA_NXZ 00000001800e92d0 f i g3log:logworker.obj
 0001:000e82e0       ?_Incref@?$_Ptr_base@U?$Sink@VFileSink@g3@@@internal@g3@@@std@@IEBAXXZ 00000001800e92e0 f i g3log:logworker.obj
 0001:000e82e0       ?_Incref@?$_Ptr_base@USinkWrapper@internal@g3@@@std@@IEBAXXZ 00000001800e92e0 f i g3log:logworker.obj
 0001:000e8310       ?_Is_ready@?$_Associated_state@H@std@@QEBA_NXZ 00000001800e9310 f i g3log:logworker.obj
 0001:000e8340       ?_Is_ready@?$_Promise@H@std@@QEBA_NXZ 00000001800e9340 f i g3log:logworker.obj
 0001:000e8360       ?_Is_ready@?$_State_manager@H@std@@QEBA_NXZ 00000001800e9360 f i g3log:logworker.obj
 0001:000e83b0       ?_Is_ready_at_thread_exit@?$_Associated_state@H@std@@QEBA_NXZ 00000001800e93b0 f i g3log:logworker.obj
 0001:000e83d0       ?_Is_ready_at_thread_exit@?$_Promise@H@std@@QEBA_NXZ 00000001800e93d0 f i g3log:logworker.obj
 0001:000e83f0       ?_Is_ready_at_thread_exit@?$_State_manager@H@std@@QEBA_NXZ 00000001800e93f0 f i g3log:logworker.obj
 0001:000e8440       ?_Is_valid@?$_Promise@H@std@@QEBA_NXZ 00000001800e9440 f i g3log:logworker.obj
 0001:000e8460       ?_Maybe_run_deferred_function@?$_Associated_state@H@std@@IEAAXAEAV?$unique_lock@Vmutex@std@@@2@@Z 00000001800e9460 f i g3log:logworker.obj
 0001:000e84b0       ?_Move@?$_Func_impl_no_alloc@U?$MoveOnCopy@V?$packaged_task@$$A6AXXZ@std@@@g3@@X$$V@std@@EEAAPEAV?$_Func_base@X$$V@2@PEAX@Z 00000001800e94b0 f i g3log:logworker.obj
 0001:000e84b0       ?_Move@?$_Func_impl_no_alloc@V<lambda_1>@?1??send@?$Sink@VFileSink@g3@@@internal@g3@@UEAAXU?$MoveOnCopy@ULogMessage@g3@@@5@@Z@X$$V@std@@EEAAPEAV?$_Func_base@X$$V@2@PEAX@Z 00000001800e94b0 f i g3log:logworker.obj
 0001:000e84c0       ?_Move@?$_Func_impl_no_alloc@V<lambda_1>@?1??removeAllSinks@LogWorker@g3@@QEAAXXZ@X$$V@std@@EEAAPEAV?$_Func_base@X$$V@2@PEAX@Z 00000001800e94c0 f i g3log:logworker.obj
 0001:000e8500       ?_Move@?$_Func_impl_no_alloc@V?$_Binder@U_Unforced@std@@AEAP8FileSink@g3@@EAAXU?$MoveOnCopy@ULogMessage@g3@@@4@@ZPEAV34@AEBU?$_Ph@$00@2@@std@@XU?$MoveOnCopy@ULogMessage@g3@@@g3@@@std@@EEAAPEAV?$_Func_base@XU?$MoveOnCopy@ULogMessage@g3@@@g3@@@2@PEAX@Z 00000001800e9500 f i g3log:logworker.obj
 0001:000e8540       ??$_Destroy_range@V?$allocator@_K@std@@@std@@YAXPEA_KQEA_KAEAV?$allocator@_K@0@@Z 00000001800e9540 f i g3log:stacktrace_windows.obj
 0001:000e8540       ?_Orphan_range@?$vector@V?$shared_ptr@USinkWrapper@internal@g3@@@std@@V?$allocator@V?$shared_ptr@USinkWrapper@internal@g3@@@std@@@2@@std@@AEBAXPEAV?$shared_ptr@USinkWrapper@internal@g3@@@2@0@Z 00000001800e9540 f i g3log:logworker.obj
 0001:000e8550       ?_Register@condition_variable@std@@QEAAXAEAV?$unique_lock@Vmutex@std@@@2@PEAH@Z 00000001800e9550 f i g3log:logworker.obj
 0001:000e85b0       ?_Release@?$_Associated_state@H@std@@QEAAXXZ 00000001800e95b0 f i g3log:logworker.obj
 0001:000e85f0       ?_Release@?$_Uninitialized_backout_al@V?$allocator@V?$shared_ptr@USinkWrapper@internal@g3@@@std@@@std@@@std@@QEAAPEAV?$shared_ptr@USinkWrapper@internal@g3@@@2@XZ 00000001800e95f0 f i g3log:logworker.obj
 0001:000e85f0       ?_Release@?$_Uninitialized_backout_al@V?$allocator@_K@std@@@std@@QEAAPEA_KXZ 00000001800e95f0 f i g3log:stacktrace_windows.obj
 0001:000e8610       ?_Retain@?$_Associated_state@H@std@@QEAAXXZ 00000001800e9610 f i g3log:logworker.obj
 0001:000e8630       ??$_Adl_verify_range@V?$_String_const_iterator@V?$_String_val@U?$_Simple_types@D@std@@@std@@@std@@V12@@std@@YAXAEBV?$_String_const_iterator@V?$_String_val@U?$_Simple_types@D@std@@@std@@@0@0@Z 00000001800e9630 f i g3log:filesink.obj
 0001:000e8630       ??$_Adl_verify_range@V?$_String_iterator@V?$_String_val@U?$_Simple_types@D@std@@@std@@@std@@V12@@std@@YAXAEBV?$_String_iterator@V?$_String_val@U?$_Simple_types@D@std@@@std@@@0@0@Z 00000001800e9630 f i g3log:filesink.obj
 0001:000e8630       ??$_Pocca@V?$allocator@D@std@@@std@@YAXAEAV?$allocator@D@0@AEBV10@@Z 00000001800e9630 f i g3log:filesink.obj
 0001:000e8630       ??$_Pocs@V?$allocator@D@std@@@std@@YAXAEAV?$allocator@D@0@0@Z 00000001800e9630 f i g3log:logmessage.obj
 0001:000e8630       ?_Run_deferred_function@?$_Associated_state@H@std@@EEAAXAEAV?$unique_lock@Vmutex@std@@@2@@Z 00000001800e9630 f i g3log:logworker.obj
 0001:000e8640       ?_Set_exception@?$_Associated_state@H@std@@QEAAXVexception_ptr@2@_N@Z 00000001800e9640 f i g3log:logworker.obj
 0001:000e86c0       ?_Set_exception@?$_State_manager@H@std@@QEAAXVexception_ptr@2@_N@Z 00000001800e96c0 f i g3log:logworker.obj
 0001:000e8750       ?_Set_exception_raw@?$_Associated_state@H@std@@QEAAXVexception_ptr@2@PEAV?$unique_lock@Vmutex@std@@@2@_N@Z 00000001800e9750 f i g3log:logworker.obj
 0001:000e87d0       ?_Set_value@?$_Associated_state@H@std@@QEAAX$$QEAH_N@Z 00000001800e97d0 f i g3log:logworker.obj
 0001:000e8830       ?_Set_value_raw@?$_Associated_state@H@std@@QEAAX$$QEAHPEAV?$unique_lock@Vmutex@std@@@2@_N@Z 00000001800e9830 f i g3log:logworker.obj
 0001:000e88a0       ?_Target_type@?$_Func_impl_no_alloc@U?$MoveOnCopy@V?$packaged_task@$$A6AXXZ@std@@@g3@@X$$V@std@@EEBAAEBVtype_info@@XZ 00000001800e98a0 f i g3log:logworker.obj
 0001:000e88b0       ?_Target_type@?$_Func_impl_no_alloc@V<lambda_1>@?1??removeAllSinks@LogWorker@g3@@QEAAXXZ@X$$V@std@@EEBAAEBVtype_info@@XZ 00000001800e98b0 f i g3log:logworker.obj
 0001:000e88c0       ?_Target_type@?$_Func_impl_no_alloc@V<lambda_1>@?1??send@?$Sink@VFileSink@g3@@@internal@g3@@UEAAXU?$MoveOnCopy@ULogMessage@g3@@@5@@Z@X$$V@std@@EEBAAEBVtype_info@@XZ 00000001800e98c0 f i g3log:logworker.obj
 0001:000e88d0       ?_Target_type@?$_Func_impl_no_alloc@V?$_Binder@U_Unforced@std@@AEAP8FileSink@g3@@EAAXU?$MoveOnCopy@ULogMessage@g3@@@4@@ZPEAV34@AEBU?$_Ph@$00@2@@std@@XU?$MoveOnCopy@ULogMessage@g3@@@g3@@@std@@EEBAAEBVtype_info@@XZ 00000001800e98d0 f i g3log:logworker.obj
 0001:000e88e0       ?_Throw_future_error2@std@@YAXW4future_errc@1@@Z 00000001800e98e0 f i g3log:logworker.obj
 0001:000e8910       ?_Tidy@?$vector@V?$shared_ptr@USinkWrapper@internal@g3@@@std@@V?$allocator@V?$shared_ptr@USinkWrapper@internal@g3@@@std@@@2@@std@@AEAAXXZ 00000001800e9910 f i g3log:logworker.obj
 0001:000e89e0       ?_Unregister@condition_variable@std@@QEAAXAEAVmutex@2@@Z 00000001800e99e0 f i g3log:logworker.obj
 0001:000e8a10       ?_Wait@?$_Associated_state@H@std@@UEAAXXZ 00000001800e9a10 f i g3log:logworker.obj
 0001:000e8a80       ?_Xlength@?$vector@V?$shared_ptr@USinkWrapper@internal@g3@@@std@@V?$allocator@V?$shared_ptr@USinkWrapper@internal@g3@@@std@@@2@@std@@CAXXZ 00000001800e9a80 f i g3log:logworker.obj
 0001:000e8a80       ?_Xlength@?$vector@_KV?$allocator@_K@std@@@std@@CAXXZ 00000001800e9a80 f i g3log:stacktrace_windows.obj
 0001:000e8aa0       ?allocate@?$allocator@V?$shared_ptr@USinkWrapper@internal@g3@@@std@@@std@@QEAAPEAV?$shared_ptr@USinkWrapper@internal@g3@@@2@_K@Z 00000001800e9aa0 f i g3log:logworker.obj
 0001:000e8ad0       ?capacity@?$vector@V?$shared_ptr@USinkWrapper@internal@g3@@@std@@V?$allocator@V?$shared_ptr@USinkWrapper@internal@g3@@@std@@@2@@std@@QEBA_KXZ 00000001800e9ad0 f i g3log:logworker.obj
 0001:000e8b00       ?clear@?$vector@V?$shared_ptr@USinkWrapper@internal@g3@@@std@@V?$allocator@V?$shared_ptr@USinkWrapper@internal@g3@@@std@@@2@@std@@QEAAXXZ 00000001800e9b00 f i g3log:logworker.obj
 0001:000e8ba0       ?current_exception@std@@YA?AVexception_ptr@1@XZ 00000001800e9ba0 f i g3log:logworker.obj
 0001:000e8bc0       ?deallocate@?$allocator@V?$shared_ptr@USinkWrapper@internal@g3@@@std@@@std@@QEAAXQEAV?$shared_ptr@USinkWrapper@internal@g3@@@2@_K@Z 00000001800e9bc0 f i g3log:logworker.obj
 0001:000e8bf0       ?empty@?$vector@V?$shared_ptr@USinkWrapper@internal@g3@@@std@@V?$allocator@V?$shared_ptr@USinkWrapper@internal@g3@@@std@@@2@@std@@QEBA_NXZ 00000001800e9bf0 f i g3log:logworker.obj
 0001:000e8c30       ?future_category@std@@YAAEBVerror_category@1@XZ 00000001800e9c30 f i g3log:logworker.obj
 0001:000e8c40       ?get_future@?$packaged_task@$$A6AXXZ@std@@QEAA?AV?$future@X@2@XZ 00000001800e9c40 f i g3log:logworker.obj
 0001:000e8c40       ?get_future@?$promise@X@std@@QEAA?AV?$future@X@2@XZ 00000001800e9c40 f i g3log:logworker.obj
 0001:000e8ca0       ?make_error_code@std@@YA?AVerror_code@1@W4future_errc@1@@Z 00000001800e9ca0 f i g3log:logworker.obj
 0001:000e8cd0       ?max_size@?$_Default_allocator_traits@V?$allocator@V?$shared_ptr@USinkWrapper@internal@g3@@@std@@@std@@@std@@SA_KAEBV?$allocator@V?$shared_ptr@USinkWrapper@internal@g3@@@std@@@2@@Z 00000001800e9cd0 f i g3log:logworker.obj
 0001:000e8ce0       ?max_size@?$vector@V?$shared_ptr@USinkWrapper@internal@g3@@@std@@V?$allocator@V?$shared_ptr@USinkWrapper@internal@g3@@@std@@@2@@std@@QEBA_KXZ 00000001800e9ce0 f i g3log:logworker.obj
 0001:000e8d30       ?message@_Future_error_category2@std@@UEBA?AV?$basic_string@DU?$char_traits@D@std@@V?$allocator@D@2@@2@H@Z 00000001800e9d30 f i g3log:logworker.obj
 0001:000e8db0       ?name@_Future_error_category2@std@@UEBAPEBDXZ 00000001800e9db0 f i g3log:logworker.obj
 0001:000e8dc0       ?push_back@?$vector@V?$shared_ptr@USinkWrapper@internal@g3@@@std@@V?$allocator@V?$shared_ptr@USinkWrapper@internal@g3@@@std@@@2@@std@@QEAAXAEBV?$shared_ptr@USinkWrapper@internal@g3@@@2@@Z 00000001800e9dc0 f i g3log:logworker.obj
 0001:000e8df0       ?release@?$unique_lock@Vmutex@std@@@std@@QEAAPEAVmutex@2@XZ 00000001800e9df0 f i g3log:logworker.obj
 0001:000e8e30       ?release@?$unique_ptr@UFatalMessage@g3@@U?$default_delete@UFatalMessage@g3@@@std@@@std@@QEAAPEAUFatalMessage@g3@@XZ 00000001800e9e30 f i g3log:logworker.obj
 0001:000e8e30       ?release@?$unique_ptr@ULogMessage@g3@@U?$default_delete@ULogMessage@g3@@@std@@@std@@QEAAPEAULogMessage@g3@@XZ 00000001800e9e30 f i g3log:logworker.obj
 0001:000e8e30       ?release@?$unique_ptr@V?$basic_ofstream@DU?$char_traits@D@std@@@std@@U?$default_delete@V?$basic_ofstream@DU?$char_traits@D@std@@@std@@@2@@std@@QEAAPEAV?$basic_ofstream@DU?$char_traits@D@std@@@2@XZ 00000001800e9e30 f i g3log:filesink.obj
 0001:000e8e30       ?release@?$unique_ptr@VFileSink@g3@@U?$default_delete@VFileSink@g3@@@std@@@std@@QEAAPEAVFileSink@g3@@XZ 00000001800e9e30 f i g3log:logworker.obj
 0001:000e8e60       ?removeAllSinks@LogWorker@g3@@QEAAXXZ 00000001800e9e60 f i g3log:logworker.obj
 0001:000e8ed0       ?rethrow_exception@std@@YAXVexception_ptr@1@@Z 00000001800e9ed0 f i g3log:logworker.obj
 0001:000e8f00       ?send@?$Sink@VFileSink@g3@@@internal@g3@@UEAAXU?$MoveOnCopy@ULogMessage@g3@@@3@@Z 00000001800e9f00 f i g3log:logworker.obj
 0001:000e8fe0       ?set_exception@?$promise@X@std@@QEAAXVexception_ptr@2@@Z 00000001800e9fe0 f i g3log:logworker.obj
 0001:000e9050       ?valid@?$_State_manager@H@std@@QEBA_NXZ 00000001800ea050 f i g3log:logworker.obj
 0001:000e90b0       ?wait@?$_State_manager@H@std@@QEBAXXZ 00000001800ea0b0 f i g3log:logworker.obj
 0001:000e90f0       ?what@future_error@std@@UEBAPEBDXZ 00000001800ea0f0 f i g3log:logworker.obj
 0001:000e9120       ?write@LogMessage@g3@@QEBAAEAV?$basic_string@DU?$char_traits@D@std@@V?$allocator@D@2@@std@@XZ 00000001800ea120 f i g3log:logworker.obj
 0001:000e9140       ?initializeLogging@g3@@YAXPEAVLogWorker@1@@Z 00000001800ea140 f   g3log:g3log.obj
 0001:000e9410       ?setFatalPreLoggingHook@g3@@YAXV?$function@$$A6AXXZ@std@@@Z 00000001800ea410 f   g3log:g3log.obj
 0001:000e94c0       ?setFatalExitHandler@g3@@YAXV?$function@$$A6AXU?$MoveOnCopy@V?$unique_ptr@UFatalMessage@g3@@U?$default_delete@UFatalMessage@g3@@@std@@@std@@@g3@@@Z@std@@@Z 00000001800ea4c0 f   g3log:g3log.obj
 0001:000e94f0       ?isLoggingInitialized@internal@g3@@YA_NXZ 00000001800ea4f0 f   g3log:g3log.obj
 0001:000e9520       ?saveMessage@internal@g3@@YAXPEBD0H0AEBULEVELS@@0H0@Z 00000001800ea520 f   g3log:g3log.obj
 0001:000e9920       ?pushMessageToLogger@internal@g3@@YAXU?$MoveOnCopy@V?$unique_ptr@ULogMessage@g3@@U?$default_delete@ULogMessage@g3@@@std@@@std@@@2@@Z 00000001800ea920 f   g3log:g3log.obj
 0001:000e99b0       ?pushFatalMessageToLogger@internal@g3@@YAXU?$MoveOnCopy@V?$unique_ptr@UFatalMessage@g3@@U?$default_delete@UFatalMessage@g3@@@std@@@std@@@2@@Z 00000001800ea9b0 f   g3log:g3log.obj
 0001:000e9cb0       ?fatalCall@internal@g3@@YAXU?$MoveOnCopy@V?$unique_ptr@UFatalMessage@g3@@U?$default_delete@UFatalMessage@g3@@@std@@@std@@@2@@Z 00000001800eacb0 f   g3log:g3log.obj
 0001:000e9d00       ?shutDownLogging@internal@g3@@YAXXZ 00000001800ead00 f   g3log:g3log.obj
 0001:000e9d40       ?shutDownLoggingForActiveOnly@internal@g3@@YA_NPEAVLogWorker@2@@Z 00000001800ead40 f   g3log:g3log.obj
 0001:000ea220       ??$?0A6AXU?$MoveOnCopy@V?$unique_ptr@UFatalMessage@g3@@U?$default_delete@UFatalMessage@g3@@@std@@@std@@@g3@@@Z$0A@@?$_Func_impl_no_alloc@P6AXU?$MoveOnCopy@V?$unique_ptr@UFatalMessage@g3@@U?$default_delete@UFatalMessage@g3@@@std@@@std@@@g3@@@ZXU12@@std@@QEAA@A6AXU?$MoveOnCopy@V?$unique_ptr@UFatalMessage@g3@@U?$default_delete@UFatalMessage@g3@@@std@@@std@@@g3@@@Z@Z 00000001800eb220 f i g3log:g3log.obj
 0001:000ea260       ??$?0A6AXU?$MoveOnCopy@V?$unique_ptr@UFatalMessage@g3@@U?$default_delete@UFatalMessage@g3@@@std@@@std@@@g3@@@Z$0A@@?$function@$$A6AXU?$MoveOnCopy@V?$unique_ptr@UFatalMessage@g3@@U?$default_delete@UFatalMessage@g3@@@std@@@std@@@g3@@@Z@std@@QEAA@A6AXU?$MoveOnCopy@V?$unique_ptr@UFatalMessage@g3@@U?$default_delete@UFatalMessage@g3@@@std@@@std@@@g3@@@Z@Z 00000001800eb260 f i g3log:g3log.obj
 0001:000ea2a0       ??$?0AEBQ6AXU?$MoveOnCopy@V?$unique_ptr@UFatalMessage@g3@@U?$default_delete@UFatalMessage@g3@@@std@@@std@@@g3@@@Z$0A@@?$_Func_impl_no_alloc@P6AXU?$MoveOnCopy@V?$unique_ptr@UFatalMessage@g3@@U?$default_delete@UFatalMessage@g3@@@std@@@std@@@g3@@@ZXU12@@std@@QEAA@AEBQ6AXU?$MoveOnCopy@V?$unique_ptr@UFatalMessage@g3@@U?$default_delete@UFatalMessage@g3@@@std@@@std@@@g3@@@Z@Z 00000001800eb2a0 f i g3log:g3log.obj
 0001:000ea2a0       ??$?0P6AXU?$MoveOnCopy@V?$unique_ptr@UFatalMessage@g3@@U?$default_delete@UFatalMessage@g3@@@std@@@std@@@g3@@@Z$0A@@?$_Func_impl_no_alloc@P6AXU?$MoveOnCopy@V?$unique_ptr@UFatalMessage@g3@@U?$default_delete@UFatalMessage@g3@@@std@@@std@@@g3@@@ZXU12@@std@@QEAA@$$QEAP6AXU?$MoveOnCopy@V?$unique_ptr@UFatalMessage@g3@@U?$default_delete@UFatalMessage@g3@@@std@@@std@@@g3@@@Z@Z 00000001800eb2a0 f i g3log:g3log.obj
 0001:000ea330       ??$?0H$0A@@?$duration@_JU?$ratio@$00$00@std@@@chrono@std@@QEAA@AEBH@Z 00000001800eb330 f i g3log:g3log.obj
 0001:000ea390       ??$?4U?$default_delete@ULogMessage@g3@@@std@@$0A@@?$unique_ptr@ULogMessage@g3@@U?$default_delete@ULogMessage@g3@@@std@@@std@@QEAAAEAV01@$$QEAV01@@Z 00000001800eb390 f i g3log:g3log.obj
 0001:000ea3f0       ??$_Call@AEAP6AXU?$MoveOnCopy@V?$unique_ptr@UFatalMessage@g3@@U?$default_delete@UFatalMessage@g3@@@std@@@std@@@g3@@@ZU12@@?$_Invoker_ret@X@std@@SAXAEAP6AXU?$MoveOnCopy@V?$unique_ptr@UFatalMessage@g3@@U?$default_delete@UFatalMessage@g3@@@std@@@std@@@g3@@@Z$$QEAU23@@Z 00000001800eb3f0 f i g3log:g3log.obj
 0001:000ea440       ??$_Reset@A6AXU?$MoveOnCopy@V?$unique_ptr@UFatalMessage@g3@@U?$default_delete@UFatalMessage@g3@@@std@@@std@@@g3@@@Z@?$_Func_class@XU?$MoveOnCopy@V?$unique_ptr@UFatalMessage@g3@@U?$default_delete@UFatalMessage@g3@@@std@@@std@@@g3@@@std@@IEAAXA6AXU?$MoveOnCopy@V?$unique_ptr@UFatalMessage@g3@@U?$default_delete@UFatalMessage@g3@@@std@@@std@@@g3@@@Z@Z 00000001800eb440 f i g3log:g3log.obj
 0001:000ea650       ??$invoke@AEAP6AXU?$MoveOnCopy@V?$unique_ptr@UFatalMessage@g3@@U?$default_delete@UFatalMessage@g3@@@std@@@std@@@g3@@@ZU12@$$V@std@@YAXAEAP6AXU?$MoveOnCopy@V?$unique_ptr@UFatalMessage@g3@@U?$default_delete@UFatalMessage@g3@@@std@@@std@@@g3@@@Z$$QEAU12@@Z 00000001800eb650 f i g3log:g3log.obj
 0001:000ea720       ??$make_unique@UFatalMessage@g3@@AEAULogMessage@2@AEAH$0A@@std@@YA?AV?$unique_ptr@UFatalMessage@g3@@U?$default_delete@UFatalMessage@g3@@@std@@@0@AEAULogMessage@g3@@AEAH@Z 00000001800eb720 f i g3log:g3log.obj
 0001:000ea7b0       ??$make_unique@ULogMessage@g3@@AEAPEBDAEAHAEAPEBDAEAULEVELS@@$0A@@std@@YA?AV?$unique_ptr@ULogMessage@g3@@U?$default_delete@ULogMessage@g3@@@std@@@0@AEAPEBDAEAH0AEAULEVELS@@@Z 00000001800eb7b0 f i g3log:g3log.obj
 0001:000ea930       ??0?$MoveOnCopy@V?$unique_ptr@UFatalMessage@g3@@U?$default_delete@UFatalMessage@g3@@@std@@@std@@@g3@@QEAA@$$QEAV?$unique_ptr@UFatalMessage@g3@@U?$default_delete@UFatalMessage@g3@@@std@@@std@@@Z 00000001800eb930 f i g3log:g3log.obj
 0001:000ea930       ??0?$MoveOnCopy@V?$unique_ptr@ULogMessage@g3@@U?$default_delete@ULogMessage@g3@@@std@@@std@@@g3@@QEAA@$$QEAV?$unique_ptr@ULogMessage@g3@@U?$default_delete@ULogMessage@g3@@@std@@@std@@@Z 00000001800eb930 f i g3log:g3log.obj
 0001:000ea970       ??0?$_Func_class@XU?$MoveOnCopy@V?$unique_ptr@UFatalMessage@g3@@U?$default_delete@UFatalMessage@g3@@@std@@@std@@@g3@@@std@@QEAA@XZ 00000001800eb970 f i g3log:g3log.obj
 0001:000ea990       ??0?$function@$$A6AXU?$MoveOnCopy@V?$unique_ptr@UFatalMessage@g3@@U?$default_delete@UFatalMessage@g3@@@std@@@std@@@g3@@@Z@std@@QEAA@AEBV01@@Z 00000001800eb990 f i g3log:g3log.obj
 0001:000ea9d0       ??1?$_Func_class@XU?$MoveOnCopy@V?$unique_ptr@UFatalMessage@g3@@U?$default_delete@UFatalMessage@g3@@@std@@@std@@@g3@@@std@@QEAA@XZ 00000001800eb9d0 f i g3log:g3log.obj
 0001:000ea9f0       ??1?$function@$$A6AXU?$MoveOnCopy@V?$unique_ptr@UFatalMessage@g3@@U?$default_delete@UFatalMessage@g3@@@std@@@std@@@g3@@@Z@std@@QEAA@XZ 00000001800eb9f0 f i g3log:g3log.obj
 0001:000eaa10       ??1_Init_once_completer@std@@QEAA@XZ 00000001800eba10 f i g3log:g3log.obj
 0001:000eaa50       ??4?$function@$$A6AXU?$MoveOnCopy@V?$unique_ptr@UFatalMessage@g3@@U?$default_delete@UFatalMessage@g3@@@std@@@std@@@g3@@@Z@std@@QEAAAEAV01@AEBV01@@Z 00000001800eba50 f i g3log:g3log.obj
 0001:000eaad0       ??4?$function@$$A6AXXZ@std@@QEAAAEAV01@AEBV01@@Z 00000001800ebad0 f i g3log:g3log.obj
 0001:000eab50       ??B?$unique_ptr@ULogMessage@g3@@U?$default_delete@ULogMessage@g3@@@std@@@std@@QEBA_NXZ 00000001800ebb50 f i g3log:g3log.obj
 0001:000eab50       ??B?$unique_ptr@V?$basic_ofstream@DU?$char_traits@D@std@@@std@@U?$default_delete@V?$basic_ofstream@DU?$char_traits@D@std@@@std@@@2@@std@@QEBA_NXZ 00000001800ebb50 f i g3log:filesink.obj
 0001:000eab80       ??E?$_Atomic_integral@_K$07@std@@QEAA_KXZ 00000001800ebb80 f i g3log:g3log.obj
 0001:000eabb0       ??R?$_Func_class@XU?$MoveOnCopy@V?$unique_ptr@UFatalMessage@g3@@U?$default_delete@UFatalMessage@g3@@@std@@@std@@@g3@@@std@@QEBAXU?$MoveOnCopy@V?$unique_ptr@UFatalMessage@g3@@U?$default_delete@UFatalMessage@g3@@@std@@@std@@@g3@@@Z 00000001800ebbb0 f i g3log:g3log.obj
 0001:000eac20       ?_Copy@?$_Func_impl_no_alloc@P6AXU?$MoveOnCopy@V?$unique_ptr@UFatalMessage@g3@@U?$default_delete@UFatalMessage@g3@@@std@@@std@@@g3@@@ZXU12@@std@@EEBAPEAV?$_Func_base@XU?$MoveOnCopy@V?$unique_ptr@UFatalMessage@g3@@U?$default_delete@UFatalMessage@g3@@@std@@@std@@@g3@@@2@PEAX@Z 00000001800ebc20 f i g3log:g3log.obj
 0001:000eac60       ?_Do_call@?$_Func_impl_no_alloc@P6AXU?$MoveOnCopy@V?$unique_ptr@UFatalMessage@g3@@U?$default_delete@UFatalMessage@g3@@@std@@@std@@@g3@@@ZXU12@@std@@EEAAX$$QEAU?$MoveOnCopy@V?$unique_ptr@UFatalMessage@g3@@U?$default_delete@UFatalMessage@g3@@@std@@@std@@@g3@@@Z 00000001800ebc60 f i g3log:g3log.obj
 0001:000eac90       ?_Empty@?$_Func_class@XU?$MoveOnCopy@V?$unique_ptr@UFatalMessage@g3@@U?$default_delete@UFatalMessage@g3@@@std@@@std@@@g3@@@std@@IEBA_NXZ 00000001800ebc90 f i g3log:g3log.obj
 0001:000eacd0       ?_Getimpl@?$_Func_class@XU?$MoveOnCopy@V?$unique_ptr@UFatalMessage@g3@@U?$default_delete@UFatalMessage@g3@@@std@@@std@@@g3@@@std@@AEBAPEAV?$_Func_base@XU?$MoveOnCopy@V?$unique_ptr@UFatalMessage@g3@@U?$default_delete@UFatalMessage@g3@@@std@@@std@@@g3@@@2@XZ 00000001800ebcd0 f i g3log:g3log.obj
 0001:000eacf0       ?_Local@?$_Func_class@XU?$MoveOnCopy@V?$unique_ptr@UFatalMessage@g3@@U?$default_delete@UFatalMessage@g3@@@std@@@std@@@g3@@@std@@AEBA_NXZ 00000001800ebcf0 f i g3log:g3log.obj
 0001:000ead30       ?_Move@?$_Func_impl_no_alloc@P6AXU?$MoveOnCopy@V?$unique_ptr@UFatalMessage@g3@@U?$default_delete@UFatalMessage@g3@@@std@@@std@@@g3@@@ZXU12@@std@@EEAAPEAV?$_Func_base@XU?$MoveOnCopy@V?$unique_ptr@UFatalMessage@g3@@U?$default_delete@UFatalMessage@g3@@@std@@@std@@@g3@@@2@PEAX@Z 00000001800ebd30 f i g3log:g3log.obj
 0001:000ead70       ?_Reset_copy@?$_Func_class@XU?$MoveOnCopy@V?$unique_ptr@UFatalMessage@g3@@U?$default_delete@UFatalMessage@g3@@@std@@@std@@@g3@@@std@@IEAAXAEBV12@@Z 00000001800ebd70 f i g3log:g3log.obj
 0001:000eade0       ?_Reset_move@?$_Func_class@XU?$MoveOnCopy@V?$unique_ptr@UFatalMessage@g3@@U?$default_delete@UFatalMessage@g3@@@std@@@std@@@g3@@@std@@IEAAX$$QEAV12@@Z 00000001800ebde0 f i g3log:g3log.obj
 0001:000eae90       ?_Set@?$_Func_class@XU?$MoveOnCopy@V?$unique_ptr@UFatalMessage@g3@@U?$default_delete@UFatalMessage@g3@@@std@@@std@@@g3@@@std@@AEAAXPEAV?$_Func_base@XU?$MoveOnCopy@V?$unique_ptr@UFatalMessage@g3@@U?$default_delete@UFatalMessage@g3@@@std@@@std@@@g3@@@2@@Z 00000001800ebe90 f i g3log:g3log.obj
 0001:000eaec0       ?_Swap@?$_Func_class@X$$V@std@@IEAAXAEAV12@@Z 00000001800ebec0 f i g3log:g3log.obj
 0001:000eafb0       ?_Swap@?$_Func_class@XU?$MoveOnCopy@V?$unique_ptr@UFatalMessage@g3@@U?$default_delete@UFatalMessage@g3@@@std@@@std@@@g3@@@std@@IEAAXAEAV12@@Z 00000001800ebfb0 f i g3log:g3log.obj
 0001:000eb0a0       ?_Target_type@?$_Func_impl_no_alloc@P6AXU?$MoveOnCopy@V?$unique_ptr@UFatalMessage@g3@@U?$default_delete@UFatalMessage@g3@@@std@@@std@@@g3@@@ZXU12@@std@@EEBAAEBVtype_info@@XZ 00000001800ec0a0 f i g3log:g3log.obj
 0001:000eb0b0       ?_Tidy@?$_Func_class@XU?$MoveOnCopy@V?$unique_ptr@UFatalMessage@g3@@U?$default_delete@UFatalMessage@g3@@@std@@@std@@@g3@@@std@@IEAAXXZ 00000001800ec0b0 f i g3log:g3log.obj
 0001:000eb130       ?boolalpha@std@@YAAEAVios_base@1@AEAV21@@Z 00000001800ec130 f i g3log:g3log.obj
 0001:000eb160       ?load@?$_Atomic_storage@_K$07@std@@QEBA_KXZ 00000001800ec160 f i g3log:g3log.obj
 0001:000eb1a0       ?message@LogMessage@g3@@QEBA?AV?$basic_string@DU?$char_traits@D@std@@V?$allocator@D@2@@std@@XZ 00000001800ec1a0 f i g3log:g3log.obj
 0001:000eb1f0       ?release@?$MoveOnCopy@V?$unique_ptr@ULogMessage@g3@@U?$default_delete@ULogMessage@g3@@@std@@@std@@@g3@@QEAA?AV?$unique_ptr@ULogMessage@g3@@U?$default_delete@ULogMessage@g3@@@std@@@std@@XZ 00000001800ec1f0 f i g3log:g3log.obj
 0001:000eb230       ?reset@?$unique_ptr@ULogMessage@g3@@U?$default_delete@ULogMessage@g3@@@std@@@std@@QEAAXPEAULogMessage@g3@@@Z 00000001800ec230 f i g3log:g3log.obj
 0001:000eb290       ?setExpression@LogMessage@g3@@QEAAXV?$basic_string@DU?$char_traits@D@std@@V?$allocator@D@2@@std@@@Z 00000001800ec290 f i g3log:g3log.obj
 0001:000eb2d0       ?store@?$_Atomic_storage@_K$07@std@@QEAAX_K@Z 00000001800ec2d0 f i g3log:g3log.obj
 0001:000eb320       ?swap@?$function@$$A6AXU?$MoveOnCopy@V?$unique_ptr@UFatalMessage@g3@@U?$default_delete@UFatalMessage@g3@@@std@@@std@@@g3@@@Z@std@@QEAAXAEAV12@@Z 00000001800ec320 f i g3log:g3log.obj
 0001:000eb350       ?swap@?$function@$$A6AXXZ@std@@QEAAXAEAV12@@Z 00000001800ec350 f i g3log:g3log.obj
 0001:000eb380       ?timestamp@LogMessage@g3@@QEBA?AV?$basic_string@DU?$char_traits@D@std@@V?$allocator@D@2@@std@@AEBV34@@Z 00000001800ec380 f   g3log:logmessage.obj
 0001:000eb3e0       ?threadID@LogMessage@g3@@QEBA?AV?$basic_string@DU?$char_traits@D@std@@V?$allocator@D@2@@std@@XZ 00000001800ec3e0 f   g3log:logmessage.obj
 0001:000eb460       ??4LogMessage@g3@@QEAAAEAU01@U01@@Z 00000001800ec460 f   g3log:logmessage.obj
 0001:000eb4b0       ??0LogMessage@g3@@QEAA@V?$basic_string@DU?$char_traits@D@std@@V?$allocator@D@2@@std@@H0ULEVELS@@@Z 00000001800ec4b0 f   g3log:logmessage.obj
 0001:000eb5e0       ??0LogMessage@g3@@QEAA@AEBV?$basic_string@DU?$char_traits@D@std@@V?$allocator@D@2@@std@@@Z 00000001800ec5e0 f   g3log:logmessage.obj
 0001:000eb710       ??0LogMessage@g3@@QEAA@AEBU01@@Z 00000001800ec710 f   g3log:logmessage.obj
 0001:000eb870       ??0LogMessage@g3@@QEAA@$$QEAU01@@Z 00000001800ec870 f   g3log:logmessage.obj
 0001:000eb9d0       ?splitFileName@LogMessage@g3@@SA?AV?$basic_string@DU?$char_traits@D@std@@V?$allocator@D@2@@std@@AEBV34@@Z 00000001800ec9d0 f   g3log:logmessage.obj
 0001:000eba40       ?fatalSignalToString@LogMessage@g3@@SA?AV?$basic_string@DU?$char_traits@D@std@@V?$allocator@D@2@@std@@AEBU12@@Z 00000001800eca40 f   g3log:logmessage.obj
 0001:000ebc70       ?fatalExceptionToString@LogMessage@g3@@SA?AV?$basic_string@DU?$char_traits@D@std@@V?$allocator@D@2@@std@@AEBU12@@Z 00000001800ecc70 f   g3log:logmessage.obj
 0001:000ebea0       ?fatalLogToString@LogMessage@g3@@SA?AV?$basic_string@DU?$char_traits@D@std@@V?$allocator@D@2@@std@@AEBU12@@Z 00000001800ecea0 f   g3log:logmessage.obj
 0001:000ec110       ?fatalCheckToString@LogMessage@g3@@SA?AV?$basic_string@DU?$char_traits@D@std@@V?$allocator@D@2@@std@@AEBU12@@Z 00000001800ed110 f   g3log:logmessage.obj
 0001:000ec460       ?normalToString@LogMessage@g3@@SA?AV?$basic_string@DU?$char_traits@D@std@@V?$allocator@D@2@@std@@AEBU12@@Z 00000001800ed460 f   g3log:logmessage.obj
 0001:000ec560       ?DefaultLogDetailsToString@LogMessage@g3@@SA?AV?$basic_string@DU?$char_traits@D@std@@V?$allocator@D@2@@std@@AEBU12@@Z 00000001800ed560 f   g3log:logmessage.obj
 0001:000eca30       ?FullLogDetailsToString@LogMessage@g3@@SA?AV?$basic_string@DU?$char_traits@D@std@@V?$allocator@D@2@@std@@AEBU12@@Z 00000001800eda30 f   g3log:logmessage.obj
 0001:000ecfe0       ?toString@LogMessage@g3@@QEBA?AV?$basic_string@DU?$char_traits@D@std@@V?$allocator@D@2@@std@@P6A?AV34@AEBU12@@Z@Z 00000001800edfe0 f   g3log:logmessage.obj
 0001:000ed3a0       ?overrideLogDetailsFunc@LogMessage@g3@@QEBAXP6A?AV?$basic_string@DU?$char_traits@D@std@@V?$allocator@D@2@@std@@AEBU12@@Z@Z 00000001800ee3a0 f   g3log:logmessage.obj
 0001:000ed3c0       ??0FatalMessage@g3@@QEAA@AEBULogMessage@1@K@Z 00000001800ee3c0 f   g3log:logmessage.obj
 0001:000ed410       ??0FatalMessage@g3@@QEAA@AEBU01@@Z 00000001800ee410 f   g3log:logmessage.obj
 0001:000ed470       ?copyToLogMessage@FatalMessage@g3@@QEBA?AULogMessage@2@XZ 00000001800ee470 f   g3log:logmessage.obj
 0001:000ed4b0       ?reason@FatalMessage@g3@@QEBA?AV?$basic_string@DU?$char_traits@D@std@@V?$allocator@D@2@@std@@XZ 00000001800ee4b0 f   g3log:logmessage.obj
 0001:000ed500       ??$?HDU?$char_traits@D@std@@V?$allocator@D@1@@std@@YA?AV?$basic_string@DU?$char_traits@D@std@@V?$allocator@D@2@@0@$$QEAV10@AEBV10@@Z 00000001800ee500 f i g3log:logmessage.obj
 0001:000ed550       ??$?HDU?$char_traits@D@std@@V?$allocator@D@1@@std@@YA?AV?$basic_string@DU?$char_traits@D@std@@V?$allocator@D@2@@0@$$QEAV10@D@Z 00000001800ee550 f i g3log:logmessage.obj
 0001:000ed5a0       ??$?HDU?$char_traits@D@std@@V?$allocator@D@1@@std@@YA?AV?$basic_string@DU?$char_traits@D@std@@V?$allocator@D@2@@0@AEBV10@QEBD@Z 00000001800ee5a0 f i g3log:logmessage.obj
 0001:000ed670       ??$?HDU?$char_traits@D@std@@V?$allocator@D@1@@std@@YA?AV?$basic_string@DU?$char_traits@D@std@@V?$allocator@D@2@@0@QEBDAEBV10@@Z 00000001800ee670 f i g3log:logmessage.obj
 0001:000ed740       ??$?HUsystem_clock@chrono@std@@V?$duration@_JU?$ratio@$00$0JIJGIA@@std@@@12@_JU?$ratio@$00$0DLJKMKAA@@2@@chrono@std@@YA?AV?$time_point@Usystem_clock@chrono@std@@V?$duration@_JU?$ratio@$00$0DLJKMKAA@@std@@@23@@01@AEBV?$time_point@Usystem_clock@chrono@std@@V?$duration@_JU?$ratio@$00$0JIJGIA@@std@@@23@@01@AEBV?$duration@_JU?$ratio@$00$0DLJKMKAA@@std@@@01@@Z 00000001800ee740 f i g3log:logmessage.obj
 0001:000ed790       ??$?H_JU?$ratio@$00$0JIJGIA@@std@@_JU?$ratio@$00$0DLJKMKAA@@1@@chrono@std@@YA?AV?$duration@_JU?$ratio@$00$0DLJKMKAA@@std@@@01@AEBV?$duration@_JU?$ratio@$00$0JIJGIA@@std@@@01@AEBV201@@Z 00000001800ee790 f i g3log:logmessage.obj
 0001:000ed800       ??$_Swap_adl@PEAD@std@@YAXAEAPEAD0@Z 00000001800ee800 f i g3log:logmessage.obj
 0001:000ed830       ??$_Traits_find_last_of@U?$char_traits@D@std@@$00@std@@YA_KQEBD_K101@Z 00000001800ee830 f i g3log:logmessage.obj
 0001:000ed9a0       ??$_Traits_find_last_of@U?$char_traits@D@std@@$0A@@std@@YA_KQEBD_K101@Z 00000001800ee9a0 f i g3log:logmessage.obj
 0001:000eda60       ??$duration_cast@V?$duration@_JU?$ratio@$00$0JIJGIA@@std@@@chrono@std@@_JU?$ratio@$00$0DLJKMKAA@@3@$0A@@chrono@std@@YA?AV?$duration@_JU?$ratio@$00$0JIJGIA@@std@@@01@AEBV?$duration@_JU?$ratio@$00$0DLJKMKAA@@std@@@01@@Z 00000001800eea60 f i g3log:logmessage.obj
 0001:000edb40       ??$swap@DU?$char_traits@D@std@@V?$allocator@D@2@@std@@YAXAEAV?$basic_string@DU?$char_traits@D@std@@V?$allocator@D@2@@0@0@Z 00000001800eeb40 f i g3log:logmessage.obj
 0001:000edb70       ??$swap@H$0A@@std@@YAXAEAH0@Z 00000001800eeb70 f i g3log:logmessage.obj
 0001:000edbb0       ??$swap@PEAD$0A@@std@@YAXAEAPEAD0@Z 00000001800eebb0 f i g3log:logmessage.obj
 0001:000edbb0       ??$swap@_K$0A@@std@@YAXAEA_K0@Z 00000001800eebb0 f i g3log:logmessage.obj
 0001:000edbf0       ??$swap@V?$time_point@Usteady_clock@chrono@std@@V?$duration@_JU?$ratio@$00$0DLJKMKAA@@std@@@23@@chrono@std@@$0A@@std@@YAXAEAV?$time_point@Usteady_clock@chrono@std@@V?$duration@_JU?$ratio@$00$0DLJKMKAA@@std@@@23@@chrono@0@0@Z 00000001800eebf0 f i g3log:logmessage.obj
 0001:000edc30       ??$swap@Vid@thread@std@@$0A@@std@@YAXAEAVid@thread@0@0@Z 00000001800eec30 f i g3log:logmessage.obj
 0001:000edc70       ??$time_point_cast@V?$duration@_JU?$ratio@$00$0JIJGIA@@std@@@chrono@std@@Usystem_clock@23@V?$duration@_JU?$ratio@$00$0DLJKMKAA@@std@@@23@$0A@@chrono@std@@YA?AV?$time_point@Usystem_clock@chrono@std@@V?$duration@_JU?$ratio@$00$0JIJGIA@@std@@@23@@01@AEBV?$time_point@Usystem_clock@chrono@std@@V?$duration@_JU?$ratio@$00$0DLJKMKAA@@std@@@23@@01@@Z 00000001800eec70 f i g3log:logmessage.obj
 0001:000edcc0       ??0?$_String_bitmap@D$00@std@@QEAA@XZ 00000001800eecc0 f i g3log:logmessage.obj
 0001:000edce0       ??0?$basic_string@DU?$char_traits@D@std@@V?$allocator@D@2@@std@@QEAA@AEBV01@_K1AEBV?$allocator@D@1@@Z 00000001800eece0 f i g3log:logmessage.obj
 0001:000edd90       ??0?$basic_string@DU?$char_traits@D@std@@V?$allocator@D@2@@std@@QEAA@U_String_constructor_concat_tag@1@AEBV01@QEBD_K23@Z 00000001800eed90 f i g3log:logmessage.obj
 0001:000edf80       ??0?$time_point@Usystem_clock@chrono@std@@V?$duration@_JU?$ratio@$00$0DLJKMKAA@@std@@@23@@chrono@std@@QEAA@AEBV?$duration@_JU?$ratio@$00$0DLJKMKAA@@std@@@12@@Z 00000001800eef80 f i g3log:logmessage.obj
 0001:000edfa0       ??1FatalMessage@g3@@UEAA@XZ 00000001800eefa0 f i g3log:logmessage.obj
 0001:000edfd0       ??_EFatalMessage@g3@@UEAAPEAXI@Z 00000001800eefd0 f i g3log:logmessage.obj
 0001:000edfd0       ??_GFatalMessage@g3@@UEAAPEAXI@Z 00000001800eefd0 f i g3log:logmessage.obj
 0001:000ee010       ?_Mark@?$_String_bitmap@D$00@std@@QEAA_NPEBDQEBD@Z 00000001800ef010 f i g3log:logmessage.obj
 0001:000ee050       ?_Match@?$_String_bitmap@D$00@std@@QEBA_ND@Z 00000001800ef050 f i g3log:logmessage.obj
 0001:000ee070       ?_Swap_bx_large_with_small@?$basic_string@DU?$char_traits@D@std@@V?$allocator@D@2@@std@@SAXAEAV?$_String_val@U?$_Simple_types@D@std@@@2@0@Z 00000001800ef070 f i g3log:logmessage.obj
 0001:000ee0e0       ?_Swap_data@?$basic_string@DU?$char_traits@D@std@@V?$allocator@D@2@@std@@QEAAXAEAV12@@Z 00000001800ef0e0 f i g3log:logmessage.obj
 0001:000ee2c0       ?expression@LogMessage@g3@@QEBA?AV?$basic_string@DU?$char_traits@D@std@@V?$allocator@D@2@@std@@XZ 00000001800ef2c0 f i g3log:logmessage.obj
 0001:000ee310       ?find@?$_Narrow_char_traits@DH@std@@SAPEBDQEBD_KAEBD@Z 00000001800ef310 f i g3log:logmessage.obj
 0001:000ee350       ?find_last_of@?$basic_string@DU?$char_traits@D@std@@V?$allocator@D@2@@std@@QEBA_KQEBD_K@Z 00000001800ef350 f i g3log:logmessage.obj
 0001:000ee3c0       ?function@LogMessage@g3@@QEBA?AV?$basic_string@DU?$char_traits@D@std@@V?$allocator@D@2@@std@@XZ 00000001800ef3c0 f i g3log:logmessage.obj
 0001:000ee410       ?substr@?$basic_string@DU?$char_traits@D@std@@V?$allocator@D@2@@std@@QEBA?AV12@_K0@Z 00000001800ef410 f i g3log:logmessage.obj
 0001:000ee470       ?swap@?$basic_string@DU?$char_traits@D@std@@V?$allocator@D@2@@std@@QEAAXAEAV12@@Z 00000001800ef470 f i g3log:logmessage.obj
 0001:000ee4e0       ?swap@@YAXAEAULEVELS@@0@Z  00000001800ef4e0 f i g3log:logmessage.obj
 0001:000ee520       ?swap@g3@@YAXAEAULogMessage@1@0@Z 00000001800ef520 f i g3log:logmessage.obj
 0001:000ee620       ?to_system_time@g3@@YA?AV?$time_point@Usystem_clock@chrono@std@@V?$duration@_JU?$ratio@$00$0JIJGIA@@std@@@23@@chrono@std@@AEBV?$time_point@Usteady_clock@chrono@std@@V?$duration@_JU?$ratio@$00$0DLJKMKAA@@std@@@23@@34@@Z 00000001800ef620 f i g3log:logmessage.obj
 0001:000ee720       ?wasFatal@LogMessage@g3@@QEBA_NXZ 00000001800ef720 f i g3log:logmessage.obj
 0001:000ee750       ?installCrashHandler@g3@@YAXXZ 00000001800ef750 f   g3log:crashhandler_windows.obj
 0001:000ee7a0       ?installSignalHandlerForThread@g3@@YAXXZ 00000001800ef7a0 f   g3log:crashhandler_windows.obj
 0001:000ee8b0       ?restoreFatalHandlingToDefault@internal@g3@@YAXXZ 00000001800ef8b0 f   g3log:crashhandler_windows.obj
 0001:000ee980       ?shouldBlockForFatalHandling@internal@g3@@YA_NXZ 00000001800ef980 f   g3log:crashhandler_windows.obj
 0001:000ee9a0       ?exitReasonName@internal@g3@@YA?AV?$basic_string@DU?$char_traits@D@std@@V?$allocator@D@2@@std@@AEBULEVELS@@K@Z 00000001800ef9a0 f   g3log:crashhandler_windows.obj
 0001:000eebc0       ?stackdump@internal@g3@@YA?AV?$basic_string@DU?$char_traits@D@std@@V?$allocator@D@2@@std@@PEBD@Z 00000001800efbc0 f   g3log:crashhandler_windows.obj
 0001:000eecb0       ?exitWithDefaultSignalHandler@internal@g3@@YAXAEBULEVELS@@K@Z 00000001800efcb0 f   g3log:crashhandler_windows.obj
 0001:000ef210       ?installSignalHandler@internal@g3@@YAXXZ 00000001800f0210 f   g3log:crashhandler_windows.obj
 0001:000ef220       ??8LEVELS@@QEBA_NAEBU0@@Z  00000001800f0220 f i g3log:crashhandler_windows.obj
 0001:000ef280       ??0FileSink@g3@@QEAA@AEBV?$basic_string@DU?$char_traits@D@std@@V?$allocator@D@2@@std@@00_K@Z 00000001800f0280 f   g3log:filesink.obj
 0001:000ef6d0       ??1FileSink@g3@@UEAA@XZ    00000001800f06d0 f   g3log:filesink.obj
 0001:000ef8b0       ?fileWrite@FileSink@g3@@QEAAXU?$MoveOnCopy@ULogMessage@g3@@@2@@Z 00000001800f08b0 f   g3log:filesink.obj
 0001:000efa20       ?changeLogFile@FileSink@g3@@QEAA?AV?$basic_string@DU?$char_traits@D@std@@V?$allocator@D@2@@std@@AEBV34@0@Z 00000001800f0a20 f   g3log:filesink.obj
 0001:000efec0       ?fileName@FileSink@g3@@QEAA?AV?$basic_string@DU?$char_traits@D@std@@V?$allocator@D@2@@std@@XZ 00000001800f0ec0 f   g3log:filesink.obj
 0001:000eff10       ?overrideLogDetails@FileSink@g3@@QEAAXP6A?AV?$basic_string@DU?$char_traits@D@std@@V?$allocator@D@2@@std@@AEBULogMessage@2@@Z@Z 00000001800f0f10 f   g3log:filesink.obj
 0001:000eff30       ?overrideLogHeader@FileSink@g3@@QEAAXAEBV?$basic_string@DU?$char_traits@D@std@@V?$allocator@D@2@@std@@@Z 00000001800f0f30 f   g3log:filesink.obj
 0001:000eff60       ?addLogFileHeader@FileSink@g3@@AEAAXXZ 00000001800f0f60 f   g3log:filesink.obj
 0001:000efff0       ?isValidFilename@internal@g3@@YA_NAEBV?$basic_string@DU?$char_traits@D@std@@V?$allocator@D@2@@std@@@Z 00000001800f0ff0 f   g3log:filesink.obj
 0001:000f0170       ?prefixSanityFix@internal@g3@@YA?AV?$basic_string@DU?$char_traits@D@std@@V?$allocator@D@2@@std@@V34@@Z 00000001800f1170 f   g3log:filesink.obj
 0001:000f06a0       ?pathSanityFix@internal@g3@@YA?AV?$basic_string@DU?$char_traits@D@std@@V?$allocator@D@2@@std@@V34@AEBV34@@Z 00000001800f16a0 f   g3log:filesink.obj
 0001:000f08b0       ?header@internal@g3@@YA?AV?$basic_string@DU?$char_traits@D@std@@V?$allocator@D@2@@std@@AEBV34@@Z 00000001800f18b0 f   g3log:filesink.obj
 0001:000f09f0       ?createLogFileName@internal@g3@@YA?AV?$basic_string@DU?$char_traits@D@std@@V?$allocator@D@2@@std@@AEBV34@0@Z 00000001800f19f0 f   g3log:filesink.obj
 0001:000f0b50       ?openLogFile@internal@g3@@YA_NAEBV?$basic_string@DU?$char_traits@D@std@@V?$allocator@D@2@@std@@AEAV?$basic_ofstream@DU?$char_traits@D@std@@@4@@Z 00000001800f1b50 f   g3log:filesink.obj
 0001:000f0d00       ?createLogFile@internal@g3@@YA?AV?$unique_ptr@V?$basic_ofstream@DU?$char_traits@D@std@@@std@@U?$default_delete@V?$basic_ofstream@DU?$char_traits@D@std@@@std@@@2@@std@@AEBV?$basic_string@DU?$char_traits@D@std@@V?$allocator@D@2@@4@@Z 00000001800f1d00 f   g3log:filesink.obj
 0001:000f0dc0       ??$?4U?$default_delete@V?$basic_ofstream@DU?$char_traits@D@std@@@std@@@std@@$0A@@?$unique_ptr@V?$basic_ofstream@DU?$char_traits@D@std@@@std@@U?$default_delete@V?$basic_ofstream@DU?$char_traits@D@std@@@std@@@2@@std@@QEAAAEAV01@$$QEAV01@@Z 00000001800f1dc0 f i g3log:filesink.obj
 0001:000f0e20       ??$?8V?$basic_ofstream@DU?$char_traits@D@std@@@std@@U?$default_delete@V?$basic_ofstream@DU?$char_traits@D@std@@@std@@@1@@std@@YA_NAEBV?$unique_ptr@V?$basic_ofstream@DU?$char_traits@D@std@@@std@@U?$default_delete@V?$basic_ofstream@DU?$char_traits@D@std@@@std@@@2@@0@$$T@Z 00000001800f1e20 f i g3log:filesink.obj
 0001:000f0e60       ??$?HDU?$char_traits@D@std@@V?$allocator@D@1@@std@@YA?AV?$basic_string@DU?$char_traits@D@std@@V?$allocator@D@2@@0@AEBV10@0@Z 00000001800f1e60 f i g3log:filesink.obj
 0001:000f0f50       ??$_Could_compare_equal_to_value_type@PEADD@std@@YA_NAEBD@Z 00000001800f1f50 f i g3log:filesink.obj
 0001:000f0fa0       ??$_Find_unchecked@PEADD@std@@YAPEADPEADQEADAEBD@Z 00000001800f1fa0 f i g3log:filesink.obj
 0001:000f1070       ??$_Get_unwrapped@AEAV?$_String_iterator@V?$_String_val@U?$_Simple_types@D@std@@@std@@@std@@@std@@YA?A_TAEAV?$_String_iterator@V?$_String_val@U?$_Simple_types@D@std@@@std@@@0@@Z 00000001800f2070 f i g3log:filesink.obj
 0001:000f1070       ??$_Get_unwrapped@AEBV?$_String_iterator@V?$_String_val@U?$_Simple_types@D@std@@@std@@@std@@@std@@YA?A_TAEBV?$_String_iterator@V?$_String_val@U?$_Simple_types@D@std@@@std@@@0@@Z 00000001800f2070 f i g3log:filesink.obj
 0001:000f1090       ??$_Reallocate_grow_by@V<lambda_1>@?1??insert@?$basic_string@DU?$char_traits@D@std@@V?$allocator@D@2@@std@@QEAAAEAV34@_K0D@Z@_K_KD@?$basic_string@DU?$char_traits@D@std@@V?$allocator@D@2@@std@@AEAAAEAV01@_KV<lambda_1>@?1??insert@01@QEAAAEAV01@00D@Z@_K2D@Z 00000001800f2090 f i g3log:filesink.obj
 0001:000f12b0       ??$_Seek_wrapped@PEADAEAPEAD@std@@YAXAEAPEAD0@Z 00000001800f22b0 f i g3log:filesink.obj
 0001:000f12d0       ??$_Seek_wrapped@V?$_String_iterator@V?$_String_val@U?$_Simple_types@D@std@@@std@@@std@@AEAPEAD@std@@YAXAEAV?$_String_iterator@V?$_String_val@U?$_Simple_types@D@std@@@std@@@0@AEAPEAD@Z 00000001800f22d0 f i g3log:filesink.obj
 0001:000f1300       ??$_Traits_find_first_of@U?$char_traits@D@std@@$00@std@@YA_KQEBD_K101@Z 00000001800f2300 f i g3log:filesink.obj
 0001:000f1470       ??$_Traits_find_first_of@U?$char_traits@D@std@@$0A@@std@@YA_KQEBD_K101@Z 00000001800f2470 f i g3log:filesink.obj
 0001:000f1520       ??$__std_find_trivial@DD@@YAPEADPEAD0D@Z 00000001800f2520 f i g3log:filesink.obj
 0001:000f1550       ??$find_if@PEADP6AHH@Z@std@@YAPEADPEADQEADP6AHH@Z@Z 00000001800f2550 f i g3log:filesink.obj
 0001:000f15f0       ??$remove@V?$_String_iterator@V?$_String_val@U?$_Simple_types@D@std@@@std@@@std@@D@std@@YA?AV?$_String_iterator@V?$_String_val@U?$_Simple_types@D@std@@@std@@@0@V10@V10@AEBD@Z 00000001800f25f0 f i g3log:filesink.obj
 0001:000f16e0       ??$remove_if@V?$_String_iterator@V?$_String_val@U?$_Simple_types@D@std@@@std@@@std@@P6AHH@Z@std@@YA?AV?$_String_iterator@V?$_String_val@U?$_Simple_types@D@std@@@std@@@0@V10@V10@P6AHH@Z@Z 00000001800f26e0 f i g3log:filesink.obj
 0001:000f17e0       ??$replace@V?$_String_iterator@V?$_String_val@U?$_Simple_types@D@std@@@std@@@std@@D@std@@YAXV?$_String_iterator@V?$_String_val@U?$_Simple_types@D@std@@@std@@@0@0AEBD1@Z 00000001800f27e0 f i g3log:filesink.obj
 0001:000f1870       ??0?$_String_const_iterator@V?$_String_val@U?$_Simple_types@D@std@@@std@@@std@@QEAA@PEBDPEBU_Container_base0@1@@Z 00000001800f2870 f i g3log:filesink.obj
 0001:000f1870       ??0?$_Tree_unchecked_const_iterator@V?$_Tree_val@U?$_Tree_simple_types@U?$pair@$$CBKV?$basic_string@DU?$char_traits@D@std@@V?$allocator@D@2@@std@@@std@@@std@@@std@@U_Iterator_base0@2@@std@@QEAA@PEAU?$_Tree_node@U?$pair@$$CBKV?$basic_string@DU?$char_traits@D@std@@V?$allocator@D@2@@std@@@std@@PEAX@1@PEBV?$_Tree_val@U?$_Tree_simple_types@U?$pair@$$CBKV?$basic_string@DU?$char_traits@D@std@@V?$allocator@D@2@@std@@@std@@@std@@@1@@Z 00000001800f2870 f i g3log:stacktrace_windows.obj
 0001:000f18b0       ??0?$_String_iterator@V?$_String_val@U?$_Simple_types@D@std@@@std@@@std@@QEAA@PEBDPEBU_Container_base0@1@@Z 00000001800f28b0 f i g3log:filesink.obj
 0001:000f18b0       ??0?$_Tree_const_iterator@V?$_Tree_val@U?$_Tree_simple_types@U?$pair@$$CBKV?$basic_string@DU?$char_traits@D@std@@V?$allocator@D@2@@std@@@std@@@std@@@std@@@std@@QEAA@PEAU?$_Tree_node@U?$pair@$$CBKV?$basic_string@DU?$char_traits@D@std@@V?$allocator@D@2@@std@@@std@@PEAX@1@PEBV?$_Tree_val@U?$_Tree_simple_types@U?$pair@$$CBKV?$basic_string@DU?$char_traits@D@std@@V?$allocator@D@2@@std@@@std@@@std@@@1@@Z 00000001800f28b0 f i g3log:stacktrace_windows.obj
 0001:000f18f0       ??1?$unique_ptr@V?$basic_ofstream@DU?$char_traits@D@std@@@std@@U?$default_delete@V?$basic_ofstream@DU?$char_traits@D@std@@@std@@@2@@std@@QEAA@XZ 00000001800f28f0 f i g3log:filesink.obj
 0001:000f1940       ??4?$basic_string@DU?$char_traits@D@std@@V?$allocator@D@2@@std@@QEAAAEAV01@AEBV01@@Z 00000001800f2940 f i g3log:filesink.obj
 0001:000f19e0       ??H?$_String_iterator@V?$_String_val@U?$_Simple_types@D@std@@@std@@@std@@QEBA?AV01@_J@Z 00000001800f29e0 f i g3log:filesink.obj
 0001:000f1a20       ??R<lambda_1>@?1??insert@?$basic_string@DU?$char_traits@D@std@@V?$allocator@D@2@@std@@QEAAAEAV23@_K0D@Z@QEBA@QEADQEBD000D@Z 00000001800f2a20 f i g3log:filesink.obj
 0001:000f1ad0       ??R?$default_delete@V?$basic_ofstream@DU?$char_traits@D@std@@@std@@@std@@QEBAXPEAV?$basic_ofstream@DU?$char_traits@D@std@@@1@@Z 00000001800f2ad0 f i g3log:filesink.obj
 0001:000f1b50       ??Y?$_String_const_iterator@V?$_String_val@U?$_Simple_types@D@std@@@std@@@std@@QEAAAEAV01@_J@Z 00000001800f2b50 f i g3log:filesink.obj
 0001:000f1b80       ??Y?$_String_iterator@V?$_String_val@U?$_Simple_types@D@std@@@std@@@std@@QEAAAEAV01@_J@Z 00000001800f2b80 f i g3log:filesink.obj
 0001:000f1bb0       ??_EFileSink@g3@@UEAAPEAXI@Z 00000001800f2bb0 f i g3log:filesink.obj
 0001:000f1bb0       ??_GFileSink@g3@@UEAAPEAXI@Z 00000001800f2bb0 f i g3log:filesink.obj
 0001:000f1bf0       ?_Check_offset_exclusive@?$_String_val@U?$_Simple_types@D@std@@@std@@QEBAX_K@Z 00000001800f2bf0 f i g3log:filesink.obj
 0001:000f1c20       ?_Init_string_inplace@?$basic_stringbuf@DU?$char_traits@D@std@@V?$allocator@D@2@@std@@IEAAX$$QEAV?$basic_string@DU?$char_traits@D@std@@V?$allocator@D@2@@2@H@Z 00000001800f2c20 f i g3log:filesink.obj
 0001:000f1d80       ?_Release_to_buffer@?$basic_string@DU?$char_traits@D@std@@V?$allocator@D@2@@std@@QEAA?AU_Released_buffer@12@AEAV?$allocator@D@2@@Z 00000001800f2d80 f i g3log:filesink.obj
 0001:000f1e60       ?_Seek_to@?$_String_const_iterator@V?$_String_val@U?$_Simple_types@D@std@@@std@@@std@@QEAAXPEBD@Z 00000001800f2e60 f i g3log:filesink.obj
 0001:000f1e90       ??$_To_address@PEA_K@std@@YA?A_PAEBQEA_K@Z 00000001800f2e90 f i g3log:stacktrace_windows.obj
 0001:000f1e90       ?_Unwrapped@?$_String_iterator@V?$_String_val@U?$_Simple_types@D@std@@@std@@@std@@QEBAPEADXZ 00000001800f2e90 f i g3log:filesink.obj
 0001:000f1eb0       ?at@?$basic_string@DU?$char_traits@D@std@@V?$allocator@D@2@@std@@QEBAAEBD_K@Z 00000001800f2eb0 f i g3log:filesink.obj
 0001:000f1ef0       ?begin@?$basic_string@DU?$char_traits@D@std@@V?$allocator@D@2@@std@@QEAA?AV?$_String_iterator@V?$_String_val@U?$_Simple_types@D@std@@@std@@@2@XZ 00000001800f2ef0 f i g3log:filesink.obj
